
floyd-warshall.x:     file format elf128-littleriscv


Disassembly of section .text:

80000000 <_start>:
80000000:	30047073          	csrci	mstatus,8
80000004:	0000d297          	auipc	t0,0xd
80000008:	9c428293          	addi	t0,t0,-1596 # 8000c9c8 <trap_entry>
8000000c:	30529073          	csrw	mtvec,t0
80000010:	00200297          	auipc	t0,0x200
80000014:	37028293          	addi	t0,t0,880 # 80200380 <_stack_pointer>
80000018:	0002b103          	ld	sp,0(t0)
8000001c:	f1402573          	csrr	a0,mhartid
80000020:	0000c297          	auipc	t0,0xc
80000024:	6b828293          	addi	t0,t0,1720 # 8000c6d8 <bsp_start>
80000028:	000280e7          	jalr	t0
8000002c:	0000006f          	j	8000002c <_start+0x2c>
80000030:	00000013          	nop

80000034 <init_array>:
80000034:	fc010113          	addi	sp,sp,-64
80000038:	02814823          	sq	s0,48(sp)
8000003c:	04010413          	addi	s0,sp,64
80000040:	00050793          	mv	a5,a0
80000044:	fcb44023          	sq	a1,-64(s0)
80000048:	fcf42e23          	sw	a5,-36(s0)
8000004c:	fe042623          	sw	zero,-20(s0)
80000050:	1440006f          	j	80000194 <init_array+0x160>
80000054:	fe042423          	sw	zero,-24(s0)
80000058:	1180006f          	j	80000170 <init_array+0x13c>
8000005c:	fec42783          	lw	a5,-20(s0)
80000060:	00078713          	mv	a4,a5
80000064:	fe842783          	lw	a5,-24(s0)
80000068:	02f707bb          	mulw	a5,a4,a5
8000006c:	0007879b          	sext.w	a5,a5
80000070:	00078713          	mv	a4,a5
80000074:	00700793          	li	a5,7
80000078:	02f767bb          	remw	a5,a4,a5
8000007c:	0007861b          	sext.w	a2,a5
80000080:	fec42703          	lw	a4,-20(s0)
80000084:	00070793          	mv	a5,a4
80000088:	00479793          	slli	a5,a5,0x4
8000008c:	40e787b3          	sub	a5,a5,a4
80000090:	00479793          	slli	a5,a5,0x4
80000094:	00078713          	mv	a4,a5
80000098:	fc04278f          	lq	a5,-64(s0)
8000009c:	00e786b3          	add	a3,a5,a4
800000a0:	0016079b          	addw	a5,a2,1
800000a4:	0007871b          	sext.w	a4,a5
800000a8:	fe842783          	lw	a5,-24(s0)
800000ac:	00279793          	slli	a5,a5,0x2
800000b0:	00f687b3          	add	a5,a3,a5
800000b4:	00e7a023          	sw	a4,0(a5)
800000b8:	fec42783          	lw	a5,-20(s0)
800000bc:	00078713          	mv	a4,a5
800000c0:	fe842783          	lw	a5,-24(s0)
800000c4:	00f707bb          	addw	a5,a4,a5
800000c8:	0007879b          	sext.w	a5,a5
800000cc:	00078713          	mv	a4,a5
800000d0:	00d00793          	li	a5,13
800000d4:	02f767bb          	remw	a5,a4,a5
800000d8:	0007879b          	sext.w	a5,a5
800000dc:	04078a63          	beqz	a5,80000130 <init_array+0xfc>
800000e0:	fec42783          	lw	a5,-20(s0)
800000e4:	00078713          	mv	a4,a5
800000e8:	fe842783          	lw	a5,-24(s0)
800000ec:	00f707bb          	addw	a5,a4,a5
800000f0:	0007879b          	sext.w	a5,a5
800000f4:	00078713          	mv	a4,a5
800000f8:	00700793          	li	a5,7
800000fc:	02f767bb          	remw	a5,a4,a5
80000100:	0007879b          	sext.w	a5,a5
80000104:	02078663          	beqz	a5,80000130 <init_array+0xfc>
80000108:	fec42783          	lw	a5,-20(s0)
8000010c:	00078713          	mv	a4,a5
80000110:	fe842783          	lw	a5,-24(s0)
80000114:	00f707bb          	addw	a5,a4,a5
80000118:	0007879b          	sext.w	a5,a5
8000011c:	00078713          	mv	a4,a5
80000120:	00b00793          	li	a5,11
80000124:	02f767bb          	remw	a5,a4,a5
80000128:	0007879b          	sext.w	a5,a5
8000012c:	02079c63          	bnez	a5,80000164 <init_array+0x130>
80000130:	fec42703          	lw	a4,-20(s0)
80000134:	00070793          	mv	a5,a4
80000138:	00479793          	slli	a5,a5,0x4
8000013c:	40e787b3          	sub	a5,a5,a4
80000140:	00479793          	slli	a5,a5,0x4
80000144:	00078713          	mv	a4,a5
80000148:	fc04278f          	lq	a5,-64(s0)
8000014c:	00e78733          	add	a4,a5,a4
80000150:	fe842783          	lw	a5,-24(s0)
80000154:	00279793          	slli	a5,a5,0x2
80000158:	00f707b3          	add	a5,a4,a5
8000015c:	3e700713          	li	a4,999
80000160:	00e7a023          	sw	a4,0(a5)
80000164:	fe842783          	lw	a5,-24(s0)
80000168:	0017879b          	addw	a5,a5,1
8000016c:	fef42423          	sw	a5,-24(s0)
80000170:	fe842783          	lw	a5,-24(s0)
80000174:	00078713          	mv	a4,a5
80000178:	fdc42783          	lw	a5,-36(s0)
8000017c:	0007071b          	sext.w	a4,a4
80000180:	0007879b          	sext.w	a5,a5
80000184:	ecf74ce3          	blt	a4,a5,8000005c <_ebss+0xffdff34c>
80000188:	fec42783          	lw	a5,-20(s0)
8000018c:	0017879b          	addw	a5,a5,1
80000190:	fef42623          	sw	a5,-20(s0)
80000194:	fec42783          	lw	a5,-20(s0)
80000198:	00078713          	mv	a4,a5
8000019c:	fdc42783          	lw	a5,-36(s0)
800001a0:	0007071b          	sext.w	a4,a4
800001a4:	0007879b          	sext.w	a5,a5
800001a8:	eaf746e3          	blt	a4,a5,80000054 <_ebss+0xffdff344>
800001ac:	00000013          	nop
800001b0:	00000013          	nop
800001b4:	0301240f          	lq	s0,48(sp)
800001b8:	04010113          	addi	sp,sp,64
800001bc:	00008067          	ret

800001c0 <print_array>:
800001c0:	fb010113          	addi	sp,sp,-80
800001c4:	04114023          	sq	ra,64(sp)
800001c8:	02814823          	sq	s0,48(sp)
800001cc:	05010413          	addi	s0,sp,80
800001d0:	00050793          	mv	a5,a0
800001d4:	fab44823          	sq	a1,-80(s0)
800001d8:	fcf42623          	sw	a5,-52(s0)
800001dc:	fc042e23          	sw	zero,-36(s0)
800001e0:	0880006f          	j	80000268 <print_array+0xa8>
800001e4:	fc042c23          	sw	zero,-40(s0)
800001e8:	0500006f          	j	80000238 <print_array+0x78>
800001ec:	fdc42703          	lw	a4,-36(s0)
800001f0:	00070793          	mv	a5,a4
800001f4:	00479793          	slli	a5,a5,0x4
800001f8:	40e787b3          	sub	a5,a5,a4
800001fc:	00479793          	slli	a5,a5,0x4
80000200:	00078713          	mv	a4,a5
80000204:	fb04278f          	lq	a5,-80(s0)
80000208:	00e78733          	add	a4,a5,a4
8000020c:	fd842783          	lw	a5,-40(s0)
80000210:	00279793          	slli	a5,a5,0x2
80000214:	00f707b3          	add	a5,a4,a5
80000218:	0007a783          	lw	a5,0(a5)
8000021c:	00078593          	mv	a1,a5
80000220:	0000d517          	auipc	a0,0xd
80000224:	f8050513          	addi	a0,a0,-128 # 8000d1a0 <puts+0x4c>
80000228:	125040ef          	jal	80004b4c <iprintf>
8000022c:	fd842783          	lw	a5,-40(s0)
80000230:	0017879b          	addw	a5,a5,1
80000234:	fcf42c23          	sw	a5,-40(s0)
80000238:	fd842783          	lw	a5,-40(s0)
8000023c:	00078713          	mv	a4,a5
80000240:	fcc42783          	lw	a5,-52(s0)
80000244:	0007071b          	sext.w	a4,a4
80000248:	0007879b          	sext.w	a5,a5
8000024c:	faf740e3          	blt	a4,a5,800001ec <_ebss+0xffdff4dc>
80000250:	0000d517          	auipc	a0,0xd
80000254:	f6050513          	addi	a0,a0,-160 # 8000d1b0 <puts+0x5c>
80000258:	0f5040ef          	jal	80004b4c <iprintf>
8000025c:	fdc42783          	lw	a5,-36(s0)
80000260:	0017879b          	addw	a5,a5,1
80000264:	fcf42e23          	sw	a5,-36(s0)
80000268:	fdc42783          	lw	a5,-36(s0)
8000026c:	00078713          	mv	a4,a5
80000270:	fcc42783          	lw	a5,-52(s0)
80000274:	0007071b          	sext.w	a4,a4
80000278:	0007879b          	sext.w	a5,a5
8000027c:	f6f744e3          	blt	a4,a5,800001e4 <_ebss+0xffdff4d4>
80000280:	00000013          	nop
80000284:	00000013          	nop
80000288:	0401208f          	lq	ra,64(sp)
8000028c:	0301240f          	lq	s0,48(sp)
80000290:	05010113          	addi	sp,sp,80
80000294:	00008067          	ret

80000298 <main>:
80000298:	fa010113          	addi	sp,sp,-96
8000029c:	04114823          	sq	ra,80(sp)
800002a0:	04814023          	sq	s0,64(sp)
800002a4:	06010413          	addi	s0,sp,96
800002a8:	00050793          	mv	a5,a0
800002ac:	fab44023          	sq	a1,-96(s0)
800002b0:	faf42e23          	sw	a5,-68(s0)
800002b4:	03c00793          	li	a5,60
800002b8:	fcf42e23          	sw	a5,-36(s0)
800002bc:	00400593          	li	a1,4
800002c0:	000017b7          	lui	a5,0x1
800002c4:	e1078513          	addi	a0,a5,-496 # e10 <UART_BASE-0xffff1f0>
800002c8:	0bc000ef          	jal	80000384 <polybench_alloc_data>
800002cc:	fca44023          	sq	a0,-64(s0)
800002d0:	fdc42783          	lw	a5,-36(s0)
800002d4:	fc04258f          	lq	a1,-64(s0)
800002d8:	00078513          	mv	a0,a5
800002dc:	d59ff0ef          	jal	80000034 <_ebss+0xffdff324>
800002e0:	fdc42783          	lw	a5,-36(s0)
800002e4:	fc04258f          	lq	a1,-64(s0)
800002e8:	00078513          	mv	a0,a5
800002ec:	ed5ff0ef          	jal	800001c0 <_ebss+0xffdff4b0>
800002f0:	fc04250f          	lq	a0,-64(s0)
800002f4:	331030ef          	jal	80003e24 <free>
800002f8:	00000793          	li	a5,0
800002fc:	00078513          	mv	a0,a5
80000300:	0501208f          	lq	ra,80(sp)
80000304:	0401240f          	lq	s0,64(sp)
80000308:	06010113          	addi	sp,sp,96
8000030c:	00008067          	ret

80000310 <xmalloc>:
80000310:	fb010113          	addi	sp,sp,-80
80000314:	04114023          	sq	ra,64(sp)
80000318:	02814823          	sq	s0,48(sp)
8000031c:	05010413          	addi	s0,sp,80
80000320:	faa44823          	sq	a0,-80(s0)
80000324:	fb04250f          	lq	a0,-80(s0)
80000328:	2b9030ef          	jal	80003de0 <malloc>
8000032c:	00050793          	mv	a5,a0
80000330:	fcf44823          	sq	a5,-48(s0)
80000334:	fd04278f          	lq	a5,-48(s0)
80000338:	0017b793          	seqz	a5,a5
8000033c:	0ff7f793          	zext.b	a5,a5
80000340:	fcf42623          	sw	a5,-52(s0)
80000344:	fd04278f          	lq	a5,-48(s0)
80000348:	00078863          	beqz	a5,80000358 <xmalloc+0x48>
8000034c:	fcc42783          	lw	a5,-52(s0)
80000350:	0007879b          	sext.w	a5,a5
80000354:	00078c63          	beqz	a5,8000036c <xmalloc+0x5c>
80000358:	0000d517          	auipc	a0,0xd
8000035c:	e7850513          	addi	a0,a0,-392 # 8000d1d0 <puts+0x7c>
80000360:	7ec040ef          	jal	80004b4c <iprintf>
80000364:	00100513          	li	a0,1
80000368:	700040ef          	jal	80004a68 <exit>
8000036c:	fd04278f          	lq	a5,-48(s0)
80000370:	00078513          	mv	a0,a5
80000374:	0401208f          	lq	ra,64(sp)
80000378:	0301240f          	lq	s0,48(sp)
8000037c:	05010113          	addi	sp,sp,80
80000380:	00008067          	ret

80000384 <polybench_alloc_data>:
80000384:	fa010113          	addi	sp,sp,-96
80000388:	04114823          	sq	ra,80(sp)
8000038c:	04814023          	sq	s0,64(sp)
80000390:	06010413          	addi	s0,sp,96
80000394:	faa44823          	sq	a0,-80(s0)
80000398:	00058793          	mv	a5,a1
8000039c:	faf42623          	sw	a5,-84(s0)
800003a0:	fb04278f          	lq	a5,-80(s0)
800003a4:	fcf44823          	sq	a5,-48(s0)
800003a8:	fac42783          	lw	a5,-84(s0)
800003ac:	fd04270f          	lq	a4,-48(s0)
800003b0:	02f707b3          	mul	a5,a4,a5
800003b4:	fcf44823          	sq	a5,-48(s0)
800003b8:	fd04250f          	lq	a0,-48(s0)
800003bc:	f55ff0ef          	jal	80000310 <_ebss+0xffdff600>
800003c0:	fca44023          	sq	a0,-64(s0)
800003c4:	fc04278f          	lq	a5,-64(s0)
800003c8:	00078513          	mv	a0,a5
800003cc:	0501208f          	lq	ra,80(sp)
800003d0:	0401240f          	lq	s0,64(sp)
800003d4:	06010113          	addi	sp,sp,96
800003d8:	00008067          	ret

800003dc <_calloc_r>:
800003dc:	f9010113          	addi	sp,sp,-112
800003e0:	06114023          	sq	ra,96(sp)
800003e4:	04814823          	sq	s0,80(sp)
800003e8:	07010413          	addi	s0,sp,112
800003ec:	faa44823          	sq	a0,-80(s0)
800003f0:	fab44023          	sq	a1,-96(s0)
800003f4:	f8c44823          	sq	a2,-112(s0)
800003f8:	00000613          	li	a2,0
800003fc:	fa04270f          	lq	a4,-96(s0)
80000400:	f904278f          	lq	a5,-112(s0)
80000404:	02f736b3          	mulhu	a3,a4,a5
80000408:	02f707b3          	mul	a5,a4,a5
8000040c:	00068463          	beqz	a3,80000414 <_calloc_r+0x38>
80000410:	00100613          	li	a2,1
80000414:	fcf44023          	sq	a5,-64(s0)
80000418:	00060793          	mv	a5,a2
8000041c:	0017f793          	andi	a5,a5,1
80000420:	0ff7f793          	zext.b	a5,a5
80000424:	00078c63          	beqz	a5,8000043c <_calloc_r+0x60>
80000428:	fb04278f          	lq	a5,-80(s0)
8000042c:	00c00713          	li	a4,12
80000430:	00e7a023          	sw	a4,0(a5)
80000434:	00000793          	li	a5,0
80000438:	0380006f          	j	80000470 <_calloc_r+0x94>
8000043c:	fc04278f          	lq	a5,-64(s0)
80000440:	00078593          	mv	a1,a5
80000444:	fb04250f          	lq	a0,-80(s0)
80000448:	390010ef          	jal	800017d8 <_malloc_r>
8000044c:	fca44823          	sq	a0,-48(s0)
80000450:	fd04278f          	lq	a5,-48(s0)
80000454:	00078c63          	beqz	a5,8000046c <_calloc_r+0x90>
80000458:	fc04278f          	lq	a5,-64(s0)
8000045c:	00078613          	mv	a2,a5
80000460:	00000593          	li	a1,0
80000464:	fd04250f          	lq	a0,-48(s0)
80000468:	41c040ef          	jal	80004884 <memset>
8000046c:	fd04278f          	lq	a5,-48(s0)
80000470:	00078513          	mv	a0,a5
80000474:	0601208f          	lq	ra,96(sp)
80000478:	0501240f          	lq	s0,80(sp)
8000047c:	07010113          	addi	sp,sp,112
80000480:	00008067          	ret

80000484 <__cvt>:
80000484:	f2010113          	addi	sp,sp,-224
80000488:	0c114823          	sq	ra,208(sp)
8000048c:	0c814023          	sq	s0,192(sp)
80000490:	0e010413          	addi	s0,sp,224
80000494:	f6a44823          	sq	a0,-144(s0)
80000498:	f6b43423          	sd	a1,-152(s0)
8000049c:	f4e44823          	sq	a4,-176(s0)
800004a0:	f4f44023          	sq	a5,-192(s0)
800004a4:	00080713          	mv	a4,a6
800004a8:	f3144023          	sq	a7,-224(s0)
800004ac:	00060793          	mv	a5,a2
800004b0:	f6f42223          	sw	a5,-156(s0)
800004b4:	00068793          	mv	a5,a3
800004b8:	f6f42023          	sw	a5,-160(s0)
800004bc:	00070793          	mv	a5,a4
800004c0:	f2f42e23          	sw	a5,-196(s0)
800004c4:	f6843783          	ld	a5,-152(s0)
800004c8:	f8f43023          	sd	a5,-128(s0)
800004cc:	f8442783          	lw	a5,-124(s0)
800004d0:	0007879b          	sext.w	a5,a5
800004d4:	0207d663          	bgez	a5,80000500 <__cvt+0x7c>
800004d8:	f6843783          	ld	a5,-152(s0)
800004dc:	00078713          	mv	a4,a5
800004e0:	fff00793          	li	a5,-1
800004e4:	03f79793          	slli	a5,a5,0x3f
800004e8:	00f747b3          	xor	a5,a4,a5
800004ec:	f6f43423          	sd	a5,-152(s0)
800004f0:	f504278f          	lq	a5,-176(s0)
800004f4:	02d00713          	li	a4,45
800004f8:	00e78023          	sb	a4,0(a5)
800004fc:	00c0006f          	j	80000508 <__cvt+0x84>
80000500:	f504278f          	lq	a5,-176(s0)
80000504:	00078023          	sb	zero,0(a5)
80000508:	f3c42783          	lw	a5,-196(s0)
8000050c:	0007871b          	sext.w	a4,a5
80000510:	06600793          	li	a5,102
80000514:	00f70a63          	beq	a4,a5,80000528 <__cvt+0xa4>
80000518:	f3c42783          	lw	a5,-196(s0)
8000051c:	0007871b          	sext.w	a4,a5
80000520:	04600793          	li	a5,70
80000524:	00f71863          	bne	a4,a5,80000534 <__cvt+0xb0>
80000528:	00300793          	li	a5,3
8000052c:	fcf42e23          	sw	a5,-36(s0)
80000530:	0380006f          	j	80000568 <__cvt+0xe4>
80000534:	f3c42783          	lw	a5,-196(s0)
80000538:	0007871b          	sext.w	a4,a5
8000053c:	06500793          	li	a5,101
80000540:	00f70a63          	beq	a4,a5,80000554 <__cvt+0xd0>
80000544:	f3c42783          	lw	a5,-196(s0)
80000548:	0007871b          	sext.w	a4,a5
8000054c:	04500793          	li	a5,69
80000550:	00f71863          	bne	a4,a5,80000560 <__cvt+0xdc>
80000554:	f6442783          	lw	a5,-156(s0)
80000558:	0017879b          	addw	a5,a5,1
8000055c:	f6f42223          	sw	a5,-156(s0)
80000560:	00200793          	li	a5,2
80000564:	fcf42e23          	sw	a5,-36(s0)
80000568:	f9040713          	addi	a4,s0,-112
8000056c:	fac40793          	addi	a5,s0,-84
80000570:	f6442683          	lw	a3,-156(s0)
80000574:	fdc42603          	lw	a2,-36(s0)
80000578:	00070813          	mv	a6,a4
8000057c:	f404270f          	lq	a4,-192(s0)
80000580:	f6843583          	ld	a1,-152(s0)
80000584:	f704250f          	lq	a0,-144(s0)
80000588:	2e1010ef          	jal	80002068 <_dtoa_r>
8000058c:	faa44823          	sq	a0,-80(s0)
80000590:	f3c42783          	lw	a5,-196(s0)
80000594:	0007871b          	sext.w	a4,a5
80000598:	06700793          	li	a5,103
8000059c:	00f70a63          	beq	a4,a5,800005b0 <__cvt+0x12c>
800005a0:	f3c42783          	lw	a5,-196(s0)
800005a4:	0007871b          	sext.w	a4,a5
800005a8:	04700793          	li	a5,71
800005ac:	00f71a63          	bne	a4,a5,800005c0 <__cvt+0x13c>
800005b0:	f6042783          	lw	a5,-160(s0)
800005b4:	0017f793          	andi	a5,a5,1
800005b8:	0007879b          	sext.w	a5,a5
800005bc:	0c078663          	beqz	a5,80000688 <__cvt+0x204>
800005c0:	f6442783          	lw	a5,-156(s0)
800005c4:	fb04270f          	lq	a4,-80(s0)
800005c8:	00f707b3          	add	a5,a4,a5
800005cc:	fcf44023          	sq	a5,-64(s0)
800005d0:	f3c42783          	lw	a5,-196(s0)
800005d4:	0007871b          	sext.w	a4,a5
800005d8:	06600793          	li	a5,102
800005dc:	00f70a63          	beq	a4,a5,800005f0 <__cvt+0x16c>
800005e0:	f3c42783          	lw	a5,-196(s0)
800005e4:	0007871b          	sext.w	a4,a5
800005e8:	04600793          	li	a5,70
800005ec:	04f71e63          	bne	a4,a5,80000648 <__cvt+0x1c4>
800005f0:	fb04278f          	lq	a5,-80(s0)
800005f4:	0007c783          	lbu	a5,0(a5)
800005f8:	00078713          	mv	a4,a5
800005fc:	03000793          	li	a5,48
80000600:	02f71863          	bne	a4,a5,80000630 <__cvt+0x1ac>
80000604:	00000593          	li	a1,0
80000608:	f6843503          	ld	a0,-152(s0)
8000060c:	5690a0ef          	jal	8000b374 <__eqdf2>
80000610:	00050793          	mv	a5,a0
80000614:	00078e63          	beqz	a5,80000630 <__cvt+0x1ac>
80000618:	00100793          	li	a5,1
8000061c:	f6442703          	lw	a4,-156(s0)
80000620:	40e787bb          	subw	a5,a5,a4
80000624:	0007871b          	sext.w	a4,a5
80000628:	f404278f          	lq	a5,-192(s0)
8000062c:	00e7a023          	sw	a4,0(a5)
80000630:	f404278f          	lq	a5,-192(s0)
80000634:	0007a783          	lw	a5,0(a5)
80000638:	00078713          	mv	a4,a5
8000063c:	fc04278f          	lq	a5,-64(s0)
80000640:	00e787b3          	add	a5,a5,a4
80000644:	fcf44023          	sq	a5,-64(s0)
80000648:	00000593          	li	a1,0
8000064c:	f6843503          	ld	a0,-152(s0)
80000650:	5250a0ef          	jal	8000b374 <__eqdf2>
80000654:	00050793          	mv	a5,a0
80000658:	00079663          	bnez	a5,80000664 <__cvt+0x1e0>
8000065c:	fc04278f          	lq	a5,-64(s0)
80000660:	f8f44823          	sq	a5,-112(s0)
80000664:	0180006f          	j	8000067c <__cvt+0x1f8>
80000668:	f904278f          	lq	a5,-112(s0)
8000066c:	00178713          	addi	a4,a5,1
80000670:	f8e44823          	sq	a4,-112(s0)
80000674:	03000713          	li	a4,48
80000678:	00e78023          	sb	a4,0(a5)
8000067c:	f904278f          	lq	a5,-112(s0)
80000680:	fc04270f          	lq	a4,-64(s0)
80000684:	fee7e2e3          	bltu	a5,a4,80000668 <_ebss+0xffdff958>
80000688:	f904270f          	lq	a4,-112(s0)
8000068c:	fb04278f          	lq	a5,-80(s0)
80000690:	40f707b3          	sub	a5,a4,a5
80000694:	0007871b          	sext.w	a4,a5
80000698:	f204278f          	lq	a5,-224(s0)
8000069c:	00e7a023          	sw	a4,0(a5)
800006a0:	fb04278f          	lq	a5,-80(s0)
800006a4:	00078513          	mv	a0,a5
800006a8:	0d01208f          	lq	ra,208(sp)
800006ac:	0c01240f          	lq	s0,192(sp)
800006b0:	0e010113          	addi	sp,sp,224
800006b4:	00008067          	ret

800006b8 <__exponent>:
800006b8:	fa010113          	addi	sp,sp,-96
800006bc:	04814823          	sq	s0,80(sp)
800006c0:	04914023          	sq	s1,64(sp)
800006c4:	03214823          	sq	s2,48(sp)
800006c8:	06010413          	addi	s0,sp,96
800006cc:	faa44823          	sq	a0,-80(s0)
800006d0:	00058793          	mv	a5,a1
800006d4:	00060713          	mv	a4,a2
800006d8:	faf42623          	sw	a5,-84(s0)
800006dc:	00070793          	mv	a5,a4
800006e0:	faf42423          	sw	a5,-88(s0)
800006e4:	fb04290f          	lq	s2,-80(s0)
800006e8:	00090793          	mv	a5,s2
800006ec:	00178913          	addi	s2,a5,1
800006f0:	fa842703          	lw	a4,-88(s0)
800006f4:	0ff77713          	zext.b	a4,a4
800006f8:	00e78023          	sb	a4,0(a5)
800006fc:	fac42783          	lw	a5,-84(s0)
80000700:	0007879b          	sext.w	a5,a5
80000704:	0207d263          	bgez	a5,80000728 <__exponent+0x70>
80000708:	fac42783          	lw	a5,-84(s0)
8000070c:	40f007bb          	negw	a5,a5
80000710:	faf42623          	sw	a5,-84(s0)
80000714:	00090793          	mv	a5,s2
80000718:	00178913          	addi	s2,a5,1
8000071c:	02d00713          	li	a4,45
80000720:	00e78023          	sb	a4,0(a5)
80000724:	0140006f          	j	80000738 <__exponent+0x80>
80000728:	00090793          	mv	a5,s2
8000072c:	00178913          	addi	s2,a5,1
80000730:	02b00713          	li	a4,43
80000734:	00e78023          	sb	a4,0(a5)
80000738:	fc040493          	addi	s1,s0,-64
8000073c:	00748493          	addi	s1,s1,7
80000740:	fac42783          	lw	a5,-84(s0)
80000744:	0007871b          	sext.w	a4,a5
80000748:	00900793          	li	a5,9
8000074c:	08e7da63          	bge	a5,a4,800007e0 <__exponent+0x128>
80000750:	fac42783          	lw	a5,-84(s0)
80000754:	00078713          	mv	a4,a5
80000758:	00a00793          	li	a5,10
8000075c:	02f767bb          	remw	a5,a4,a5
80000760:	0007879b          	sext.w	a5,a5
80000764:	0ff7f793          	zext.b	a5,a5
80000768:	fff48493          	addi	s1,s1,-1
8000076c:	0307879b          	addw	a5,a5,48
80000770:	0ff7f793          	zext.b	a5,a5
80000774:	00f48023          	sb	a5,0(s1)
80000778:	fac42783          	lw	a5,-84(s0)
8000077c:	00078713          	mv	a4,a5
80000780:	00a00793          	li	a5,10
80000784:	02f747bb          	divw	a5,a4,a5
80000788:	faf42623          	sw	a5,-84(s0)
8000078c:	fac42783          	lw	a5,-84(s0)
80000790:	0007871b          	sext.w	a4,a5
80000794:	00900793          	li	a5,9
80000798:	fae7cce3          	blt	a5,a4,80000750 <_ebss+0xffdffa40>
8000079c:	fac42783          	lw	a5,-84(s0)
800007a0:	0ff7f793          	zext.b	a5,a5
800007a4:	fff48493          	addi	s1,s1,-1
800007a8:	0307879b          	addw	a5,a5,48
800007ac:	0ff7f793          	zext.b	a5,a5
800007b0:	00f48023          	sb	a5,0(s1)
800007b4:	01c0006f          	j	800007d0 <__exponent+0x118>
800007b8:	00048713          	mv	a4,s1
800007bc:	00170493          	addi	s1,a4,1
800007c0:	00090793          	mv	a5,s2
800007c4:	00178913          	addi	s2,a5,1
800007c8:	00074703          	lbu	a4,0(a4)
800007cc:	00e78023          	sb	a4,0(a5)
800007d0:	fc040793          	addi	a5,s0,-64
800007d4:	00778793          	addi	a5,a5,7
800007d8:	fef4e0e3          	bltu	s1,a5,800007b8 <_ebss+0xffdffaa8>
800007dc:	0300006f          	j	8000080c <__exponent+0x154>
800007e0:	00090793          	mv	a5,s2
800007e4:	00178913          	addi	s2,a5,1
800007e8:	03000713          	li	a4,48
800007ec:	00e78023          	sb	a4,0(a5)
800007f0:	fac42783          	lw	a5,-84(s0)
800007f4:	0ff7f713          	zext.b	a4,a5
800007f8:	00090793          	mv	a5,s2
800007fc:	00178913          	addi	s2,a5,1
80000800:	0307071b          	addw	a4,a4,48
80000804:	0ff77713          	zext.b	a4,a4
80000808:	00e78023          	sb	a4,0(a5)
8000080c:	fb04278f          	lq	a5,-80(s0)
80000810:	40f907b3          	sub	a5,s2,a5
80000814:	0007879b          	sext.w	a5,a5
80000818:	00078513          	mv	a0,a5
8000081c:	0501240f          	lq	s0,80(sp)
80000820:	0401248f          	lq	s1,64(sp)
80000824:	0301290f          	lq	s2,48(sp)
80000828:	06010113          	addi	sp,sp,96
8000082c:	00008067          	ret

80000830 <_printf_float>:
80000830:	ec010113          	addi	sp,sp,-320
80000834:	12114823          	sq	ra,304(sp)
80000838:	12814023          	sq	s0,288(sp)
8000083c:	10914823          	sq	s1,272(sp)
80000840:	11214023          	sq	s2,256(sp)
80000844:	14010413          	addi	s0,sp,320
80000848:	f2a44023          	sq	a0,-224(s0)
8000084c:	f0b44823          	sq	a1,-240(s0)
80000850:	f0c44023          	sq	a2,-256(s0)
80000854:	eed44823          	sq	a3,-272(s0)
80000858:	eee44023          	sq	a4,-288(s0)
8000085c:	f204250f          	lq	a0,-224(s0)
80000860:	50c030ef          	jal	80003d6c <_localeconv_r>
80000864:	00050793          	mv	a5,a0
80000868:	0007a78f          	lq	a5,0(a5)
8000086c:	f6f44023          	sq	a5,-160(s0)
80000870:	f604250f          	lq	a0,-160(s0)
80000874:	4ad000ef          	jal	80001520 <strlen>
80000878:	f4a44823          	sq	a0,-176(s0)
8000087c:	fa042e23          	sw	zero,-68(s0)
80000880:	f2042a23          	sw	zero,-204(s0)
80000884:	f104278f          	lq	a5,-240(s0)
80000888:	0187c783          	lbu	a5,24(a5)
8000088c:	f8f40fa3          	sb	a5,-97(s0)
80000890:	f104278f          	lq	a5,-240(s0)
80000894:	0007a783          	lw	a5,0(a5)
80000898:	1007f793          	andi	a5,a5,256
8000089c:	0007879b          	sext.w	a5,a5
800008a0:	02078a63          	beqz	a5,800008d4 <_printf_float+0xa4>
800008a4:	ee04278f          	lq	a5,-288(s0)
800008a8:	0007a78f          	lq	a5,0(a5)
800008ac:	01078693          	addi	a3,a5,16
800008b0:	ee04270f          	lq	a4,-288(s0)
800008b4:	00d74023          	sq	a3,0(a4)
800008b8:	0007a70f          	lq	a4,0(a5)
800008bc:	00070513          	mv	a0,a4
800008c0:	1390b0ef          	jal	8000c1f8 <__trunctfdf2>
800008c4:	00050713          	mv	a4,a0
800008c8:	f104278f          	lq	a5,-240(s0)
800008cc:	04e7b423          	sd	a4,72(a5)
800008d0:	0240006f          	j	800008f4 <_printf_float+0xc4>
800008d4:	ee04278f          	lq	a5,-288(s0)
800008d8:	0007a78f          	lq	a5,0(a5)
800008dc:	01078693          	addi	a3,a5,16
800008e0:	ee04270f          	lq	a4,-288(s0)
800008e4:	00d74023          	sq	a3,0(a4)
800008e8:	0007b703          	ld	a4,0(a5)
800008ec:	f104278f          	lq	a5,-240(s0)
800008f0:	04e7b423          	sd	a4,72(a5)
800008f4:	f104278f          	lq	a5,-240(s0)
800008f8:	0487b783          	ld	a5,72(a5)
800008fc:	00078713          	mv	a4,a5
80000900:	fff00793          	li	a5,-1
80000904:	0017d793          	srli	a5,a5,0x1
80000908:	00f777b3          	and	a5,a4,a5
8000090c:	00078913          	mv	s2,a5
80000910:	00100493          	li	s1,1
80000914:	0000d797          	auipc	a5,0xd
80000918:	94478793          	addi	a5,a5,-1724 # 8000d258 <puts+0x104>
8000091c:	0007b583          	ld	a1,0(a5)
80000920:	00090513          	mv	a0,s2
80000924:	6cc0b0ef          	jal	8000bff0 <__unorddf2>
80000928:	00050793          	mv	a5,a0
8000092c:	02079263          	bnez	a5,80000950 <_printf_float+0x120>
80000930:	0000d797          	auipc	a5,0xd
80000934:	92878793          	addi	a5,a5,-1752 # 8000d258 <puts+0x104>
80000938:	0007b583          	ld	a1,0(a5)
8000093c:	00090513          	mv	a0,s2
80000940:	3fd0a0ef          	jal	8000b53c <__ledf2>
80000944:	00050793          	mv	a5,a0
80000948:	00f05463          	blez	a5,80000950 <_printf_float+0x120>
8000094c:	00000493          	li	s1,0
80000950:	0ff4f793          	zext.b	a5,s1
80000954:	0017c793          	xor	a5,a5,1
80000958:	0ff7f793          	zext.b	a5,a5
8000095c:	00078663          	beqz	a5,80000968 <_printf_float+0x138>
80000960:	00100793          	li	a5,1
80000964:	0080006f          	j	8000096c <_printf_float+0x13c>
80000968:	00000793          	li	a5,0
8000096c:	08078063          	beqz	a5,800009ec <_printf_float+0x1bc>
80000970:	f104278f          	lq	a5,-240(s0)
80000974:	0487b783          	ld	a5,72(a5)
80000978:	00000593          	li	a1,0
8000097c:	00078513          	mv	a0,a5
80000980:	3bd0a0ef          	jal	8000b53c <__ledf2>
80000984:	00050793          	mv	a5,a0
80000988:	0007d863          	bgez	a5,80000998 <_printf_float+0x168>
8000098c:	f104278f          	lq	a5,-240(s0)
80000990:	02d00713          	li	a4,45
80000994:	04e781a3          	sb	a4,67(a5)
80000998:	f9f44783          	lbu	a5,-97(s0)
8000099c:	0ff7f713          	zext.b	a4,a5
800009a0:	04700793          	li	a5,71
800009a4:	00e7ea63          	bltu	a5,a4,800009b8 <_printf_float+0x188>
800009a8:	0000d797          	auipc	a5,0xd
800009ac:	86878793          	addi	a5,a5,-1944 # 8000d210 <puts+0xbc>
800009b0:	faf44023          	sq	a5,-96(s0)
800009b4:	0100006f          	j	800009c4 <_printf_float+0x194>
800009b8:	0000d797          	auipc	a5,0xd
800009bc:	86878793          	addi	a5,a5,-1944 # 8000d220 <puts+0xcc>
800009c0:	faf44023          	sq	a5,-96(s0)
800009c4:	f104278f          	lq	a5,-240(s0)
800009c8:	00300713          	li	a4,3
800009cc:	00e7a823          	sw	a4,16(a5)
800009d0:	f104278f          	lq	a5,-240(s0)
800009d4:	0007a783          	lw	a5,0(a5)
800009d8:	ffb7f793          	andi	a5,a5,-5
800009dc:	0007871b          	sext.w	a4,a5
800009e0:	f104278f          	lq	a5,-240(s0)
800009e4:	00e7a023          	sw	a4,0(a5)
800009e8:	3a40006f          	j	80000d8c <_printf_float+0x55c>
800009ec:	f104278f          	lq	a5,-240(s0)
800009f0:	0487b783          	ld	a5,72(a5)
800009f4:	00078593          	mv	a1,a5
800009f8:	00078513          	mv	a0,a5
800009fc:	5f40b0ef          	jal	8000bff0 <__unorddf2>
80000a00:	00050793          	mv	a5,a0
80000a04:	06078e63          	beqz	a5,80000a80 <_printf_float+0x250>
80000a08:	f104278f          	lq	a5,-240(s0)
80000a0c:	0487b783          	ld	a5,72(a5)
80000a10:	03f7d7db          	srlid	a5,a5,0x3f
80000a14:	0017f793          	andi	a5,a5,1
80000a18:	0007879b          	sext.w	a5,a5
80000a1c:	00078863          	beqz	a5,80000a2c <_printf_float+0x1fc>
80000a20:	f104278f          	lq	a5,-240(s0)
80000a24:	02d00713          	li	a4,45
80000a28:	04e781a3          	sb	a4,67(a5)
80000a2c:	f9f44783          	lbu	a5,-97(s0)
80000a30:	0ff7f713          	zext.b	a4,a5
80000a34:	04700793          	li	a5,71
80000a38:	00e7ea63          	bltu	a5,a4,80000a4c <_printf_float+0x21c>
80000a3c:	0000c797          	auipc	a5,0xc
80000a40:	7f478793          	addi	a5,a5,2036 # 8000d230 <puts+0xdc>
80000a44:	faf44023          	sq	a5,-96(s0)
80000a48:	0100006f          	j	80000a58 <_printf_float+0x228>
80000a4c:	0000c797          	auipc	a5,0xc
80000a50:	7f478793          	addi	a5,a5,2036 # 8000d240 <puts+0xec>
80000a54:	faf44023          	sq	a5,-96(s0)
80000a58:	f104278f          	lq	a5,-240(s0)
80000a5c:	00300713          	li	a4,3
80000a60:	00e7a823          	sw	a4,16(a5)
80000a64:	f104278f          	lq	a5,-240(s0)
80000a68:	0007a783          	lw	a5,0(a5)
80000a6c:	ffb7f793          	andi	a5,a5,-5
80000a70:	0007871b          	sext.w	a4,a5
80000a74:	f104278f          	lq	a5,-240(s0)
80000a78:	00e7a023          	sw	a4,0(a5)
80000a7c:	3100006f          	j	80000d8c <_printf_float+0x55c>
80000a80:	f104278f          	lq	a5,-240(s0)
80000a84:	0047a783          	lw	a5,4(a5)
80000a88:	00078713          	mv	a4,a5
80000a8c:	fff00793          	li	a5,-1
80000a90:	00f71a63          	bne	a4,a5,80000aa4 <_printf_float+0x274>
80000a94:	f104278f          	lq	a5,-240(s0)
80000a98:	00600713          	li	a4,6
80000a9c:	00e7a223          	sw	a4,4(a5)
80000aa0:	03c0006f          	j	80000adc <_printf_float+0x2ac>
80000aa4:	f9f44783          	lbu	a5,-97(s0)
80000aa8:	0ff7f713          	zext.b	a4,a5
80000aac:	06700793          	li	a5,103
80000ab0:	00f70a63          	beq	a4,a5,80000ac4 <_printf_float+0x294>
80000ab4:	f9f44783          	lbu	a5,-97(s0)
80000ab8:	0ff7f713          	zext.b	a4,a5
80000abc:	04700793          	li	a5,71
80000ac0:	00f71e63          	bne	a4,a5,80000adc <_printf_float+0x2ac>
80000ac4:	f104278f          	lq	a5,-240(s0)
80000ac8:	0047a783          	lw	a5,4(a5)
80000acc:	00079863          	bnez	a5,80000adc <_printf_float+0x2ac>
80000ad0:	f104278f          	lq	a5,-240(s0)
80000ad4:	00100713          	li	a4,1
80000ad8:	00e7a223          	sw	a4,4(a5)
80000adc:	f104278f          	lq	a5,-240(s0)
80000ae0:	0007a783          	lw	a5,0(a5)
80000ae4:	4007e793          	ori	a5,a5,1024
80000ae8:	0007871b          	sext.w	a4,a5
80000aec:	f104278f          	lq	a5,-240(s0)
80000af0:	00e7a023          	sw	a4,0(a5)
80000af4:	f104278f          	lq	a5,-240(s0)
80000af8:	0487b583          	ld	a1,72(a5)
80000afc:	f104278f          	lq	a5,-240(s0)
80000b00:	0047a603          	lw	a2,4(a5)
80000b04:	f104278f          	lq	a5,-240(s0)
80000b08:	0007a683          	lw	a3,0(a5)
80000b0c:	f9f44783          	lbu	a5,-97(s0)
80000b10:	0007881b          	sext.w	a6,a5
80000b14:	f3440893          	addi	a7,s0,-204
80000b18:	f3840513          	addi	a0,s0,-200
80000b1c:	f3f40713          	addi	a4,s0,-193
80000b20:	fa04278f          	lq	a5,-96(s0)
80000b24:	00f14023          	sq	a5,0(sp)
80000b28:	00050793          	mv	a5,a0
80000b2c:	f204250f          	lq	a0,-224(s0)
80000b30:	955ff0ef          	jal	80000484 <_ebss+0xffdff774>
80000b34:	faa44023          	sq	a0,-96(s0)
80000b38:	f9f44783          	lbu	a5,-97(s0)
80000b3c:	0ff7f713          	zext.b	a4,a5
80000b40:	06700793          	li	a5,103
80000b44:	00f70a63          	beq	a4,a5,80000b58 <_printf_float+0x328>
80000b48:	f9f44783          	lbu	a5,-97(s0)
80000b4c:	0ff7f713          	zext.b	a4,a5
80000b50:	04700793          	li	a5,71
80000b54:	02f71e63          	bne	a4,a5,80000b90 <_printf_float+0x360>
80000b58:	f3842783          	lw	a5,-200(s0)
80000b5c:	00078713          	mv	a4,a5
80000b60:	ffd00793          	li	a5,-3
80000b64:	00f74a63          	blt	a4,a5,80000b78 <_printf_float+0x348>
80000b68:	f104278f          	lq	a5,-240(s0)
80000b6c:	0047a703          	lw	a4,4(a5)
80000b70:	f3842783          	lw	a5,-200(s0)
80000b74:	00f75a63          	bge	a4,a5,80000b88 <_printf_float+0x358>
80000b78:	f9f44783          	lbu	a5,-97(s0)
80000b7c:	ffe7879b          	addw	a5,a5,-2
80000b80:	f8f40fa3          	sb	a5,-97(s0)
80000b84:	00c0006f          	j	80000b90 <_printf_float+0x360>
80000b88:	06700793          	li	a5,103
80000b8c:	f8f40fa3          	sb	a5,-97(s0)
80000b90:	f9f44783          	lbu	a5,-97(s0)
80000b94:	0ff7f713          	zext.b	a4,a5
80000b98:	06500793          	li	a5,101
80000b9c:	08e7ec63          	bltu	a5,a4,80000c34 <_printf_float+0x404>
80000ba0:	f3842783          	lw	a5,-200(s0)
80000ba4:	fff7879b          	addw	a5,a5,-1
80000ba8:	0007879b          	sext.w	a5,a5
80000bac:	f2f42c23          	sw	a5,-200(s0)
80000bb0:	f104278f          	lq	a5,-240(s0)
80000bb4:	05078793          	addi	a5,a5,80
80000bb8:	f3842703          	lw	a4,-200(s0)
80000bbc:	f9f44683          	lbu	a3,-97(s0)
80000bc0:	0006869b          	sext.w	a3,a3
80000bc4:	00068613          	mv	a2,a3
80000bc8:	00070593          	mv	a1,a4
80000bcc:	00078513          	mv	a0,a5
80000bd0:	ae9ff0ef          	jal	800006b8 <_ebss+0xffdff9a8>
80000bd4:	00050793          	mv	a5,a0
80000bd8:	faf42e23          	sw	a5,-68(s0)
80000bdc:	f3442783          	lw	a5,-204(s0)
80000be0:	fbc42703          	lw	a4,-68(s0)
80000be4:	00f707bb          	addw	a5,a4,a5
80000be8:	0007871b          	sext.w	a4,a5
80000bec:	f104278f          	lq	a5,-240(s0)
80000bf0:	00e7a823          	sw	a4,16(a5)
80000bf4:	f3442783          	lw	a5,-204(s0)
80000bf8:	00078713          	mv	a4,a5
80000bfc:	00100793          	li	a5,1
80000c00:	00e7cc63          	blt	a5,a4,80000c18 <_printf_float+0x3e8>
80000c04:	f104278f          	lq	a5,-240(s0)
80000c08:	0007a783          	lw	a5,0(a5)
80000c0c:	0017f793          	andi	a5,a5,1
80000c10:	0007879b          	sext.w	a5,a5
80000c14:	14078e63          	beqz	a5,80000d70 <_printf_float+0x540>
80000c18:	f104278f          	lq	a5,-240(s0)
80000c1c:	0107a783          	lw	a5,16(a5)
80000c20:	0017879b          	addw	a5,a5,1
80000c24:	0007871b          	sext.w	a4,a5
80000c28:	f104278f          	lq	a5,-240(s0)
80000c2c:	00e7a823          	sw	a4,16(a5)
80000c30:	1400006f          	j	80000d70 <_printf_float+0x540>
80000c34:	f9f44783          	lbu	a5,-97(s0)
80000c38:	0ff7f713          	zext.b	a4,a5
80000c3c:	06600793          	li	a5,102
80000c40:	0af71463          	bne	a4,a5,80000ce8 <_printf_float+0x4b8>
80000c44:	f3842783          	lw	a5,-200(s0)
80000c48:	04f05e63          	blez	a5,80000ca4 <_printf_float+0x474>
80000c4c:	f3842703          	lw	a4,-200(s0)
80000c50:	f104278f          	lq	a5,-240(s0)
80000c54:	00e7a823          	sw	a4,16(a5)
80000c58:	f104278f          	lq	a5,-240(s0)
80000c5c:	0047a783          	lw	a5,4(a5)
80000c60:	00079c63          	bnez	a5,80000c78 <_printf_float+0x448>
80000c64:	f104278f          	lq	a5,-240(s0)
80000c68:	0007a783          	lw	a5,0(a5)
80000c6c:	0017f793          	andi	a5,a5,1
80000c70:	0007879b          	sext.w	a5,a5
80000c74:	0e078863          	beqz	a5,80000d64 <_printf_float+0x534>
80000c78:	f104278f          	lq	a5,-240(s0)
80000c7c:	0107a703          	lw	a4,16(a5)
80000c80:	f104278f          	lq	a5,-240(s0)
80000c84:	0047a783          	lw	a5,4(a5)
80000c88:	0017879b          	addw	a5,a5,1
80000c8c:	0007879b          	sext.w	a5,a5
80000c90:	00f707bb          	addw	a5,a4,a5
80000c94:	0007871b          	sext.w	a4,a5
80000c98:	f104278f          	lq	a5,-240(s0)
80000c9c:	00e7a823          	sw	a4,16(a5)
80000ca0:	0c40006f          	j	80000d64 <_printf_float+0x534>
80000ca4:	f104278f          	lq	a5,-240(s0)
80000ca8:	0047a783          	lw	a5,4(a5)
80000cac:	00079c63          	bnez	a5,80000cc4 <_printf_float+0x494>
80000cb0:	f104278f          	lq	a5,-240(s0)
80000cb4:	0007a783          	lw	a5,0(a5)
80000cb8:	0017f793          	andi	a5,a5,1
80000cbc:	0007879b          	sext.w	a5,a5
80000cc0:	00078c63          	beqz	a5,80000cd8 <_printf_float+0x4a8>
80000cc4:	f104278f          	lq	a5,-240(s0)
80000cc8:	0047a783          	lw	a5,4(a5)
80000ccc:	0027879b          	addw	a5,a5,2
80000cd0:	0007879b          	sext.w	a5,a5
80000cd4:	0080006f          	j	80000cdc <_printf_float+0x4ac>
80000cd8:	00100793          	li	a5,1
80000cdc:	f104270f          	lq	a4,-240(s0)
80000ce0:	00f72823          	sw	a5,16(a4)
80000ce4:	0800006f          	j	80000d64 <_printf_float+0x534>
80000ce8:	f3842703          	lw	a4,-200(s0)
80000cec:	f3442783          	lw	a5,-204(s0)
80000cf0:	04f74063          	blt	a4,a5,80000d30 <_printf_float+0x500>
80000cf4:	f3842703          	lw	a4,-200(s0)
80000cf8:	f104278f          	lq	a5,-240(s0)
80000cfc:	00e7a823          	sw	a4,16(a5)
80000d00:	f104278f          	lq	a5,-240(s0)
80000d04:	0007a783          	lw	a5,0(a5)
80000d08:	0017f793          	andi	a5,a5,1
80000d0c:	0007879b          	sext.w	a5,a5
80000d10:	04078a63          	beqz	a5,80000d64 <_printf_float+0x534>
80000d14:	f104278f          	lq	a5,-240(s0)
80000d18:	0107a783          	lw	a5,16(a5)
80000d1c:	0017879b          	addw	a5,a5,1
80000d20:	0007871b          	sext.w	a4,a5
80000d24:	f104278f          	lq	a5,-240(s0)
80000d28:	00e7a823          	sw	a4,16(a5)
80000d2c:	0380006f          	j	80000d64 <_printf_float+0x534>
80000d30:	f3842783          	lw	a5,-200(s0)
80000d34:	00f04c63          	bgtz	a5,80000d4c <_printf_float+0x51c>
80000d38:	f3842783          	lw	a5,-200(s0)
80000d3c:	00200713          	li	a4,2
80000d40:	40f707bb          	subw	a5,a4,a5
80000d44:	0007879b          	sext.w	a5,a5
80000d48:	0080006f          	j	80000d50 <_printf_float+0x520>
80000d4c:	00100793          	li	a5,1
80000d50:	f3442703          	lw	a4,-204(s0)
80000d54:	00e787bb          	addw	a5,a5,a4
80000d58:	0007871b          	sext.w	a4,a5
80000d5c:	f104278f          	lq	a5,-240(s0)
80000d60:	00e7a823          	sw	a4,16(a5)
80000d64:	f3842703          	lw	a4,-200(s0)
80000d68:	f104278f          	lq	a5,-240(s0)
80000d6c:	04e7ac23          	sw	a4,88(a5)
80000d70:	f3f44783          	lbu	a5,-193(s0)
80000d74:	00078a63          	beqz	a5,80000d88 <_printf_float+0x558>
80000d78:	f104278f          	lq	a5,-240(s0)
80000d7c:	02d00713          	li	a4,45
80000d80:	04e781a3          	sb	a4,67(a5)
80000d84:	0080006f          	j	80000d8c <_printf_float+0x55c>
80000d88:	00000013          	nop
80000d8c:	f3040793          	addi	a5,s0,-208
80000d90:	ef04270f          	lq	a4,-272(s0)
80000d94:	f004268f          	lq	a3,-256(s0)
80000d98:	00078613          	mv	a2,a5
80000d9c:	f104258f          	lq	a1,-240(s0)
80000da0:	f204250f          	lq	a0,-224(s0)
80000da4:	0c0030ef          	jal	80003e64 <_printf_common>
80000da8:	00050793          	mv	a5,a0
80000dac:	00078713          	mv	a4,a5
80000db0:	fff00793          	li	a5,-1
80000db4:	6ef70a63          	beq	a4,a5,800014a8 <_printf_float+0xc78>
80000db8:	f104278f          	lq	a5,-240(s0)
80000dbc:	0007a783          	lw	a5,0(a5)
80000dc0:	4007f793          	andi	a5,a5,1024
80000dc4:	0007879b          	sext.w	a5,a5
80000dc8:	02079e63          	bnez	a5,80000e04 <_printf_float+0x5d4>
80000dcc:	f104278f          	lq	a5,-240(s0)
80000dd0:	0107a783          	lw	a5,16(a5)
80000dd4:	00078713          	mv	a4,a5
80000dd8:	ef04278f          	lq	a5,-272(s0)
80000ddc:	00070693          	mv	a3,a4
80000de0:	fa04260f          	lq	a2,-96(s0)
80000de4:	f004258f          	lq	a1,-256(s0)
80000de8:	f204250f          	lq	a0,-224(s0)
80000dec:	000780e7          	jalr	a5
80000df0:	00050793          	mv	a5,a0
80000df4:	00078713          	mv	a4,a5
80000df8:	fff00793          	li	a5,-1
80000dfc:	60f71463          	bne	a4,a5,80001404 <_printf_float+0xbd4>
80000e00:	6ac0006f          	j	800014ac <_printf_float+0xc7c>
80000e04:	f9f44783          	lbu	a5,-97(s0)
80000e08:	0ff7f713          	zext.b	a4,a5
80000e0c:	06500793          	li	a5,101
80000e10:	44e7fe63          	bgeu	a5,a4,8000126c <_printf_float+0xa3c>
80000e14:	f104278f          	lq	a5,-240(s0)
80000e18:	0487b783          	ld	a5,72(a5)
80000e1c:	00000593          	li	a1,0
80000e20:	00078513          	mv	a0,a5
80000e24:	5500a0ef          	jal	8000b374 <__eqdf2>
80000e28:	00050793          	mv	a5,a0
80000e2c:	0c079c63          	bnez	a5,80000f04 <_printf_float+0x6d4>
80000e30:	ef04278f          	lq	a5,-272(s0)
80000e34:	00100693          	li	a3,1
80000e38:	0000c617          	auipc	a2,0xc
80000e3c:	41860613          	addi	a2,a2,1048 # 8000d250 <puts+0xfc>
80000e40:	f004258f          	lq	a1,-256(s0)
80000e44:	f204250f          	lq	a0,-224(s0)
80000e48:	000780e7          	jalr	a5
80000e4c:	00050793          	mv	a5,a0
80000e50:	00078713          	mv	a4,a5
80000e54:	fff00793          	li	a5,-1
80000e58:	64f70a63          	beq	a4,a5,800014ac <_printf_float+0xc7c>
80000e5c:	f3842703          	lw	a4,-200(s0)
80000e60:	f3442783          	lw	a5,-204(s0)
80000e64:	00f74c63          	blt	a4,a5,80000e7c <_printf_float+0x64c>
80000e68:	f104278f          	lq	a5,-240(s0)
80000e6c:	0007a783          	lw	a5,0(a5)
80000e70:	0017f793          	andi	a5,a5,1
80000e74:	0007879b          	sext.w	a5,a5
80000e78:	58078663          	beqz	a5,80001404 <_printf_float+0xbd4>
80000e7c:	ef04278f          	lq	a5,-272(s0)
80000e80:	f504268f          	lq	a3,-176(s0)
80000e84:	f604260f          	lq	a2,-160(s0)
80000e88:	f004258f          	lq	a1,-256(s0)
80000e8c:	f204250f          	lq	a0,-224(s0)
80000e90:	000780e7          	jalr	a5
80000e94:	00050793          	mv	a5,a0
80000e98:	00078713          	mv	a4,a5
80000e9c:	fff00793          	li	a5,-1
80000ea0:	60f70663          	beq	a4,a5,800014ac <_printf_float+0xc7c>
80000ea4:	f8042c23          	sw	zero,-104(s0)
80000ea8:	0400006f          	j	80000ee8 <_printf_float+0x6b8>
80000eac:	f104278f          	lq	a5,-240(s0)
80000eb0:	01a78713          	addi	a4,a5,26
80000eb4:	ef04278f          	lq	a5,-272(s0)
80000eb8:	00100693          	li	a3,1
80000ebc:	00070613          	mv	a2,a4
80000ec0:	f004258f          	lq	a1,-256(s0)
80000ec4:	f204250f          	lq	a0,-224(s0)
80000ec8:	000780e7          	jalr	a5
80000ecc:	00050793          	mv	a5,a0
80000ed0:	00078713          	mv	a4,a5
80000ed4:	fff00793          	li	a5,-1
80000ed8:	5cf70a63          	beq	a4,a5,800014ac <_printf_float+0xc7c>
80000edc:	f9842783          	lw	a5,-104(s0)
80000ee0:	0017879b          	addw	a5,a5,1
80000ee4:	f8f42c23          	sw	a5,-104(s0)
80000ee8:	f3442783          	lw	a5,-204(s0)
80000eec:	fff7879b          	addw	a5,a5,-1
80000ef0:	0007871b          	sext.w	a4,a5
80000ef4:	f9842783          	lw	a5,-104(s0)
80000ef8:	0007879b          	sext.w	a5,a5
80000efc:	fae7c8e3          	blt	a5,a4,80000eac <_ebss+0xffe0019c>
80000f00:	5040006f          	j	80001404 <_printf_float+0xbd4>
80000f04:	f3842783          	lw	a5,-200(s0)
80000f08:	10f04663          	bgtz	a5,80001014 <_printf_float+0x7e4>
80000f0c:	ef04278f          	lq	a5,-272(s0)
80000f10:	00100693          	li	a3,1
80000f14:	0000c617          	auipc	a2,0xc
80000f18:	33c60613          	addi	a2,a2,828 # 8000d250 <puts+0xfc>
80000f1c:	f004258f          	lq	a1,-256(s0)
80000f20:	f204250f          	lq	a0,-224(s0)
80000f24:	000780e7          	jalr	a5
80000f28:	00050793          	mv	a5,a0
80000f2c:	00078713          	mv	a4,a5
80000f30:	fff00793          	li	a5,-1
80000f34:	56f70c63          	beq	a4,a5,800014ac <_printf_float+0xc7c>
80000f38:	f3842783          	lw	a5,-200(s0)
80000f3c:	02079063          	bnez	a5,80000f5c <_printf_float+0x72c>
80000f40:	f3442783          	lw	a5,-204(s0)
80000f44:	00079c63          	bnez	a5,80000f5c <_printf_float+0x72c>
80000f48:	f104278f          	lq	a5,-240(s0)
80000f4c:	0007a783          	lw	a5,0(a5)
80000f50:	0017f793          	andi	a5,a5,1
80000f54:	0007879b          	sext.w	a5,a5
80000f58:	4a078663          	beqz	a5,80001404 <_printf_float+0xbd4>
80000f5c:	ef04278f          	lq	a5,-272(s0)
80000f60:	f504268f          	lq	a3,-176(s0)
80000f64:	f604260f          	lq	a2,-160(s0)
80000f68:	f004258f          	lq	a1,-256(s0)
80000f6c:	f204250f          	lq	a0,-224(s0)
80000f70:	000780e7          	jalr	a5
80000f74:	00050793          	mv	a5,a0
80000f78:	00078713          	mv	a4,a5
80000f7c:	fff00793          	li	a5,-1
80000f80:	52f70663          	beq	a4,a5,800014ac <_printf_float+0xc7c>
80000f84:	f8042a23          	sw	zero,-108(s0)
80000f88:	0400006f          	j	80000fc8 <_printf_float+0x798>
80000f8c:	f104278f          	lq	a5,-240(s0)
80000f90:	01a78713          	addi	a4,a5,26
80000f94:	ef04278f          	lq	a5,-272(s0)
80000f98:	00100693          	li	a3,1
80000f9c:	00070613          	mv	a2,a4
80000fa0:	f004258f          	lq	a1,-256(s0)
80000fa4:	f204250f          	lq	a0,-224(s0)
80000fa8:	000780e7          	jalr	a5
80000fac:	00050793          	mv	a5,a0
80000fb0:	00078713          	mv	a4,a5
80000fb4:	fff00793          	li	a5,-1
80000fb8:	4ef70a63          	beq	a4,a5,800014ac <_printf_float+0xc7c>
80000fbc:	f9442783          	lw	a5,-108(s0)
80000fc0:	0017879b          	addw	a5,a5,1
80000fc4:	f8f42a23          	sw	a5,-108(s0)
80000fc8:	f3842783          	lw	a5,-200(s0)
80000fcc:	40f007bb          	negw	a5,a5
80000fd0:	0007871b          	sext.w	a4,a5
80000fd4:	f9442783          	lw	a5,-108(s0)
80000fd8:	0007879b          	sext.w	a5,a5
80000fdc:	fae7c8e3          	blt	a5,a4,80000f8c <_ebss+0xffe0027c>
80000fe0:	f3442783          	lw	a5,-204(s0)
80000fe4:	00078713          	mv	a4,a5
80000fe8:	ef04278f          	lq	a5,-272(s0)
80000fec:	00070693          	mv	a3,a4
80000ff0:	fa04260f          	lq	a2,-96(s0)
80000ff4:	f004258f          	lq	a1,-256(s0)
80000ff8:	f204250f          	lq	a0,-224(s0)
80000ffc:	000780e7          	jalr	a5
80001000:	00050793          	mv	a5,a0
80001004:	00078713          	mv	a4,a5
80001008:	fff00793          	li	a5,-1
8000100c:	3ef71c63          	bne	a4,a5,80001404 <_printf_float+0xbd4>
80001010:	49c0006f          	j	800014ac <_printf_float+0xc7c>
80001014:	fa04278f          	lq	a5,-96(s0)
80001018:	f4f44023          	sq	a5,-192(s0)
8000101c:	f3442783          	lw	a5,-204(s0)
80001020:	00078713          	mv	a4,a5
80001024:	f404278f          	lq	a5,-192(s0)
80001028:	00e78733          	add	a4,a5,a4
8000102c:	fa04278f          	lq	a5,-96(s0)
80001030:	40f707b3          	sub	a5,a4,a5
80001034:	f8f42823          	sw	a5,-112(s0)
80001038:	f104278f          	lq	a5,-240(s0)
8000103c:	0587a703          	lw	a4,88(a5)
80001040:	f9042783          	lw	a5,-112(s0)
80001044:	0007879b          	sext.w	a5,a5
80001048:	00f75863          	bge	a4,a5,80001058 <_printf_float+0x828>
8000104c:	f104278f          	lq	a5,-240(s0)
80001050:	0587a783          	lw	a5,88(a5)
80001054:	f8f42823          	sw	a5,-112(s0)
80001058:	f9042783          	lw	a5,-112(s0)
8000105c:	0007879b          	sext.w	a5,a5
80001060:	02f05863          	blez	a5,80001090 <_printf_float+0x860>
80001064:	f9042703          	lw	a4,-112(s0)
80001068:	ef04278f          	lq	a5,-272(s0)
8000106c:	00070693          	mv	a3,a4
80001070:	fa04260f          	lq	a2,-96(s0)
80001074:	f004258f          	lq	a1,-256(s0)
80001078:	f204250f          	lq	a0,-224(s0)
8000107c:	000780e7          	jalr	a5
80001080:	00050793          	mv	a5,a0
80001084:	00078713          	mv	a4,a5
80001088:	fff00793          	li	a5,-1
8000108c:	42f70063          	beq	a4,a5,800014ac <_printf_float+0xc7c>
80001090:	f8042623          	sw	zero,-116(s0)
80001094:	0400006f          	j	800010d4 <_printf_float+0x8a4>
80001098:	f104278f          	lq	a5,-240(s0)
8000109c:	01a78713          	addi	a4,a5,26
800010a0:	ef04278f          	lq	a5,-272(s0)
800010a4:	00100693          	li	a3,1
800010a8:	00070613          	mv	a2,a4
800010ac:	f004258f          	lq	a1,-256(s0)
800010b0:	f204250f          	lq	a0,-224(s0)
800010b4:	000780e7          	jalr	a5
800010b8:	00050793          	mv	a5,a0
800010bc:	00078713          	mv	a4,a5
800010c0:	fff00793          	li	a5,-1
800010c4:	3ef70463          	beq	a4,a5,800014ac <_printf_float+0xc7c>
800010c8:	f8c42783          	lw	a5,-116(s0)
800010cc:	0017879b          	addw	a5,a5,1
800010d0:	f8f42623          	sw	a5,-116(s0)
800010d4:	f104278f          	lq	a5,-240(s0)
800010d8:	0587a703          	lw	a4,88(a5)
800010dc:	f9042783          	lw	a5,-112(s0)
800010e0:	00078693          	mv	a3,a5
800010e4:	0006879b          	sext.w	a5,a3
800010e8:	0007d463          	bgez	a5,800010f0 <_printf_float+0x8c0>
800010ec:	00000693          	li	a3,0
800010f0:	0006879b          	sext.w	a5,a3
800010f4:	40f707bb          	subw	a5,a4,a5
800010f8:	0007871b          	sext.w	a4,a5
800010fc:	f8c42783          	lw	a5,-116(s0)
80001100:	0007879b          	sext.w	a5,a5
80001104:	f8e7cae3          	blt	a5,a4,80001098 <_ebss+0xffe00388>
80001108:	f104278f          	lq	a5,-240(s0)
8000110c:	0587a783          	lw	a5,88(a5)
80001110:	00078713          	mv	a4,a5
80001114:	fa04278f          	lq	a5,-96(s0)
80001118:	00e787b3          	add	a5,a5,a4
8000111c:	faf44023          	sq	a5,-96(s0)
80001120:	f3842703          	lw	a4,-200(s0)
80001124:	f3442783          	lw	a5,-204(s0)
80001128:	00f74c63          	blt	a4,a5,80001140 <_printf_float+0x910>
8000112c:	f104278f          	lq	a5,-240(s0)
80001130:	0007a783          	lw	a5,0(a5)
80001134:	0017f793          	andi	a5,a5,1
80001138:	0007879b          	sext.w	a5,a5
8000113c:	02078663          	beqz	a5,80001168 <_printf_float+0x938>
80001140:	ef04278f          	lq	a5,-272(s0)
80001144:	f504268f          	lq	a3,-176(s0)
80001148:	f604260f          	lq	a2,-160(s0)
8000114c:	f004258f          	lq	a1,-256(s0)
80001150:	f204250f          	lq	a0,-224(s0)
80001154:	000780e7          	jalr	a5
80001158:	00050793          	mv	a5,a0
8000115c:	00078713          	mv	a4,a5
80001160:	fff00793          	li	a5,-1
80001164:	34f70463          	beq	a4,a5,800014ac <_printf_float+0xc7c>
80001168:	f3442783          	lw	a5,-204(s0)
8000116c:	00078713          	mv	a4,a5
80001170:	f404278f          	lq	a5,-192(s0)
80001174:	00e78733          	add	a4,a5,a4
80001178:	fa04278f          	lq	a5,-96(s0)
8000117c:	40f707b3          	sub	a5,a4,a5
80001180:	f8f42423          	sw	a5,-120(s0)
80001184:	f3442703          	lw	a4,-204(s0)
80001188:	f3842783          	lw	a5,-200(s0)
8000118c:	40f707bb          	subw	a5,a4,a5
80001190:	0007871b          	sext.w	a4,a5
80001194:	f8842783          	lw	a5,-120(s0)
80001198:	0007879b          	sext.w	a5,a5
8000119c:	00f75a63          	bge	a4,a5,800011b0 <_printf_float+0x980>
800011a0:	f3442703          	lw	a4,-204(s0)
800011a4:	f3842783          	lw	a5,-200(s0)
800011a8:	40f707bb          	subw	a5,a4,a5
800011ac:	f8f42423          	sw	a5,-120(s0)
800011b0:	f8842783          	lw	a5,-120(s0)
800011b4:	0007879b          	sext.w	a5,a5
800011b8:	02f05863          	blez	a5,800011e8 <_printf_float+0x9b8>
800011bc:	f8842703          	lw	a4,-120(s0)
800011c0:	ef04278f          	lq	a5,-272(s0)
800011c4:	00070693          	mv	a3,a4
800011c8:	fa04260f          	lq	a2,-96(s0)
800011cc:	f004258f          	lq	a1,-256(s0)
800011d0:	f204250f          	lq	a0,-224(s0)
800011d4:	000780e7          	jalr	a5
800011d8:	00050793          	mv	a5,a0
800011dc:	00078713          	mv	a4,a5
800011e0:	fff00793          	li	a5,-1
800011e4:	2cf70463          	beq	a4,a5,800014ac <_printf_float+0xc7c>
800011e8:	f8042223          	sw	zero,-124(s0)
800011ec:	0400006f          	j	8000122c <_printf_float+0x9fc>
800011f0:	f104278f          	lq	a5,-240(s0)
800011f4:	01a78713          	addi	a4,a5,26
800011f8:	ef04278f          	lq	a5,-272(s0)
800011fc:	00100693          	li	a3,1
80001200:	00070613          	mv	a2,a4
80001204:	f004258f          	lq	a1,-256(s0)
80001208:	f204250f          	lq	a0,-224(s0)
8000120c:	000780e7          	jalr	a5
80001210:	00050793          	mv	a5,a0
80001214:	00078713          	mv	a4,a5
80001218:	fff00793          	li	a5,-1
8000121c:	28f70863          	beq	a4,a5,800014ac <_printf_float+0xc7c>
80001220:	f8442783          	lw	a5,-124(s0)
80001224:	0017879b          	addw	a5,a5,1
80001228:	f8f42223          	sw	a5,-124(s0)
8000122c:	f3442703          	lw	a4,-204(s0)
80001230:	f3842783          	lw	a5,-200(s0)
80001234:	40f707bb          	subw	a5,a4,a5
80001238:	0007871b          	sext.w	a4,a5
8000123c:	f8842783          	lw	a5,-120(s0)
80001240:	00078693          	mv	a3,a5
80001244:	0006879b          	sext.w	a5,a3
80001248:	0007d463          	bgez	a5,80001250 <_printf_float+0xa20>
8000124c:	00000693          	li	a3,0
80001250:	0006879b          	sext.w	a5,a3
80001254:	40f707bb          	subw	a5,a4,a5
80001258:	0007871b          	sext.w	a4,a5
8000125c:	f8442783          	lw	a5,-124(s0)
80001260:	0007879b          	sext.w	a5,a5
80001264:	f8e7c6e3          	blt	a5,a4,800011f0 <_ebss+0xffe004e0>
80001268:	19c0006f          	j	80001404 <_printf_float+0xbd4>
8000126c:	f3442783          	lw	a5,-204(s0)
80001270:	00078713          	mv	a4,a5
80001274:	00100793          	li	a5,1
80001278:	00e7cc63          	blt	a5,a4,80001290 <_printf_float+0xa60>
8000127c:	f104278f          	lq	a5,-240(s0)
80001280:	0007a783          	lw	a5,0(a5)
80001284:	0017f793          	andi	a5,a5,1
80001288:	0007879b          	sext.w	a5,a5
8000128c:	10078c63          	beqz	a5,800013a4 <_printf_float+0xb74>
80001290:	ef04278f          	lq	a5,-272(s0)
80001294:	00100693          	li	a3,1
80001298:	fa04260f          	lq	a2,-96(s0)
8000129c:	f004258f          	lq	a1,-256(s0)
800012a0:	f204250f          	lq	a0,-224(s0)
800012a4:	000780e7          	jalr	a5
800012a8:	00050793          	mv	a5,a0
800012ac:	00078713          	mv	a4,a5
800012b0:	fff00793          	li	a5,-1
800012b4:	1ef70c63          	beq	a4,a5,800014ac <_printf_float+0xc7c>
800012b8:	fa04278f          	lq	a5,-96(s0)
800012bc:	00178793          	addi	a5,a5,1
800012c0:	faf44023          	sq	a5,-96(s0)
800012c4:	ef04278f          	lq	a5,-272(s0)
800012c8:	f504268f          	lq	a3,-176(s0)
800012cc:	f604260f          	lq	a2,-160(s0)
800012d0:	f004258f          	lq	a1,-256(s0)
800012d4:	f204250f          	lq	a0,-224(s0)
800012d8:	000780e7          	jalr	a5
800012dc:	00050793          	mv	a5,a0
800012e0:	00078713          	mv	a4,a5
800012e4:	fff00793          	li	a5,-1
800012e8:	1cf70263          	beq	a4,a5,800014ac <_printf_float+0xc7c>
800012ec:	f104278f          	lq	a5,-240(s0)
800012f0:	0487b783          	ld	a5,72(a5)
800012f4:	00000593          	li	a1,0
800012f8:	00078513          	mv	a0,a5
800012fc:	0780a0ef          	jal	8000b374 <__eqdf2>
80001300:	00050793          	mv	a5,a0
80001304:	04078063          	beqz	a5,80001344 <_printf_float+0xb14>
80001308:	f3442783          	lw	a5,-204(s0)
8000130c:	fff7879b          	addw	a5,a5,-1
80001310:	0007879b          	sext.w	a5,a5
80001314:	00078713          	mv	a4,a5
80001318:	ef04278f          	lq	a5,-272(s0)
8000131c:	00070693          	mv	a3,a4
80001320:	fa04260f          	lq	a2,-96(s0)
80001324:	f004258f          	lq	a1,-256(s0)
80001328:	f204250f          	lq	a0,-224(s0)
8000132c:	000780e7          	jalr	a5
80001330:	00050793          	mv	a5,a0
80001334:	00078713          	mv	a4,a5
80001338:	fff00793          	li	a5,-1
8000133c:	08f71a63          	bne	a4,a5,800013d0 <_printf_float+0xba0>
80001340:	16c0006f          	j	800014ac <_printf_float+0xc7c>
80001344:	f8042023          	sw	zero,-128(s0)
80001348:	0400006f          	j	80001388 <_printf_float+0xb58>
8000134c:	f104278f          	lq	a5,-240(s0)
80001350:	01a78713          	addi	a4,a5,26
80001354:	ef04278f          	lq	a5,-272(s0)
80001358:	00100693          	li	a3,1
8000135c:	00070613          	mv	a2,a4
80001360:	f004258f          	lq	a1,-256(s0)
80001364:	f204250f          	lq	a0,-224(s0)
80001368:	000780e7          	jalr	a5
8000136c:	00050793          	mv	a5,a0
80001370:	00078713          	mv	a4,a5
80001374:	fff00793          	li	a5,-1
80001378:	12f70a63          	beq	a4,a5,800014ac <_printf_float+0xc7c>
8000137c:	f8042783          	lw	a5,-128(s0)
80001380:	0017879b          	addw	a5,a5,1
80001384:	f8f42023          	sw	a5,-128(s0)
80001388:	f3442783          	lw	a5,-204(s0)
8000138c:	fff7879b          	addw	a5,a5,-1
80001390:	0007871b          	sext.w	a4,a5
80001394:	f8042783          	lw	a5,-128(s0)
80001398:	0007879b          	sext.w	a5,a5
8000139c:	fae7c8e3          	blt	a5,a4,8000134c <_ebss+0xffe0063c>
800013a0:	0300006f          	j	800013d0 <_printf_float+0xba0>
800013a4:	ef04278f          	lq	a5,-272(s0)
800013a8:	00100693          	li	a3,1
800013ac:	fa04260f          	lq	a2,-96(s0)
800013b0:	f004258f          	lq	a1,-256(s0)
800013b4:	f204250f          	lq	a0,-224(s0)
800013b8:	000780e7          	jalr	a5
800013bc:	00050793          	mv	a5,a0
800013c0:	00078713          	mv	a4,a5
800013c4:	fff00793          	li	a5,-1
800013c8:	0ef70263          	beq	a4,a5,800014ac <_printf_float+0xc7c>
800013cc:	0080006f          	j	800013d4 <_printf_float+0xba4>
800013d0:	00000013          	nop
800013d4:	f104278f          	lq	a5,-240(s0)
800013d8:	05078713          	addi	a4,a5,80
800013dc:	fbc42683          	lw	a3,-68(s0)
800013e0:	ef04278f          	lq	a5,-272(s0)
800013e4:	00070613          	mv	a2,a4
800013e8:	f004258f          	lq	a1,-256(s0)
800013ec:	f204250f          	lq	a0,-224(s0)
800013f0:	000780e7          	jalr	a5
800013f4:	00050793          	mv	a5,a0
800013f8:	00078713          	mv	a4,a5
800013fc:	fff00793          	li	a5,-1
80001400:	0af70663          	beq	a4,a5,800014ac <_printf_float+0xc7c>
80001404:	f104278f          	lq	a5,-240(s0)
80001408:	0007a783          	lw	a5,0(a5)
8000140c:	0027f793          	andi	a5,a5,2
80001410:	0007879b          	sext.w	a5,a5
80001414:	06078463          	beqz	a5,8000147c <_printf_float+0xc4c>
80001418:	f6042e23          	sw	zero,-132(s0)
8000141c:	0400006f          	j	8000145c <_printf_float+0xc2c>
80001420:	f104278f          	lq	a5,-240(s0)
80001424:	01978713          	addi	a4,a5,25
80001428:	ef04278f          	lq	a5,-272(s0)
8000142c:	00100693          	li	a3,1
80001430:	00070613          	mv	a2,a4
80001434:	f004258f          	lq	a1,-256(s0)
80001438:	f204250f          	lq	a0,-224(s0)
8000143c:	000780e7          	jalr	a5
80001440:	00050793          	mv	a5,a0
80001444:	00078713          	mv	a4,a5
80001448:	fff00793          	li	a5,-1
8000144c:	06f70063          	beq	a4,a5,800014ac <_printf_float+0xc7c>
80001450:	f7c42783          	lw	a5,-132(s0)
80001454:	0017879b          	addw	a5,a5,1
80001458:	f6f42e23          	sw	a5,-132(s0)
8000145c:	f104278f          	lq	a5,-240(s0)
80001460:	00c7a703          	lw	a4,12(a5)
80001464:	f3042783          	lw	a5,-208(s0)
80001468:	40f707bb          	subw	a5,a4,a5
8000146c:	0007871b          	sext.w	a4,a5
80001470:	f7c42783          	lw	a5,-132(s0)
80001474:	0007879b          	sext.w	a5,a5
80001478:	fae7c4e3          	blt	a5,a4,80001420 <_ebss+0xffe00710>
8000147c:	f104278f          	lq	a5,-240(s0)
80001480:	00c7a783          	lw	a5,12(a5)
80001484:	f3042703          	lw	a4,-208(s0)
80001488:	00070613          	mv	a2,a4
8000148c:	00078693          	mv	a3,a5
80001490:	0006871b          	sext.w	a4,a3
80001494:	0006079b          	sext.w	a5,a2
80001498:	00f75463          	bge	a4,a5,800014a0 <_printf_float+0xc70>
8000149c:	00060693          	mv	a3,a2
800014a0:	0006879b          	sext.w	a5,a3
800014a4:	00c0006f          	j	800014b0 <_printf_float+0xc80>
800014a8:	00000013          	nop
800014ac:	fff00793          	li	a5,-1
800014b0:	00078513          	mv	a0,a5
800014b4:	1301208f          	lq	ra,304(sp)
800014b8:	1201240f          	lq	s0,288(sp)
800014bc:	1101248f          	lq	s1,272(sp)
800014c0:	1001290f          	lq	s2,256(sp)
800014c4:	14010113          	addi	sp,sp,320
800014c8:	00008067          	ret

800014cc <__libc_detect_null>:
800014cc:	fd010113          	addi	sp,sp,-48
800014d0:	02814023          	sq	s0,32(sp)
800014d4:	03010413          	addi	s0,sp,48
800014d8:	fca44823          	sq	a0,-48(s0)
800014dc:	7f7f87b7          	lui	a5,0x7f7f8
800014e0:	f7f78793          	addi	a5,a5,-129 # 7f7f7f7f <UART_BASE+0x6f7f7f7f>
800014e4:	fef44023          	sq	a5,-32(s0)
800014e8:	fd04270f          	lq	a4,-48(s0)
800014ec:	fe04278f          	lq	a5,-32(s0)
800014f0:	00f77733          	and	a4,a4,a5
800014f4:	fe04278f          	lq	a5,-32(s0)
800014f8:	00f70733          	add	a4,a4,a5
800014fc:	fd04278f          	lq	a5,-48(s0)
80001500:	00f76733          	or	a4,a4,a5
80001504:	fe04278f          	lq	a5,-32(s0)
80001508:	00f767b3          	or	a5,a4,a5
8000150c:	fff7c793          	not	a5,a5
80001510:	00078513          	mv	a0,a5
80001514:	0201240f          	lq	s0,32(sp)
80001518:	03010113          	addi	sp,sp,48
8000151c:	00008067          	ret

80001520 <strlen>:
80001520:	f6010113          	addi	sp,sp,-160
80001524:	08114823          	sq	ra,144(sp)
80001528:	08814023          	sq	s0,128(sp)
8000152c:	0a010413          	addi	s0,sp,160
80001530:	f6a44023          	sq	a0,-160(s0)
80001534:	f604278f          	lq	a5,-160(s0)
80001538:	fcf44023          	sq	a5,-64(s0)
8000153c:	f604278f          	lq	a5,-160(s0)
80001540:	000787db          	addid	a5,a5,0
80001544:	00f7f793          	andi	a5,a5,15
80001548:	000787db          	addid	a5,a5,0
8000154c:	04078463          	beqz	a5,80001594 <strlen+0x74>
80001550:	f604278f          	lq	a5,-160(s0)
80001554:	0007c783          	lbu	a5,0(a5)
80001558:	faf40fa3          	sb	a5,-65(s0)
8000155c:	f604278f          	lq	a5,-160(s0)
80001560:	00178793          	addi	a5,a5,1
80001564:	f6f44023          	sq	a5,-160(s0)
80001568:	fbf44783          	lbu	a5,-65(s0)
8000156c:	0ff7f793          	zext.b	a5,a5
80001570:	00079c63          	bnez	a5,80001588 <strlen+0x68>
80001574:	f604270f          	lq	a4,-160(s0)
80001578:	fc04278f          	lq	a5,-64(s0)
8000157c:	40f707b3          	sub	a5,a4,a5
80001580:	fff78793          	addi	a5,a5,-1
80001584:	1700006f          	j	800016f4 <strlen+0x1d4>
80001588:	f604278f          	lq	a5,-160(s0)
8000158c:	00f7f793          	andi	a5,a5,15
80001590:	fc0790e3          	bnez	a5,80001550 <_ebss+0xffe00840>
80001594:	f604278f          	lq	a5,-160(s0)
80001598:	fcf44823          	sq	a5,-48(s0)
8000159c:	00000013          	nop
800015a0:	fd04278f          	lq	a5,-48(s0)
800015a4:	01078713          	addi	a4,a5,16
800015a8:	fce44823          	sq	a4,-48(s0)
800015ac:	0007a78f          	lq	a5,0(a5)
800015b0:	faf44023          	sq	a5,-96(s0)
800015b4:	fa04250f          	lq	a0,-96(s0)
800015b8:	f15ff0ef          	jal	800014cc <_ebss+0xffe007bc>
800015bc:	00050793          	mv	a5,a0
800015c0:	fe0780e3          	beqz	a5,800015a0 <_ebss+0xffe00890>
800015c4:	fd04278f          	lq	a5,-48(s0)
800015c8:	fcf44823          	sq	a5,-48(s0)
800015cc:	fd04278f          	lq	a5,-48(s0)
800015d0:	f6f44023          	sq	a5,-160(s0)
800015d4:	f604270f          	lq	a4,-160(s0)
800015d8:	fc04278f          	lq	a5,-64(s0)
800015dc:	40f707b3          	sub	a5,a4,a5
800015e0:	f8f44823          	sq	a5,-112(s0)
800015e4:	01000793          	li	a5,16
800015e8:	f8f44023          	sq	a5,-128(s0)
800015ec:	f804278f          	lq	a5,-128(s0)
800015f0:	40f007b3          	neg	a5,a5
800015f4:	00078713          	mv	a4,a5
800015f8:	f604278f          	lq	a5,-160(s0)
800015fc:	00e787b3          	add	a5,a5,a4
80001600:	0007c783          	lbu	a5,0(a5)
80001604:	f6f40fa3          	sb	a5,-129(s0)
80001608:	00100713          	li	a4,1
8000160c:	f804278f          	lq	a5,-128(s0)
80001610:	40f707b3          	sub	a5,a4,a5
80001614:	00078713          	mv	a4,a5
80001618:	f604278f          	lq	a5,-160(s0)
8000161c:	00e787b3          	add	a5,a5,a4
80001620:	0007c783          	lbu	a5,0(a5)
80001624:	f6f40f23          	sb	a5,-130(s0)
80001628:	00200713          	li	a4,2
8000162c:	f804278f          	lq	a5,-128(s0)
80001630:	40f707b3          	sub	a5,a4,a5
80001634:	00078713          	mv	a4,a5
80001638:	f604278f          	lq	a5,-160(s0)
8000163c:	00e787b3          	add	a5,a5,a4
80001640:	0007c783          	lbu	a5,0(a5)
80001644:	f6f40ea3          	sb	a5,-131(s0)
80001648:	00300713          	li	a4,3
8000164c:	f804278f          	lq	a5,-128(s0)
80001650:	40f707b3          	sub	a5,a4,a5
80001654:	00078713          	mv	a4,a5
80001658:	f604278f          	lq	a5,-160(s0)
8000165c:	00e787b3          	add	a5,a5,a4
80001660:	0007c783          	lbu	a5,0(a5)
80001664:	f6f40e23          	sb	a5,-132(s0)
80001668:	f7f44783          	lbu	a5,-129(s0)
8000166c:	0ff7f793          	zext.b	a5,a5
80001670:	00079a63          	bnez	a5,80001684 <strlen+0x164>
80001674:	f804278f          	lq	a5,-128(s0)
80001678:	f904270f          	lq	a4,-112(s0)
8000167c:	40f707b3          	sub	a5,a4,a5
80001680:	0740006f          	j	800016f4 <strlen+0x1d4>
80001684:	f7e44783          	lbu	a5,-130(s0)
80001688:	0ff7f793          	zext.b	a5,a5
8000168c:	00079c63          	bnez	a5,800016a4 <strlen+0x184>
80001690:	f804278f          	lq	a5,-128(s0)
80001694:	f904270f          	lq	a4,-112(s0)
80001698:	40f707b3          	sub	a5,a4,a5
8000169c:	00178793          	addi	a5,a5,1
800016a0:	0540006f          	j	800016f4 <strlen+0x1d4>
800016a4:	f7d44783          	lbu	a5,-131(s0)
800016a8:	0ff7f793          	zext.b	a5,a5
800016ac:	00079c63          	bnez	a5,800016c4 <strlen+0x1a4>
800016b0:	f804278f          	lq	a5,-128(s0)
800016b4:	f904270f          	lq	a4,-112(s0)
800016b8:	40f707b3          	sub	a5,a4,a5
800016bc:	00278793          	addi	a5,a5,2
800016c0:	0340006f          	j	800016f4 <strlen+0x1d4>
800016c4:	f7c44783          	lbu	a5,-132(s0)
800016c8:	0ff7f793          	zext.b	a5,a5
800016cc:	00079c63          	bnez	a5,800016e4 <strlen+0x1c4>
800016d0:	f804278f          	lq	a5,-128(s0)
800016d4:	f904270f          	lq	a4,-112(s0)
800016d8:	40f707b3          	sub	a5,a4,a5
800016dc:	00378793          	addi	a5,a5,3
800016e0:	0140006f          	j	800016f4 <strlen+0x1d4>
800016e4:	f804278f          	lq	a5,-128(s0)
800016e8:	f904270f          	lq	a4,-112(s0)
800016ec:	40f707b3          	sub	a5,a4,a5
800016f0:	00778793          	addi	a5,a5,7
800016f4:	00078513          	mv	a0,a5
800016f8:	0901208f          	lq	ra,144(sp)
800016fc:	0801240f          	lq	s0,128(sp)
80001700:	0a010113          	addi	sp,sp,160
80001704:	00008067          	ret

80001708 <sbrk_aligned>:
80001708:	fa010113          	addi	sp,sp,-96
8000170c:	04114823          	sq	ra,80(sp)
80001710:	04814023          	sq	s0,64(sp)
80001714:	06010413          	addi	s0,sp,96
80001718:	faa44823          	sq	a0,-80(s0)
8000171c:	fab44023          	sq	a1,-96(s0)
80001720:	001ff797          	auipc	a5,0x1ff
80001724:	cb078793          	addi	a5,a5,-848 # 802003d0 <__malloc_sbrk_start>
80001728:	0007a78f          	lq	a5,0(a5)
8000172c:	02079063          	bnez	a5,8000174c <sbrk_aligned+0x44>
80001730:	00000593          	li	a1,0
80001734:	fb04250f          	lq	a0,-80(s0)
80001738:	579050ef          	jal	800074b0 <_sbrk_r>
8000173c:	00050713          	mv	a4,a0
80001740:	001ff797          	auipc	a5,0x1ff
80001744:	c9078793          	addi	a5,a5,-880 # 802003d0 <__malloc_sbrk_start>
80001748:	00e7c023          	sq	a4,0(a5)
8000174c:	fa04278f          	lq	a5,-96(s0)
80001750:	00078593          	mv	a1,a5
80001754:	fb04250f          	lq	a0,-80(s0)
80001758:	559050ef          	jal	800074b0 <_sbrk_r>
8000175c:	fca44823          	sq	a0,-48(s0)
80001760:	fd04270f          	lq	a4,-48(s0)
80001764:	fff00793          	li	a5,-1
80001768:	00f71663          	bne	a4,a5,80001774 <sbrk_aligned+0x6c>
8000176c:	fd04278f          	lq	a5,-48(s0)
80001770:	0540006f          	j	800017c4 <sbrk_aligned+0xbc>
80001774:	fd04278f          	lq	a5,-48(s0)
80001778:	00f78793          	addi	a5,a5,15
8000177c:	ff07f793          	andi	a5,a5,-16
80001780:	fcf44023          	sq	a5,-64(s0)
80001784:	fc04270f          	lq	a4,-64(s0)
80001788:	fd04278f          	lq	a5,-48(s0)
8000178c:	02f70a63          	beq	a4,a5,800017c0 <sbrk_aligned+0xb8>
80001790:	fc04270f          	lq	a4,-64(s0)
80001794:	fd04278f          	lq	a5,-48(s0)
80001798:	40f707b3          	sub	a5,a4,a5
8000179c:	00078593          	mv	a1,a5
800017a0:	fb04250f          	lq	a0,-80(s0)
800017a4:	50d050ef          	jal	800074b0 <_sbrk_r>
800017a8:	fca44823          	sq	a0,-48(s0)
800017ac:	fd04270f          	lq	a4,-48(s0)
800017b0:	fff00793          	li	a5,-1
800017b4:	00f71663          	bne	a4,a5,800017c0 <sbrk_aligned+0xb8>
800017b8:	fd04278f          	lq	a5,-48(s0)
800017bc:	0080006f          	j	800017c4 <sbrk_aligned+0xbc>
800017c0:	fc04278f          	lq	a5,-64(s0)
800017c4:	00078513          	mv	a0,a5
800017c8:	0501208f          	lq	ra,80(sp)
800017cc:	0401240f          	lq	s0,64(sp)
800017d0:	06010113          	addi	sp,sp,96
800017d4:	00008067          	ret

800017d8 <_malloc_r>:
800017d8:	f4010113          	addi	sp,sp,-192
800017dc:	0a114823          	sq	ra,176(sp)
800017e0:	0a814023          	sq	s0,160(sp)
800017e4:	08914823          	sq	s1,144(sp)
800017e8:	0c010413          	addi	s0,sp,192
800017ec:	f4a44823          	sq	a0,-176(s0)
800017f0:	f4b44023          	sq	a1,-192(s0)
800017f4:	f404278f          	lq	a5,-192(s0)
800017f8:	00f78793          	addi	a5,a5,15
800017fc:	ff07f793          	andi	a5,a5,-16
80001800:	faf44023          	sq	a5,-96(s0)
80001804:	fa04278f          	lq	a5,-96(s0)
80001808:	01078793          	addi	a5,a5,16
8000180c:	faf44023          	sq	a5,-96(s0)
80001810:	fa04278f          	lq	a5,-96(s0)
80001814:	02000713          	li	a4,32
80001818:	00e7f463          	bgeu	a5,a4,80001820 <_malloc_r+0x48>
8000181c:	02000793          	li	a5,32
80001820:	faf44023          	sq	a5,-96(s0)
80001824:	fa04270f          	lq	a4,-96(s0)
80001828:	800007b7          	lui	a5,0x80000
8000182c:	fff7c793          	not	a5,a5
80001830:	00e7e863          	bltu	a5,a4,80001840 <_malloc_r+0x68>
80001834:	fa04270f          	lq	a4,-96(s0)
80001838:	f404278f          	lq	a5,-192(s0)
8000183c:	00f77c63          	bgeu	a4,a5,80001854 <_malloc_r+0x7c>
80001840:	f504278f          	lq	a5,-176(s0)
80001844:	00c00713          	li	a4,12
80001848:	00e7a023          	sw	a4,0(a5) # 80000000 <_ebss+0xffdff2f0>
8000184c:	00000793          	li	a5,0
80001850:	3640006f          	j	80001bb4 <_malloc_r+0x3dc>
80001854:	f504250f          	lq	a0,-176(s0)
80001858:	1d0030ef          	jal	80004a28 <__malloc_lock>
8000185c:	001ff797          	auipc	a5,0x1ff
80001860:	b6478793          	addi	a5,a5,-1180 # 802003c0 <__malloc_free_list>
80001864:	0007a78f          	lq	a5,0(a5)
80001868:	fcf44023          	sq	a5,-64(s0)
8000186c:	fc04278f          	lq	a5,-64(s0)
80001870:	faf44823          	sq	a5,-80(s0)
80001874:	1400006f          	j	800019b4 <_malloc_r+0x1dc>
80001878:	fb04278f          	lq	a5,-80(s0)
8000187c:	0007b783          	ld	a5,0(a5)
80001880:	0007871b          	sext.w	a4,a5
80001884:	fa04278f          	lq	a5,-96(s0)
80001888:	0007879b          	sext.w	a5,a5
8000188c:	40f707bb          	subw	a5,a4,a5
80001890:	0007879b          	sext.w	a5,a5
80001894:	f8f42e23          	sw	a5,-100(s0)
80001898:	f9c42783          	lw	a5,-100(s0)
8000189c:	0007879b          	sext.w	a5,a5
800018a0:	1007c063          	bltz	a5,800019a0 <_malloc_r+0x1c8>
800018a4:	f9c42703          	lw	a4,-100(s0)
800018a8:	01f00793          	li	a5,31
800018ac:	0ae7fe63          	bgeu	a5,a4,80001968 <_malloc_r+0x190>
800018b0:	fc04270f          	lq	a4,-64(s0)
800018b4:	fb04278f          	lq	a5,-80(s0)
800018b8:	06f71063          	bne	a4,a5,80001918 <_malloc_r+0x140>
800018bc:	fa04278f          	lq	a5,-96(s0)
800018c0:	0007875b          	addid	a4,a5,0
800018c4:	fb04278f          	lq	a5,-80(s0)
800018c8:	00e7b023          	sd	a4,0(a5)
800018cc:	fb04270f          	lq	a4,-80(s0)
800018d0:	fa04278f          	lq	a5,-96(s0)
800018d4:	00f70733          	add	a4,a4,a5
800018d8:	001ff797          	auipc	a5,0x1ff
800018dc:	ae878793          	addi	a5,a5,-1304 # 802003c0 <__malloc_free_list>
800018e0:	00e7c023          	sq	a4,0(a5)
800018e4:	001ff797          	auipc	a5,0x1ff
800018e8:	adc78793          	addi	a5,a5,-1316 # 802003c0 <__malloc_free_list>
800018ec:	0007a78f          	lq	a5,0(a5)
800018f0:	f9c42703          	lw	a4,-100(s0)
800018f4:	0007075b          	addid	a4,a4,0
800018f8:	00e7b023          	sd	a4,0(a5)
800018fc:	001ff797          	auipc	a5,0x1ff
80001900:	ac478793          	addi	a5,a5,-1340 # 802003c0 <__malloc_free_list>
80001904:	0007a78f          	lq	a5,0(a5)
80001908:	fb04270f          	lq	a4,-80(s0)
8000190c:	0107270f          	lq	a4,16(a4)
80001910:	00e7c823          	sq	a4,16(a5)
80001914:	0a80006f          	j	800019bc <_malloc_r+0x1e4>
80001918:	fa04278f          	lq	a5,-96(s0)
8000191c:	0007875b          	addid	a4,a5,0
80001920:	fb04278f          	lq	a5,-80(s0)
80001924:	00e7b023          	sd	a4,0(a5)
80001928:	fb04270f          	lq	a4,-80(s0)
8000192c:	fa04278f          	lq	a5,-96(s0)
80001930:	00f70733          	add	a4,a4,a5
80001934:	fc04278f          	lq	a5,-64(s0)
80001938:	00e7c823          	sq	a4,16(a5)
8000193c:	fc04278f          	lq	a5,-64(s0)
80001940:	0107a78f          	lq	a5,16(a5)
80001944:	f9c42703          	lw	a4,-100(s0)
80001948:	0007075b          	addid	a4,a4,0
8000194c:	00e7b023          	sd	a4,0(a5)
80001950:	fc04278f          	lq	a5,-64(s0)
80001954:	0107a78f          	lq	a5,16(a5)
80001958:	fb04270f          	lq	a4,-80(s0)
8000195c:	0107270f          	lq	a4,16(a4)
80001960:	00e7c823          	sq	a4,16(a5)
80001964:	0580006f          	j	800019bc <_malloc_r+0x1e4>
80001968:	fc04270f          	lq	a4,-64(s0)
8000196c:	fb04278f          	lq	a5,-80(s0)
80001970:	00f71e63          	bne	a4,a5,8000198c <_malloc_r+0x1b4>
80001974:	fb04278f          	lq	a5,-80(s0)
80001978:	0107a70f          	lq	a4,16(a5)
8000197c:	001ff797          	auipc	a5,0x1ff
80001980:	a4478793          	addi	a5,a5,-1468 # 802003c0 <__malloc_free_list>
80001984:	00e7c023          	sq	a4,0(a5)
80001988:	0340006f          	j	800019bc <_malloc_r+0x1e4>
8000198c:	fb04278f          	lq	a5,-80(s0)
80001990:	0107a70f          	lq	a4,16(a5)
80001994:	fc04278f          	lq	a5,-64(s0)
80001998:	00e7c823          	sq	a4,16(a5)
8000199c:	0200006f          	j	800019bc <_malloc_r+0x1e4>
800019a0:	fb04278f          	lq	a5,-80(s0)
800019a4:	fcf44023          	sq	a5,-64(s0)
800019a8:	fb04278f          	lq	a5,-80(s0)
800019ac:	0107a78f          	lq	a5,16(a5)
800019b0:	faf44823          	sq	a5,-80(s0)
800019b4:	fb04278f          	lq	a5,-80(s0)
800019b8:	ec0790e3          	bnez	a5,80001878 <_ebss+0xffe00b68>
800019bc:	fb04278f          	lq	a5,-80(s0)
800019c0:	18079863          	bnez	a5,80001b50 <_malloc_r+0x378>
800019c4:	fa04258f          	lq	a1,-96(s0)
800019c8:	f504250f          	lq	a0,-176(s0)
800019cc:	d3dff0ef          	jal	80001708 <_ebss+0xffe009f8>
800019d0:	faa44823          	sq	a0,-80(s0)
800019d4:	fb04270f          	lq	a4,-80(s0)
800019d8:	fff00793          	li	a5,-1
800019dc:	16f71263          	bne	a4,a5,80001b40 <_malloc_r+0x368>
800019e0:	001ff797          	auipc	a5,0x1ff
800019e4:	9e078793          	addi	a5,a5,-1568 # 802003c0 <__malloc_free_list>
800019e8:	0007a78f          	lq	a5,0(a5)
800019ec:	fcf44023          	sq	a5,-64(s0)
800019f0:	fc04278f          	lq	a5,-64(s0)
800019f4:	faf44823          	sq	a5,-80(s0)
800019f8:	0180006f          	j	80001a10 <_malloc_r+0x238>
800019fc:	fb04278f          	lq	a5,-80(s0)
80001a00:	fcf44023          	sq	a5,-64(s0)
80001a04:	fb04278f          	lq	a5,-80(s0)
80001a08:	0107a78f          	lq	a5,16(a5)
80001a0c:	faf44823          	sq	a5,-80(s0)
80001a10:	fb04278f          	lq	a5,-80(s0)
80001a14:	fe0794e3          	bnez	a5,800019fc <_ebss+0xffe00cec>
80001a18:	fc04278f          	lq	a5,-64(s0)
80001a1c:	10078463          	beqz	a5,80001b24 <_malloc_r+0x34c>
80001a20:	fc04278f          	lq	a5,-64(s0)
80001a24:	0007b783          	ld	a5,0(a5)
80001a28:	00078713          	mv	a4,a5
80001a2c:	fc04278f          	lq	a5,-64(s0)
80001a30:	00e784b3          	add	s1,a5,a4
80001a34:	00000593          	li	a1,0
80001a38:	f504250f          	lq	a0,-176(s0)
80001a3c:	275050ef          	jal	800074b0 <_sbrk_r>
80001a40:	00050793          	mv	a5,a0
80001a44:	0ef49063          	bne	s1,a5,80001b24 <_malloc_r+0x34c>
80001a48:	fc04278f          	lq	a5,-64(s0)
80001a4c:	0007b783          	ld	a5,0(a5)
80001a50:	00078713          	mv	a4,a5
80001a54:	fa04278f          	lq	a5,-96(s0)
80001a58:	40e787b3          	sub	a5,a5,a4
80001a5c:	faf44023          	sq	a5,-96(s0)
80001a60:	fa04258f          	lq	a1,-96(s0)
80001a64:	f504250f          	lq	a0,-176(s0)
80001a68:	ca1ff0ef          	jal	80001708 <_ebss+0xffe009f8>
80001a6c:	00050713          	mv	a4,a0
80001a70:	fff00793          	li	a5,-1
80001a74:	08f70a63          	beq	a4,a5,80001b08 <_malloc_r+0x330>
80001a78:	fc04278f          	lq	a5,-64(s0)
80001a7c:	0007b783          	ld	a5,0(a5)
80001a80:	04079713          	slli	a4,a5,0x40
80001a84:	04075713          	srli	a4,a4,0x40
80001a88:	fa04278f          	lq	a5,-96(s0)
80001a8c:	04079793          	slli	a5,a5,0x40
80001a90:	0407d793          	srli	a5,a5,0x40
80001a94:	00f707fb          	addd	a5,a4,a5
80001a98:	04079793          	slli	a5,a5,0x40
80001a9c:	0407d793          	srli	a5,a5,0x40
80001aa0:	0007875b          	addid	a4,a5,0
80001aa4:	fc04278f          	lq	a5,-64(s0)
80001aa8:	00e7b023          	sd	a4,0(a5)
80001aac:	001ff797          	auipc	a5,0x1ff
80001ab0:	91478793          	addi	a5,a5,-1772 # 802003c0 <__malloc_free_list>
80001ab4:	0007a78f          	lq	a5,0(a5)
80001ab8:	faf44823          	sq	a5,-80(s0)
80001abc:	fb04278f          	lq	a5,-80(s0)
80001ac0:	0107a78f          	lq	a5,16(a5)
80001ac4:	02079063          	bnez	a5,80001ae4 <_malloc_r+0x30c>
80001ac8:	001ff797          	auipc	a5,0x1ff
80001acc:	8f878793          	addi	a5,a5,-1800 # 802003c0 <__malloc_free_list>
80001ad0:	0007c023          	sq	zero,0(a5)
80001ad4:	0280006f          	j	80001afc <_malloc_r+0x324>
80001ad8:	fb04278f          	lq	a5,-80(s0)
80001adc:	0107a78f          	lq	a5,16(a5)
80001ae0:	faf44823          	sq	a5,-80(s0)
80001ae4:	fb04278f          	lq	a5,-80(s0)
80001ae8:	0107a78f          	lq	a5,16(a5)
80001aec:	fc04270f          	lq	a4,-64(s0)
80001af0:	fef714e3          	bne	a4,a5,80001ad8 <_ebss+0xffe00dc8>
80001af4:	fb04278f          	lq	a5,-80(s0)
80001af8:	0007c823          	sq	zero,16(a5)
80001afc:	fc04278f          	lq	a5,-64(s0)
80001b00:	faf44823          	sq	a5,-80(s0)
80001b04:	04c0006f          	j	80001b50 <_malloc_r+0x378>
80001b08:	f504278f          	lq	a5,-176(s0)
80001b0c:	00c00713          	li	a4,12
80001b10:	00e7a023          	sw	a4,0(a5)
80001b14:	f504250f          	lq	a0,-176(s0)
80001b18:	731020ef          	jal	80004a48 <__malloc_unlock>
80001b1c:	00000793          	li	a5,0
80001b20:	0940006f          	j	80001bb4 <_malloc_r+0x3dc>
80001b24:	f504278f          	lq	a5,-176(s0)
80001b28:	00c00713          	li	a4,12
80001b2c:	00e7a023          	sw	a4,0(a5)
80001b30:	f504250f          	lq	a0,-176(s0)
80001b34:	715020ef          	jal	80004a48 <__malloc_unlock>
80001b38:	00000793          	li	a5,0
80001b3c:	0780006f          	j	80001bb4 <_malloc_r+0x3dc>
80001b40:	fa04278f          	lq	a5,-96(s0)
80001b44:	0007875b          	addid	a4,a5,0
80001b48:	fb04278f          	lq	a5,-80(s0)
80001b4c:	00e7b023          	sd	a4,0(a5)
80001b50:	f504250f          	lq	a0,-176(s0)
80001b54:	6f5020ef          	jal	80004a48 <__malloc_unlock>
80001b58:	fb04278f          	lq	a5,-80(s0)
80001b5c:	01078793          	addi	a5,a5,16
80001b60:	f8f44023          	sq	a5,-128(s0)
80001b64:	f804278f          	lq	a5,-128(s0)
80001b68:	00778793          	addi	a5,a5,7
80001b6c:	ff87f793          	andi	a5,a5,-8
80001b70:	f6f44823          	sq	a5,-144(s0)
80001b74:	f704270f          	lq	a4,-144(s0)
80001b78:	f804278f          	lq	a5,-128(s0)
80001b7c:	40f707b3          	sub	a5,a4,a5
80001b80:	f6f42623          	sw	a5,-148(s0)
80001b84:	f6c42783          	lw	a5,-148(s0)
80001b88:	0007879b          	sext.w	a5,a5
80001b8c:	02078263          	beqz	a5,80001bb0 <_malloc_r+0x3d8>
80001b90:	f6c42783          	lw	a5,-148(s0)
80001b94:	40f007bb          	negw	a5,a5
80001b98:	0007869b          	sext.w	a3,a5
80001b9c:	f6c42783          	lw	a5,-148(s0)
80001ba0:	fb04270f          	lq	a4,-80(s0)
80001ba4:	00f707b3          	add	a5,a4,a5
80001ba8:	00068713          	mv	a4,a3
80001bac:	00e7b023          	sd	a4,0(a5)
80001bb0:	f704278f          	lq	a5,-144(s0)
80001bb4:	00078513          	mv	a0,a5
80001bb8:	0b01208f          	lq	ra,176(sp)
80001bbc:	0a01240f          	lq	s0,160(sp)
80001bc0:	0901248f          	lq	s1,144(sp)
80001bc4:	0c010113          	addi	sp,sp,192
80001bc8:	00008067          	ret

80001bcc <quorem>:
80001bcc:	f5010113          	addi	sp,sp,-176
80001bd0:	0a114023          	sq	ra,160(sp)
80001bd4:	08814823          	sq	s0,144(sp)
80001bd8:	0b010413          	addi	s0,sp,176
80001bdc:	f6a44023          	sq	a0,-160(s0)
80001be0:	f4b44823          	sq	a1,-176(s0)
80001be4:	f504278f          	lq	a5,-176(s0)
80001be8:	01c7a783          	lw	a5,28(a5)
80001bec:	fcf42e23          	sw	a5,-36(s0)
80001bf0:	f604278f          	lq	a5,-160(s0)
80001bf4:	01c7a703          	lw	a4,28(a5)
80001bf8:	fdc42783          	lw	a5,-36(s0)
80001bfc:	0007879b          	sext.w	a5,a5
80001c00:	00f75663          	bge	a4,a5,80001c0c <quorem+0x40>
80001c04:	00000793          	li	a5,0
80001c08:	44c0006f          	j	80002054 <quorem+0x488>
80001c0c:	f504278f          	lq	a5,-176(s0)
80001c10:	02078793          	addi	a5,a5,32
80001c14:	faf44023          	sq	a5,-96(s0)
80001c18:	fdc42783          	lw	a5,-36(s0)
80001c1c:	fff7879b          	addw	a5,a5,-1
80001c20:	fcf42e23          	sw	a5,-36(s0)
80001c24:	fdc42783          	lw	a5,-36(s0)
80001c28:	00279793          	slli	a5,a5,0x2
80001c2c:	fa04270f          	lq	a4,-96(s0)
80001c30:	00f707b3          	add	a5,a4,a5
80001c34:	f8f44823          	sq	a5,-112(s0)
80001c38:	f604278f          	lq	a5,-160(s0)
80001c3c:	02078793          	addi	a5,a5,32
80001c40:	fcf44023          	sq	a5,-64(s0)
80001c44:	fdc42783          	lw	a5,-36(s0)
80001c48:	00279793          	slli	a5,a5,0x2
80001c4c:	fc04270f          	lq	a4,-64(s0)
80001c50:	00f707b3          	add	a5,a4,a5
80001c54:	faf44823          	sq	a5,-80(s0)
80001c58:	fb04278f          	lq	a5,-80(s0)
80001c5c:	0007a703          	lw	a4,0(a5)
80001c60:	f904278f          	lq	a5,-112(s0)
80001c64:	0007a783          	lw	a5,0(a5)
80001c68:	0017879b          	addw	a5,a5,1
80001c6c:	0007879b          	sext.w	a5,a5
80001c70:	02f757bb          	divuw	a5,a4,a5
80001c74:	fcf42823          	sw	a5,-48(s0)
80001c78:	fd042783          	lw	a5,-48(s0)
80001c7c:	0007879b          	sext.w	a5,a5
80001c80:	1c078863          	beqz	a5,80001e50 <quorem+0x284>
80001c84:	fc042c23          	sw	zero,-40(s0)
80001c88:	fc042a23          	sw	zero,-44(s0)
80001c8c:	fa04278f          	lq	a5,-96(s0)
80001c90:	00478713          	addi	a4,a5,4
80001c94:	fae44023          	sq	a4,-96(s0)
80001c98:	0007a783          	lw	a5,0(a5)
80001c9c:	f8f42623          	sw	a5,-116(s0)
80001ca0:	f8c42783          	lw	a5,-116(s0)
80001ca4:	00078713          	mv	a4,a5
80001ca8:	000107b7          	lui	a5,0x10
80001cac:	fff78793          	addi	a5,a5,-1 # ffff <UART_BASE-0xfff0001>
80001cb0:	00f777b3          	and	a5,a4,a5
80001cb4:	0007879b          	sext.w	a5,a5
80001cb8:	fd042703          	lw	a4,-48(s0)
80001cbc:	02f707bb          	mulw	a5,a4,a5
80001cc0:	0007879b          	sext.w	a5,a5
80001cc4:	fd442703          	lw	a4,-44(s0)
80001cc8:	00f707bb          	addw	a5,a4,a5
80001ccc:	f8f42423          	sw	a5,-120(s0)
80001cd0:	f8c42783          	lw	a5,-116(s0)
80001cd4:	0107d79b          	srlw	a5,a5,0x10
80001cd8:	0007879b          	sext.w	a5,a5
80001cdc:	fd042703          	lw	a4,-48(s0)
80001ce0:	02f707bb          	mulw	a5,a4,a5
80001ce4:	0007871b          	sext.w	a4,a5
80001ce8:	f8842783          	lw	a5,-120(s0)
80001cec:	0107d79b          	srlw	a5,a5,0x10
80001cf0:	0007879b          	sext.w	a5,a5
80001cf4:	00f707bb          	addw	a5,a4,a5
80001cf8:	f8f42223          	sw	a5,-124(s0)
80001cfc:	f8442783          	lw	a5,-124(s0)
80001d00:	0107d79b          	srlw	a5,a5,0x10
80001d04:	fcf42a23          	sw	a5,-44(s0)
80001d08:	fc04278f          	lq	a5,-64(s0)
80001d0c:	0007a783          	lw	a5,0(a5)
80001d10:	00078713          	mv	a4,a5
80001d14:	000107b7          	lui	a5,0x10
80001d18:	fff78793          	addi	a5,a5,-1 # ffff <UART_BASE-0xfff0001>
80001d1c:	00f777b3          	and	a5,a4,a5
80001d20:	0007871b          	sext.w	a4,a5
80001d24:	f8842783          	lw	a5,-120(s0)
80001d28:	00078693          	mv	a3,a5
80001d2c:	000107b7          	lui	a5,0x10
80001d30:	fff78793          	addi	a5,a5,-1 # ffff <UART_BASE-0xfff0001>
80001d34:	00f6f7b3          	and	a5,a3,a5
80001d38:	0007879b          	sext.w	a5,a5
80001d3c:	40f707bb          	subw	a5,a4,a5
80001d40:	0007871b          	sext.w	a4,a5
80001d44:	fd842783          	lw	a5,-40(s0)
80001d48:	00f707bb          	addw	a5,a4,a5
80001d4c:	0007879b          	sext.w	a5,a5
80001d50:	f8f42023          	sw	a5,-128(s0)
80001d54:	f8042783          	lw	a5,-128(s0)
80001d58:	4107d79b          	sraw	a5,a5,0x10
80001d5c:	fcf42c23          	sw	a5,-40(s0)
80001d60:	fc04278f          	lq	a5,-64(s0)
80001d64:	0007a783          	lw	a5,0(a5)
80001d68:	0107d79b          	srlw	a5,a5,0x10
80001d6c:	0007871b          	sext.w	a4,a5
80001d70:	f8442783          	lw	a5,-124(s0)
80001d74:	00078693          	mv	a3,a5
80001d78:	000107b7          	lui	a5,0x10
80001d7c:	fff78793          	addi	a5,a5,-1 # ffff <UART_BASE-0xfff0001>
80001d80:	00f6f7b3          	and	a5,a3,a5
80001d84:	0007879b          	sext.w	a5,a5
80001d88:	40f707bb          	subw	a5,a4,a5
80001d8c:	0007871b          	sext.w	a4,a5
80001d90:	fd842783          	lw	a5,-40(s0)
80001d94:	00f707bb          	addw	a5,a4,a5
80001d98:	0007879b          	sext.w	a5,a5
80001d9c:	f6f42e23          	sw	a5,-132(s0)
80001da0:	f7c42783          	lw	a5,-132(s0)
80001da4:	4107d79b          	sraw	a5,a5,0x10
80001da8:	fcf42c23          	sw	a5,-40(s0)
80001dac:	f7c42783          	lw	a5,-132(s0)
80001db0:	0107979b          	sllw	a5,a5,0x10
80001db4:	0007871b          	sext.w	a4,a5
80001db8:	f8042783          	lw	a5,-128(s0)
80001dbc:	00078693          	mv	a3,a5
80001dc0:	000107b7          	lui	a5,0x10
80001dc4:	fff78793          	addi	a5,a5,-1 # ffff <UART_BASE-0xfff0001>
80001dc8:	00f6f7b3          	and	a5,a3,a5
80001dcc:	0007879b          	sext.w	a5,a5
80001dd0:	00f767b3          	or	a5,a4,a5
80001dd4:	0007869b          	sext.w	a3,a5
80001dd8:	fc04278f          	lq	a5,-64(s0)
80001ddc:	00478713          	addi	a4,a5,4
80001de0:	fce44023          	sq	a4,-64(s0)
80001de4:	0006871b          	sext.w	a4,a3
80001de8:	00e7a023          	sw	a4,0(a5)
80001dec:	fa04270f          	lq	a4,-96(s0)
80001df0:	f904278f          	lq	a5,-112(s0)
80001df4:	e8e7fce3          	bgeu	a5,a4,80001c8c <_ebss+0xffe00f7c>
80001df8:	fb04278f          	lq	a5,-80(s0)
80001dfc:	0007a783          	lw	a5,0(a5)
80001e00:	04079863          	bnez	a5,80001e50 <quorem+0x284>
80001e04:	f604278f          	lq	a5,-160(s0)
80001e08:	02078793          	addi	a5,a5,32
80001e0c:	fcf44023          	sq	a5,-64(s0)
80001e10:	0100006f          	j	80001e20 <quorem+0x254>
80001e14:	fdc42783          	lw	a5,-36(s0)
80001e18:	fff7879b          	addw	a5,a5,-1
80001e1c:	fcf42e23          	sw	a5,-36(s0)
80001e20:	fb04278f          	lq	a5,-80(s0)
80001e24:	ffc78793          	addi	a5,a5,-4
80001e28:	faf44823          	sq	a5,-80(s0)
80001e2c:	fb04270f          	lq	a4,-80(s0)
80001e30:	fc04278f          	lq	a5,-64(s0)
80001e34:	00e7f863          	bgeu	a5,a4,80001e44 <quorem+0x278>
80001e38:	fb04278f          	lq	a5,-80(s0)
80001e3c:	0007a783          	lw	a5,0(a5)
80001e40:	fc078ae3          	beqz	a5,80001e14 <_ebss+0xffe01104>
80001e44:	f604278f          	lq	a5,-160(s0)
80001e48:	fdc42703          	lw	a4,-36(s0)
80001e4c:	00e7ae23          	sw	a4,28(a5)
80001e50:	f504258f          	lq	a1,-176(s0)
80001e54:	f604250f          	lq	a0,-160(s0)
80001e58:	025040ef          	jal	8000667c <__mcmp>
80001e5c:	00050793          	mv	a5,a0
80001e60:	1e07c863          	bltz	a5,80002050 <quorem+0x484>
80001e64:	fd042783          	lw	a5,-48(s0)
80001e68:	0017879b          	addw	a5,a5,1
80001e6c:	fcf42823          	sw	a5,-48(s0)
80001e70:	fc042c23          	sw	zero,-40(s0)
80001e74:	fc042a23          	sw	zero,-44(s0)
80001e78:	f604278f          	lq	a5,-160(s0)
80001e7c:	02078793          	addi	a5,a5,32
80001e80:	fcf44023          	sq	a5,-64(s0)
80001e84:	f504278f          	lq	a5,-176(s0)
80001e88:	02078793          	addi	a5,a5,32
80001e8c:	faf44023          	sq	a5,-96(s0)
80001e90:	fa04278f          	lq	a5,-96(s0)
80001e94:	00478713          	addi	a4,a5,4
80001e98:	fae44023          	sq	a4,-96(s0)
80001e9c:	0007a783          	lw	a5,0(a5)
80001ea0:	f8f42623          	sw	a5,-116(s0)
80001ea4:	f8c42783          	lw	a5,-116(s0)
80001ea8:	00078713          	mv	a4,a5
80001eac:	000107b7          	lui	a5,0x10
80001eb0:	fff78793          	addi	a5,a5,-1 # ffff <UART_BASE-0xfff0001>
80001eb4:	00f777b3          	and	a5,a4,a5
80001eb8:	0007879b          	sext.w	a5,a5
80001ebc:	fd442703          	lw	a4,-44(s0)
80001ec0:	00f707bb          	addw	a5,a4,a5
80001ec4:	f8f42423          	sw	a5,-120(s0)
80001ec8:	f8c42783          	lw	a5,-116(s0)
80001ecc:	0107d79b          	srlw	a5,a5,0x10
80001ed0:	0007871b          	sext.w	a4,a5
80001ed4:	f8842783          	lw	a5,-120(s0)
80001ed8:	0107d79b          	srlw	a5,a5,0x10
80001edc:	0007879b          	sext.w	a5,a5
80001ee0:	00f707bb          	addw	a5,a4,a5
80001ee4:	f8f42223          	sw	a5,-124(s0)
80001ee8:	f8442783          	lw	a5,-124(s0)
80001eec:	0107d79b          	srlw	a5,a5,0x10
80001ef0:	fcf42a23          	sw	a5,-44(s0)
80001ef4:	fc04278f          	lq	a5,-64(s0)
80001ef8:	0007a783          	lw	a5,0(a5)
80001efc:	00078713          	mv	a4,a5
80001f00:	000107b7          	lui	a5,0x10
80001f04:	fff78793          	addi	a5,a5,-1 # ffff <UART_BASE-0xfff0001>
80001f08:	00f777b3          	and	a5,a4,a5
80001f0c:	0007871b          	sext.w	a4,a5
80001f10:	f8842783          	lw	a5,-120(s0)
80001f14:	00078693          	mv	a3,a5
80001f18:	000107b7          	lui	a5,0x10
80001f1c:	fff78793          	addi	a5,a5,-1 # ffff <UART_BASE-0xfff0001>
80001f20:	00f6f7b3          	and	a5,a3,a5
80001f24:	0007879b          	sext.w	a5,a5
80001f28:	40f707bb          	subw	a5,a4,a5
80001f2c:	0007871b          	sext.w	a4,a5
80001f30:	fd842783          	lw	a5,-40(s0)
80001f34:	00f707bb          	addw	a5,a4,a5
80001f38:	0007879b          	sext.w	a5,a5
80001f3c:	f8f42023          	sw	a5,-128(s0)
80001f40:	f8042783          	lw	a5,-128(s0)
80001f44:	4107d79b          	sraw	a5,a5,0x10
80001f48:	fcf42c23          	sw	a5,-40(s0)
80001f4c:	fc04278f          	lq	a5,-64(s0)
80001f50:	0007a783          	lw	a5,0(a5)
80001f54:	0107d79b          	srlw	a5,a5,0x10
80001f58:	0007871b          	sext.w	a4,a5
80001f5c:	f8442783          	lw	a5,-124(s0)
80001f60:	00078693          	mv	a3,a5
80001f64:	000107b7          	lui	a5,0x10
80001f68:	fff78793          	addi	a5,a5,-1 # ffff <UART_BASE-0xfff0001>
80001f6c:	00f6f7b3          	and	a5,a3,a5
80001f70:	0007879b          	sext.w	a5,a5
80001f74:	40f707bb          	subw	a5,a4,a5
80001f78:	0007871b          	sext.w	a4,a5
80001f7c:	fd842783          	lw	a5,-40(s0)
80001f80:	00f707bb          	addw	a5,a4,a5
80001f84:	0007879b          	sext.w	a5,a5
80001f88:	f6f42e23          	sw	a5,-132(s0)
80001f8c:	f7c42783          	lw	a5,-132(s0)
80001f90:	4107d79b          	sraw	a5,a5,0x10
80001f94:	fcf42c23          	sw	a5,-40(s0)
80001f98:	f7c42783          	lw	a5,-132(s0)
80001f9c:	0107979b          	sllw	a5,a5,0x10
80001fa0:	0007871b          	sext.w	a4,a5
80001fa4:	f8042783          	lw	a5,-128(s0)
80001fa8:	00078693          	mv	a3,a5
80001fac:	000107b7          	lui	a5,0x10
80001fb0:	fff78793          	addi	a5,a5,-1 # ffff <UART_BASE-0xfff0001>
80001fb4:	00f6f7b3          	and	a5,a3,a5
80001fb8:	0007879b          	sext.w	a5,a5
80001fbc:	00f767b3          	or	a5,a4,a5
80001fc0:	0007869b          	sext.w	a3,a5
80001fc4:	fc04278f          	lq	a5,-64(s0)
80001fc8:	00478713          	addi	a4,a5,4
80001fcc:	fce44023          	sq	a4,-64(s0)
80001fd0:	0006871b          	sext.w	a4,a3
80001fd4:	00e7a023          	sw	a4,0(a5)
80001fd8:	fa04270f          	lq	a4,-96(s0)
80001fdc:	f904278f          	lq	a5,-112(s0)
80001fe0:	eae7f8e3          	bgeu	a5,a4,80001e90 <_ebss+0xffe01180>
80001fe4:	f604278f          	lq	a5,-160(s0)
80001fe8:	02078793          	addi	a5,a5,32
80001fec:	fcf44023          	sq	a5,-64(s0)
80001ff0:	fdc42783          	lw	a5,-36(s0)
80001ff4:	00279793          	slli	a5,a5,0x2
80001ff8:	fc04270f          	lq	a4,-64(s0)
80001ffc:	00f707b3          	add	a5,a4,a5
80002000:	faf44823          	sq	a5,-80(s0)
80002004:	fb04278f          	lq	a5,-80(s0)
80002008:	0007a783          	lw	a5,0(a5)
8000200c:	04079263          	bnez	a5,80002050 <quorem+0x484>
80002010:	0100006f          	j	80002020 <quorem+0x454>
80002014:	fdc42783          	lw	a5,-36(s0)
80002018:	fff7879b          	addw	a5,a5,-1
8000201c:	fcf42e23          	sw	a5,-36(s0)
80002020:	fb04278f          	lq	a5,-80(s0)
80002024:	ffc78793          	addi	a5,a5,-4
80002028:	faf44823          	sq	a5,-80(s0)
8000202c:	fb04270f          	lq	a4,-80(s0)
80002030:	fc04278f          	lq	a5,-64(s0)
80002034:	00e7f863          	bgeu	a5,a4,80002044 <quorem+0x478>
80002038:	fb04278f          	lq	a5,-80(s0)
8000203c:	0007a783          	lw	a5,0(a5)
80002040:	fc078ae3          	beqz	a5,80002014 <_ebss+0xffe01304>
80002044:	f604278f          	lq	a5,-160(s0)
80002048:	fdc42703          	lw	a4,-36(s0)
8000204c:	00e7ae23          	sw	a4,28(a5)
80002050:	fd042783          	lw	a5,-48(s0)
80002054:	00078513          	mv	a0,a5
80002058:	0a01208f          	lq	ra,160(sp)
8000205c:	0901240f          	lq	s0,144(sp)
80002060:	0b010113          	addi	sp,sp,176
80002064:	00008067          	ret

80002068 <_dtoa_r>:
80002068:	e1010113          	addi	sp,sp,-496
8000206c:	1e114023          	sq	ra,480(sp)
80002070:	1c814823          	sq	s0,464(sp)
80002074:	1c914023          	sq	s1,448(sp)
80002078:	1f010413          	addi	s0,sp,496
8000207c:	e4a44823          	sq	a0,-432(s0)
80002080:	e4b43423          	sd	a1,-440(s0)
80002084:	e2e44823          	sq	a4,-464(s0)
80002088:	e2f44023          	sq	a5,-480(s0)
8000208c:	e1044823          	sq	a6,-496(s0)
80002090:	00060793          	mv	a5,a2
80002094:	e4f42223          	sw	a5,-444(s0)
80002098:	00068793          	mv	a5,a3
8000209c:	e4f42023          	sw	a5,-448(s0)
800020a0:	f6044023          	sq	zero,-160(s0)
800020a4:	e4843783          	ld	a5,-440(s0)
800020a8:	e8f43023          	sd	a5,-384(s0)
800020ac:	e504278f          	lq	a5,-432(s0)
800020b0:	f0f44823          	sq	a5,-240(s0)
800020b4:	f104278f          	lq	a5,-240(s0)
800020b8:	0707a78f          	lq	a5,112(a5)
800020bc:	08079063          	bnez	a5,8000213c <_dtoa_r+0xd4>
800020c0:	04000513          	li	a0,64
800020c4:	51d010ef          	jal	80003de0 <malloc>
800020c8:	00050793          	mv	a5,a0
800020cc:	00078713          	mv	a4,a5
800020d0:	f104278f          	lq	a5,-240(s0)
800020d4:	06e7c823          	sq	a4,112(a5)
800020d8:	f104278f          	lq	a5,-240(s0)
800020dc:	0707a78f          	lq	a5,112(a5)
800020e0:	02079063          	bnez	a5,80002100 <_dtoa_r+0x98>
800020e4:	0000b697          	auipc	a3,0xb
800020e8:	17c68693          	addi	a3,a3,380 # 8000d260 <puts+0x10c>
800020ec:	00000613          	li	a2,0
800020f0:	0ef00593          	li	a1,239
800020f4:	0000b517          	auipc	a0,0xb
800020f8:	18c50513          	addi	a0,a0,396 # 8000d280 <puts+0x12c>
800020fc:	1ec030ef          	jal	800052e8 <__assert_func>
80002100:	e504278f          	lq	a5,-432(s0)
80002104:	f0f44023          	sq	a5,-256(s0)
80002108:	f004278f          	lq	a5,-256(s0)
8000210c:	0707a78f          	lq	a5,112(a5)
80002110:	0007a823          	sw	zero,16(a5)
80002114:	f004278f          	lq	a5,-256(s0)
80002118:	0707a78f          	lq	a5,112(a5)
8000211c:	0207c023          	sq	zero,32(a5)
80002120:	f004270f          	lq	a4,-256(s0)
80002124:	0707270f          	lq	a4,112(a4)
80002128:	0207a78f          	lq	a5,32(a5)
8000212c:	00f74023          	sq	a5,0(a4)
80002130:	f004278f          	lq	a5,-256(s0)
80002134:	0707a78f          	lq	a5,112(a5)
80002138:	0207c823          	sq	zero,48(a5)
8000213c:	e504278f          	lq	a5,-432(s0)
80002140:	0707a78f          	lq	a5,112(a5)
80002144:	0007a78f          	lq	a5,0(a5)
80002148:	06078663          	beqz	a5,800021b4 <_dtoa_r+0x14c>
8000214c:	e504278f          	lq	a5,-432(s0)
80002150:	0707a70f          	lq	a4,112(a5)
80002154:	e504278f          	lq	a5,-432(s0)
80002158:	0707a78f          	lq	a5,112(a5)
8000215c:	0007a78f          	lq	a5,0(a5)
80002160:	01072703          	lw	a4,16(a4)
80002164:	00e7a823          	sw	a4,16(a5)
80002168:	e504278f          	lq	a5,-432(s0)
8000216c:	0707a78f          	lq	a5,112(a5)
80002170:	0107a703          	lw	a4,16(a5)
80002174:	e504278f          	lq	a5,-432(s0)
80002178:	0707a78f          	lq	a5,112(a5)
8000217c:	0007a78f          	lq	a5,0(a5)
80002180:	00100693          	li	a3,1
80002184:	00e6973b          	sllw	a4,a3,a4
80002188:	0007071b          	sext.w	a4,a4
8000218c:	00e7aa23          	sw	a4,20(a5)
80002190:	e504278f          	lq	a5,-432(s0)
80002194:	0707a78f          	lq	a5,112(a5)
80002198:	0007a78f          	lq	a5,0(a5)
8000219c:	00078593          	mv	a1,a5
800021a0:	e504250f          	lq	a0,-432(s0)
800021a4:	3e8030ef          	jal	8000558c <_Bfree>
800021a8:	e504278f          	lq	a5,-432(s0)
800021ac:	0707a78f          	lq	a5,112(a5)
800021b0:	0007c023          	sq	zero,0(a5)
800021b4:	e8442783          	lw	a5,-380(s0)
800021b8:	0007879b          	sext.w	a5,a5
800021bc:	0207d863          	bgez	a5,800021ec <_dtoa_r+0x184>
800021c0:	e204278f          	lq	a5,-480(s0)
800021c4:	00100713          	li	a4,1
800021c8:	00e7a023          	sw	a4,0(a5)
800021cc:	e8442783          	lw	a5,-380(s0)
800021d0:	00078713          	mv	a4,a5
800021d4:	800007b7          	lui	a5,0x80000
800021d8:	fff7c793          	not	a5,a5
800021dc:	00f777b3          	and	a5,a4,a5
800021e0:	0007879b          	sext.w	a5,a5
800021e4:	e8f42223          	sw	a5,-380(s0)
800021e8:	00c0006f          	j	800021f4 <_dtoa_r+0x18c>
800021ec:	e204278f          	lq	a5,-480(s0)
800021f0:	0007a023          	sw	zero,0(a5) # 80000000 <_ebss+0xffdff2f0>
800021f4:	e8442783          	lw	a5,-380(s0)
800021f8:	00078713          	mv	a4,a5
800021fc:	7ff007b7          	lui	a5,0x7ff00
80002200:	00f777b3          	and	a5,a4,a5
80002204:	0007879b          	sext.w	a5,a5
80002208:	00078713          	mv	a4,a5
8000220c:	7ff007b7          	lui	a5,0x7ff00
80002210:	08f71663          	bne	a4,a5,8000229c <_dtoa_r+0x234>
80002214:	e304278f          	lq	a5,-464(s0)
80002218:	00002737          	lui	a4,0x2
8000221c:	70f70713          	addi	a4,a4,1807 # 270f <UART_BASE-0xfffd8f1>
80002220:	00e7a023          	sw	a4,0(a5) # 7ff00000 <UART_BASE+0x6ff00000>
80002224:	e8042783          	lw	a5,-384(s0)
80002228:	02079663          	bnez	a5,80002254 <_dtoa_r+0x1ec>
8000222c:	e8442783          	lw	a5,-380(s0)
80002230:	00078713          	mv	a4,a5
80002234:	001007b7          	lui	a5,0x100
80002238:	fff78793          	addi	a5,a5,-1 # fffff <UART_BASE-0xff00001>
8000223c:	00f777b3          	and	a5,a4,a5
80002240:	0007879b          	sext.w	a5,a5
80002244:	00079863          	bnez	a5,80002254 <_dtoa_r+0x1ec>
80002248:	0000b797          	auipc	a5,0xb
8000224c:	06878793          	addi	a5,a5,104 # 8000d2b0 <puts+0x15c>
80002250:	00c0006f          	j	8000225c <_dtoa_r+0x1f4>
80002254:	0000b797          	auipc	a5,0xb
80002258:	06c78793          	addi	a5,a5,108 # 8000d2c0 <puts+0x16c>
8000225c:	f2f44023          	sq	a5,-224(s0)
80002260:	e104278f          	lq	a5,-496(s0)
80002264:	02078863          	beqz	a5,80002294 <_dtoa_r+0x22c>
80002268:	f204278f          	lq	a5,-224(s0)
8000226c:	00378793          	addi	a5,a5,3
80002270:	0007c783          	lbu	a5,0(a5)
80002274:	00078863          	beqz	a5,80002284 <_dtoa_r+0x21c>
80002278:	f204278f          	lq	a5,-224(s0)
8000227c:	00878793          	addi	a5,a5,8
80002280:	00c0006f          	j	8000228c <_dtoa_r+0x224>
80002284:	f204278f          	lq	a5,-224(s0)
80002288:	00378793          	addi	a5,a5,3
8000228c:	e104270f          	lq	a4,-496(s0)
80002290:	00f74023          	sq	a5,0(a4)
80002294:	f204278f          	lq	a5,-224(s0)
80002298:	1f10106f          	j	80003c88 <_dtoa_r+0x1c20>
8000229c:	e8043783          	ld	a5,-384(s0)
800022a0:	00000593          	li	a1,0
800022a4:	00078513          	mv	a0,a5
800022a8:	0cc090ef          	jal	8000b374 <__eqdf2>
800022ac:	00050793          	mv	a5,a0
800022b0:	02079e63          	bnez	a5,800022ec <_dtoa_r+0x284>
800022b4:	e304278f          	lq	a5,-464(s0)
800022b8:	00100713          	li	a4,1
800022bc:	00e7a023          	sw	a4,0(a5)
800022c0:	0000b797          	auipc	a5,0xb
800022c4:	01078793          	addi	a5,a5,16 # 8000d2d0 <puts+0x17c>
800022c8:	f2f44023          	sq	a5,-224(s0)
800022cc:	e104278f          	lq	a5,-496(s0)
800022d0:	00078a63          	beqz	a5,800022e4 <_dtoa_r+0x27c>
800022d4:	f204278f          	lq	a5,-224(s0)
800022d8:	00178713          	addi	a4,a5,1
800022dc:	e104278f          	lq	a5,-496(s0)
800022e0:	00e7c023          	sq	a4,0(a5)
800022e4:	f204278f          	lq	a5,-224(s0)
800022e8:	1a10106f          	j	80003c88 <_dtoa_r+0x1c20>
800022ec:	e8043783          	ld	a5,-384(s0)
800022f0:	e8c40693          	addi	a3,s0,-372
800022f4:	e8840713          	addi	a4,s0,-376
800022f8:	00070613          	mv	a2,a4
800022fc:	00078593          	mv	a1,a5
80002300:	e504250f          	lq	a0,-432(s0)
80002304:	341040ef          	jal	80006e44 <__d2b>
80002308:	f6a44823          	sq	a0,-144(s0)
8000230c:	e8442783          	lw	a5,-380(s0)
80002310:	0147d79b          	srlw	a5,a5,0x14
80002314:	0007879b          	sext.w	a5,a5
80002318:	0007879b          	sext.w	a5,a5
8000231c:	7ff7f793          	andi	a5,a5,2047
80002320:	fcf42023          	sw	a5,-64(s0)
80002324:	fc042783          	lw	a5,-64(s0)
80002328:	0007879b          	sext.w	a5,a5
8000232c:	04078a63          	beqz	a5,80002380 <_dtoa_r+0x318>
80002330:	e8043783          	ld	a5,-384(s0)
80002334:	e6f43823          	sd	a5,-400(s0)
80002338:	e7442783          	lw	a5,-396(s0)
8000233c:	00078713          	mv	a4,a5
80002340:	001007b7          	lui	a5,0x100
80002344:	fff78793          	addi	a5,a5,-1 # fffff <UART_BASE-0xff00001>
80002348:	00f777b3          	and	a5,a4,a5
8000234c:	0007879b          	sext.w	a5,a5
80002350:	e6f42a23          	sw	a5,-396(s0)
80002354:	e7442783          	lw	a5,-396(s0)
80002358:	00078713          	mv	a4,a5
8000235c:	3ff007b7          	lui	a5,0x3ff00
80002360:	00f767b3          	or	a5,a4,a5
80002364:	0007879b          	sext.w	a5,a5
80002368:	e6f42a23          	sw	a5,-396(s0)
8000236c:	fc042783          	lw	a5,-64(s0)
80002370:	c017879b          	addw	a5,a5,-1023
80002374:	fcf42023          	sw	a5,-64(s0)
80002378:	f8042423          	sw	zero,-120(s0)
8000237c:	0c80006f          	j	80002444 <_dtoa_r+0x3dc>
80002380:	e8c42703          	lw	a4,-372(s0)
80002384:	e8842783          	lw	a5,-376(s0)
80002388:	00f707bb          	addw	a5,a4,a5
8000238c:	0007879b          	sext.w	a5,a5
80002390:	4327879b          	addw	a5,a5,1074
80002394:	fcf42023          	sw	a5,-64(s0)
80002398:	fc042783          	lw	a5,-64(s0)
8000239c:	0007871b          	sext.w	a4,a5
800023a0:	02000793          	li	a5,32
800023a4:	04e7d263          	bge	a5,a4,800023e8 <_dtoa_r+0x380>
800023a8:	e8442783          	lw	a5,-380(s0)
800023ac:	04000713          	li	a4,64
800023b0:	fc042683          	lw	a3,-64(s0)
800023b4:	40d7073b          	subw	a4,a4,a3
800023b8:	0007071b          	sext.w	a4,a4
800023bc:	00e797bb          	sllw	a5,a5,a4
800023c0:	0007871b          	sext.w	a4,a5
800023c4:	e8042783          	lw	a5,-384(s0)
800023c8:	fc042683          	lw	a3,-64(s0)
800023cc:	fe06869b          	addw	a3,a3,-32
800023d0:	0006869b          	sext.w	a3,a3
800023d4:	00d7d7bb          	srlw	a5,a5,a3
800023d8:	0007879b          	sext.w	a5,a5
800023dc:	00f767b3          	or	a5,a4,a5
800023e0:	0007879b          	sext.w	a5,a5
800023e4:	0200006f          	j	80002404 <_dtoa_r+0x39c>
800023e8:	e8042783          	lw	a5,-384(s0)
800023ec:	02000713          	li	a4,32
800023f0:	fc042683          	lw	a3,-64(s0)
800023f4:	40d7073b          	subw	a4,a4,a3
800023f8:	0007071b          	sext.w	a4,a4
800023fc:	00e797bb          	sllw	a5,a5,a4
80002400:	0007879b          	sext.w	a5,a5
80002404:	eef42e23          	sw	a5,-260(s0)
80002408:	efc42783          	lw	a5,-260(s0)
8000240c:	00078513          	mv	a0,a5
80002410:	579090ef          	jal	8000c188 <__floatunsidf>
80002414:	00050793          	mv	a5,a0
80002418:	e6f43823          	sd	a5,-400(s0)
8000241c:	e7442703          	lw	a4,-396(s0)
80002420:	fe1007b7          	lui	a5,0xfe100
80002424:	00f707bb          	addw	a5,a4,a5
80002428:	0007879b          	sext.w	a5,a5
8000242c:	e6f42a23          	sw	a5,-396(s0)
80002430:	fc042783          	lw	a5,-64(s0)
80002434:	bcd7879b          	addw	a5,a5,-1075
80002438:	fcf42023          	sw	a5,-64(s0)
8000243c:	00100793          	li	a5,1
80002440:	f8f42423          	sw	a5,-120(s0)
80002444:	e7043703          	ld	a4,-400(s0)
80002448:	0000b797          	auipc	a5,0xb
8000244c:	ec878793          	addi	a5,a5,-312 # 8000d310 <puts+0x1bc>
80002450:	0007b583          	ld	a1,0(a5)
80002454:	00070513          	mv	a0,a4
80002458:	67c090ef          	jal	8000bad4 <__subdf3>
8000245c:	00050793          	mv	a5,a0
80002460:	00078713          	mv	a4,a5
80002464:	0000b797          	auipc	a5,0xb
80002468:	eb478793          	addi	a5,a5,-332 # 8000d318 <puts+0x1c4>
8000246c:	0007b583          	ld	a1,0(a5)
80002470:	00070513          	mv	a0,a4
80002474:	1dc090ef          	jal	8000b650 <__muldf3>
80002478:	00050793          	mv	a5,a0
8000247c:	00078713          	mv	a4,a5
80002480:	0000b797          	auipc	a5,0xb
80002484:	ea078793          	addi	a5,a5,-352 # 8000d320 <puts+0x1cc>
80002488:	0007b583          	ld	a1,0(a5)
8000248c:	00070513          	mv	a0,a4
80002490:	56c080ef          	jal	8000a9fc <__adddf3>
80002494:	00050793          	mv	a5,a0
80002498:	00078493          	mv	s1,a5
8000249c:	fc042783          	lw	a5,-64(s0)
800024a0:	00078513          	mv	a0,a5
800024a4:	455090ef          	jal	8000c0f8 <__floatsidf>
800024a8:	00050713          	mv	a4,a0
800024ac:	0000b797          	auipc	a5,0xb
800024b0:	e7c78793          	addi	a5,a5,-388 # 8000d328 <puts+0x1d4>
800024b4:	0007b583          	ld	a1,0(a5)
800024b8:	00070513          	mv	a0,a4
800024bc:	194090ef          	jal	8000b650 <__muldf3>
800024c0:	00050793          	mv	a5,a0
800024c4:	00078593          	mv	a1,a5
800024c8:	00048513          	mv	a0,s1
800024cc:	530080ef          	jal	8000a9fc <__adddf3>
800024d0:	00050793          	mv	a5,a0
800024d4:	f2f43c23          	sd	a5,-200(s0)
800024d8:	f3843503          	ld	a0,-200(s0)
800024dc:	39d090ef          	jal	8000c078 <__fixdfsi>
800024e0:	00050793          	mv	a5,a0
800024e4:	faf42623          	sw	a5,-84(s0)
800024e8:	00000593          	li	a1,0
800024ec:	f3843503          	ld	a0,-200(s0)
800024f0:	04c090ef          	jal	8000b53c <__ledf2>
800024f4:	00050793          	mv	a5,a0
800024f8:	0207da63          	bgez	a5,8000252c <_dtoa_r+0x4c4>
800024fc:	fac42783          	lw	a5,-84(s0)
80002500:	00078513          	mv	a0,a5
80002504:	3f5090ef          	jal	8000c0f8 <__floatsidf>
80002508:	00050793          	mv	a5,a0
8000250c:	00078593          	mv	a1,a5
80002510:	f3843503          	ld	a0,-200(s0)
80002514:	661080ef          	jal	8000b374 <__eqdf2>
80002518:	00050793          	mv	a5,a0
8000251c:	00078863          	beqz	a5,8000252c <_dtoa_r+0x4c4>
80002520:	fac42783          	lw	a5,-84(s0)
80002524:	fff7879b          	addw	a5,a5,-1
80002528:	faf42623          	sw	a5,-84(s0)
8000252c:	00100793          	li	a5,1
80002530:	faf42423          	sw	a5,-88(s0)
80002534:	fac42783          	lw	a5,-84(s0)
80002538:	0007879b          	sext.w	a5,a5
8000253c:	0407ca63          	bltz	a5,80002590 <_dtoa_r+0x528>
80002540:	fac42783          	lw	a5,-84(s0)
80002544:	0007871b          	sext.w	a4,a5
80002548:	01600793          	li	a5,22
8000254c:	04e7c263          	blt	a5,a4,80002590 <_dtoa_r+0x528>
80002550:	e8043683          	ld	a3,-384(s0)
80002554:	0000b717          	auipc	a4,0xb
80002558:	fbc70713          	addi	a4,a4,-68 # 8000d510 <__mprec_tens>
8000255c:	fac42783          	lw	a5,-84(s0)
80002560:	00379793          	slli	a5,a5,0x3
80002564:	00f707b3          	add	a5,a4,a5
80002568:	0007b783          	ld	a5,0(a5)
8000256c:	00078593          	mv	a1,a5
80002570:	00068513          	mv	a0,a3
80002574:	7c9080ef          	jal	8000b53c <__ledf2>
80002578:	00050793          	mv	a5,a0
8000257c:	0007d863          	bgez	a5,8000258c <_dtoa_r+0x524>
80002580:	fac42783          	lw	a5,-84(s0)
80002584:	fff7879b          	addw	a5,a5,-1
80002588:	faf42623          	sw	a5,-84(s0)
8000258c:	fa042423          	sw	zero,-88(s0)
80002590:	e8c42783          	lw	a5,-372(s0)
80002594:	fc042703          	lw	a4,-64(s0)
80002598:	40e787bb          	subw	a5,a5,a4
8000259c:	0007879b          	sext.w	a5,a5
800025a0:	fff7879b          	addw	a5,a5,-1
800025a4:	faf42823          	sw	a5,-80(s0)
800025a8:	fb042783          	lw	a5,-80(s0)
800025ac:	0007879b          	sext.w	a5,a5
800025b0:	0007ca63          	bltz	a5,800025c4 <_dtoa_r+0x55c>
800025b4:	fc042623          	sw	zero,-52(s0)
800025b8:	fb042783          	lw	a5,-80(s0)
800025bc:	f8f42c23          	sw	a5,-104(s0)
800025c0:	0140006f          	j	800025d4 <_dtoa_r+0x56c>
800025c4:	fb042783          	lw	a5,-80(s0)
800025c8:	40f007bb          	negw	a5,a5
800025cc:	fcf42623          	sw	a5,-52(s0)
800025d0:	f8042c23          	sw	zero,-104(s0)
800025d4:	fac42783          	lw	a5,-84(s0)
800025d8:	0007879b          	sext.w	a5,a5
800025dc:	0207c463          	bltz	a5,80002604 <_dtoa_r+0x59c>
800025e0:	fc042423          	sw	zero,-56(s0)
800025e4:	fac42783          	lw	a5,-84(s0)
800025e8:	f8f42a23          	sw	a5,-108(s0)
800025ec:	f9842783          	lw	a5,-104(s0)
800025f0:	00078713          	mv	a4,a5
800025f4:	fac42783          	lw	a5,-84(s0)
800025f8:	00f707bb          	addw	a5,a4,a5
800025fc:	f8f42c23          	sw	a5,-104(s0)
80002600:	0280006f          	j	80002628 <_dtoa_r+0x5c0>
80002604:	fcc42783          	lw	a5,-52(s0)
80002608:	00078713          	mv	a4,a5
8000260c:	fac42783          	lw	a5,-84(s0)
80002610:	40f707bb          	subw	a5,a4,a5
80002614:	fcf42623          	sw	a5,-52(s0)
80002618:	fac42783          	lw	a5,-84(s0)
8000261c:	40f007bb          	negw	a5,a5
80002620:	fcf42423          	sw	a5,-56(s0)
80002624:	f8042a23          	sw	zero,-108(s0)
80002628:	e4442783          	lw	a5,-444(s0)
8000262c:	0007879b          	sext.w	a5,a5
80002630:	0007ca63          	bltz	a5,80002644 <_dtoa_r+0x5dc>
80002634:	e4442783          	lw	a5,-444(s0)
80002638:	0007871b          	sext.w	a4,a5
8000263c:	00900793          	li	a5,9
80002640:	00e7d463          	bge	a5,a4,80002648 <_dtoa_r+0x5e0>
80002644:	e4042223          	sw	zero,-444(s0)
80002648:	00100793          	li	a5,1
8000264c:	f8f42623          	sw	a5,-116(s0)
80002650:	e4442783          	lw	a5,-444(s0)
80002654:	0007871b          	sext.w	a4,a5
80002658:	00500793          	li	a5,5
8000265c:	00e7da63          	bge	a5,a4,80002670 <_dtoa_r+0x608>
80002660:	e4442783          	lw	a5,-444(s0)
80002664:	ffc7879b          	addw	a5,a5,-4
80002668:	e4f42223          	sw	a5,-444(s0)
8000266c:	f8042623          	sw	zero,-116(s0)
80002670:	00100793          	li	a5,1
80002674:	faf42223          	sw	a5,-92(s0)
80002678:	fff00793          	li	a5,-1
8000267c:	faf42a23          	sw	a5,-76(s0)
80002680:	fb442783          	lw	a5,-76(s0)
80002684:	faf42c23          	sw	a5,-72(s0)
80002688:	e4442783          	lw	a5,-444(s0)
8000268c:	0007871b          	sext.w	a4,a5
80002690:	00500793          	li	a5,5
80002694:	0ae7ee63          	bltu	a5,a4,80002750 <_dtoa_r+0x6e8>
80002698:	e4446783          	lwu	a5,-444(s0)
8000269c:	00279713          	slli	a4,a5,0x2
800026a0:	0000b797          	auipc	a5,0xb
800026a4:	c5478793          	addi	a5,a5,-940 # 8000d2f4 <puts+0x1a0>
800026a8:	00f707b3          	add	a5,a4,a5
800026ac:	0007a783          	lw	a5,0(a5)
800026b0:	0007871b          	sext.w	a4,a5
800026b4:	0000b797          	auipc	a5,0xb
800026b8:	c4078793          	addi	a5,a5,-960 # 8000d2f4 <puts+0x1a0>
800026bc:	00f707b3          	add	a5,a4,a5
800026c0:	00078067          	jr	a5
800026c4:	01200793          	li	a5,18
800026c8:	fcf42023          	sw	a5,-64(s0)
800026cc:	e4042023          	sw	zero,-448(s0)
800026d0:	0800006f          	j	80002750 <_dtoa_r+0x6e8>
800026d4:	fa042223          	sw	zero,-92(s0)
800026d8:	e4042783          	lw	a5,-448(s0)
800026dc:	0007879b          	sext.w	a5,a5
800026e0:	00f04663          	bgtz	a5,800026ec <_dtoa_r+0x684>
800026e4:	00100793          	li	a5,1
800026e8:	e4f42023          	sw	a5,-448(s0)
800026ec:	e4042783          	lw	a5,-448(s0)
800026f0:	fcf42023          	sw	a5,-64(s0)
800026f4:	fc042783          	lw	a5,-64(s0)
800026f8:	faf42a23          	sw	a5,-76(s0)
800026fc:	fb442783          	lw	a5,-76(s0)
80002700:	faf42c23          	sw	a5,-72(s0)
80002704:	04c0006f          	j	80002750 <_dtoa_r+0x6e8>
80002708:	fa042223          	sw	zero,-92(s0)
8000270c:	e4042783          	lw	a5,-448(s0)
80002710:	00078713          	mv	a4,a5
80002714:	fac42783          	lw	a5,-84(s0)
80002718:	00f707bb          	addw	a5,a4,a5
8000271c:	0007879b          	sext.w	a5,a5
80002720:	0017879b          	addw	a5,a5,1
80002724:	fcf42023          	sw	a5,-64(s0)
80002728:	fc042783          	lw	a5,-64(s0)
8000272c:	faf42c23          	sw	a5,-72(s0)
80002730:	fc042783          	lw	a5,-64(s0)
80002734:	fff7879b          	addw	a5,a5,-1
80002738:	faf42a23          	sw	a5,-76(s0)
8000273c:	fc042783          	lw	a5,-64(s0)
80002740:	0007879b          	sext.w	a5,a5
80002744:	00f04663          	bgtz	a5,80002750 <_dtoa_r+0x6e8>
80002748:	00100793          	li	a5,1
8000274c:	fcf42023          	sw	a5,-64(s0)
80002750:	00400793          	li	a5,4
80002754:	faf42823          	sw	a5,-80(s0)
80002758:	e504278f          	lq	a5,-432(s0)
8000275c:	0707a78f          	lq	a5,112(a5)
80002760:	0007a823          	sw	zero,16(a5)
80002764:	0280006f          	j	8000278c <_dtoa_r+0x724>
80002768:	e504278f          	lq	a5,-432(s0)
8000276c:	0707a78f          	lq	a5,112(a5)
80002770:	0107a703          	lw	a4,16(a5)
80002774:	0017071b          	addw	a4,a4,1
80002778:	0007071b          	sext.w	a4,a4
8000277c:	00e7a823          	sw	a4,16(a5)
80002780:	fb042783          	lw	a5,-80(s0)
80002784:	0017979b          	sllw	a5,a5,0x1
80002788:	faf42823          	sw	a5,-80(s0)
8000278c:	fb042783          	lw	a5,-80(s0)
80002790:	02c78713          	addi	a4,a5,44
80002794:	fc042783          	lw	a5,-64(s0)
80002798:	fce7f8e3          	bgeu	a5,a4,80002768 <_ebss+0xffe01a58>
8000279c:	e504278f          	lq	a5,-432(s0)
800027a0:	0707a78f          	lq	a5,112(a5)
800027a4:	0107a783          	lw	a5,16(a5)
800027a8:	00078593          	mv	a1,a5
800027ac:	e504250f          	lq	a0,-432(s0)
800027b0:	3fd020ef          	jal	800053ac <_Balloc>
800027b4:	eea44023          	sq	a0,-288(s0)
800027b8:	ee04278f          	lq	a5,-288(s0)
800027bc:	02079063          	bnez	a5,800027dc <_dtoa_r+0x774>
800027c0:	0000b697          	auipc	a3,0xb
800027c4:	b2068693          	addi	a3,a3,-1248 # 8000d2e0 <puts+0x18c>
800027c8:	00000613          	li	a2,0
800027cc:	1af00593          	li	a1,431
800027d0:	0000b517          	auipc	a0,0xb
800027d4:	ab050513          	addi	a0,a0,-1360 # 8000d280 <puts+0x12c>
800027d8:	311020ef          	jal	800052e8 <__assert_func>
800027dc:	ee04270f          	lq	a4,-288(s0)
800027e0:	e504278f          	lq	a5,-432(s0)
800027e4:	0707a78f          	lq	a5,112(a5)
800027e8:	00e7c023          	sq	a4,0(a5)
800027ec:	e504278f          	lq	a5,-432(s0)
800027f0:	0707a78f          	lq	a5,112(a5)
800027f4:	0007a78f          	lq	a5,0(a5)
800027f8:	ecf44823          	sq	a5,-304(s0)
800027fc:	ed04278f          	lq	a5,-304(s0)
80002800:	f2f44023          	sq	a5,-224(s0)
80002804:	fb842783          	lw	a5,-72(s0)
80002808:	0007879b          	sext.w	a5,a5
8000280c:	6a07cc63          	bltz	a5,80002ec4 <_dtoa_r+0xe5c>
80002810:	fb842783          	lw	a5,-72(s0)
80002814:	0007871b          	sext.w	a4,a5
80002818:	00e00793          	li	a5,14
8000281c:	6ae7c463          	blt	a5,a4,80002ec4 <_dtoa_r+0xe5c>
80002820:	f8c42783          	lw	a5,-116(s0)
80002824:	0007879b          	sext.w	a5,a5
80002828:	68078e63          	beqz	a5,80002ec4 <_dtoa_r+0xe5c>
8000282c:	fc042023          	sw	zero,-64(s0)
80002830:	e8043783          	ld	a5,-384(s0)
80002834:	e6f43823          	sd	a5,-400(s0)
80002838:	fac42783          	lw	a5,-84(s0)
8000283c:	ecf42623          	sw	a5,-308(s0)
80002840:	fb842783          	lw	a5,-72(s0)
80002844:	ecf42423          	sw	a5,-312(s0)
80002848:	00200793          	li	a5,2
8000284c:	faf42e23          	sw	a5,-68(s0)
80002850:	fac42783          	lw	a5,-84(s0)
80002854:	0007879b          	sext.w	a5,a5
80002858:	10f05663          	blez	a5,80002964 <_dtoa_r+0x8fc>
8000285c:	fac42783          	lw	a5,-84(s0)
80002860:	00f7f793          	andi	a5,a5,15
80002864:	0007879b          	sext.w	a5,a5
80002868:	0000b717          	auipc	a4,0xb
8000286c:	ca870713          	addi	a4,a4,-856 # 8000d510 <__mprec_tens>
80002870:	00379793          	slli	a5,a5,0x3
80002874:	00f707b3          	add	a5,a4,a5
80002878:	0007b783          	ld	a5,0(a5)
8000287c:	f2f43c23          	sd	a5,-200(s0)
80002880:	fac42783          	lw	a5,-84(s0)
80002884:	4047d79b          	sraw	a5,a5,0x4
80002888:	faf42823          	sw	a5,-80(s0)
8000288c:	fb042783          	lw	a5,-80(s0)
80002890:	0107f793          	andi	a5,a5,16
80002894:	0007879b          	sext.w	a5,a5
80002898:	0a078263          	beqz	a5,8000293c <_dtoa_r+0x8d4>
8000289c:	fb042783          	lw	a5,-80(s0)
800028a0:	00f7f793          	andi	a5,a5,15
800028a4:	faf42823          	sw	a5,-80(s0)
800028a8:	e8043703          	ld	a4,-384(s0)
800028ac:	0000b797          	auipc	a5,0xb
800028b0:	d3478793          	addi	a5,a5,-716 # 8000d5e0 <__mprec_bigtens>
800028b4:	0207b783          	ld	a5,32(a5)
800028b8:	00078593          	mv	a1,a5
800028bc:	00070513          	mv	a0,a4
800028c0:	624080ef          	jal	8000aee4 <__divdf3>
800028c4:	00050793          	mv	a5,a0
800028c8:	e8f43023          	sd	a5,-384(s0)
800028cc:	fbc42783          	lw	a5,-68(s0)
800028d0:	0017879b          	addw	a5,a5,1
800028d4:	faf42e23          	sw	a5,-68(s0)
800028d8:	0640006f          	j	8000293c <_dtoa_r+0x8d4>
800028dc:	fb042783          	lw	a5,-80(s0)
800028e0:	0017f793          	andi	a5,a5,1
800028e4:	0007879b          	sext.w	a5,a5
800028e8:	02078e63          	beqz	a5,80002924 <_dtoa_r+0x8bc>
800028ec:	fbc42783          	lw	a5,-68(s0)
800028f0:	0017879b          	addw	a5,a5,1
800028f4:	faf42e23          	sw	a5,-68(s0)
800028f8:	0000b717          	auipc	a4,0xb
800028fc:	ce870713          	addi	a4,a4,-792 # 8000d5e0 <__mprec_bigtens>
80002900:	fc042783          	lw	a5,-64(s0)
80002904:	00379793          	slli	a5,a5,0x3
80002908:	00f707b3          	add	a5,a4,a5
8000290c:	0007b783          	ld	a5,0(a5)
80002910:	00078593          	mv	a1,a5
80002914:	f3843503          	ld	a0,-200(s0)
80002918:	539080ef          	jal	8000b650 <__muldf3>
8000291c:	00050793          	mv	a5,a0
80002920:	f2f43c23          	sd	a5,-200(s0)
80002924:	fb042783          	lw	a5,-80(s0)
80002928:	4017d79b          	sraw	a5,a5,0x1
8000292c:	faf42823          	sw	a5,-80(s0)
80002930:	fc042783          	lw	a5,-64(s0)
80002934:	0017879b          	addw	a5,a5,1
80002938:	fcf42023          	sw	a5,-64(s0)
8000293c:	fb042783          	lw	a5,-80(s0)
80002940:	0007879b          	sext.w	a5,a5
80002944:	f8079ce3          	bnez	a5,800028dc <_ebss+0xffe01bcc>
80002948:	e8043783          	ld	a5,-384(s0)
8000294c:	f3843583          	ld	a1,-200(s0)
80002950:	00078513          	mv	a0,a5
80002954:	590080ef          	jal	8000aee4 <__divdf3>
80002958:	00050793          	mv	a5,a0
8000295c:	e8f43023          	sd	a5,-384(s0)
80002960:	0d40006f          	j	80002a34 <_dtoa_r+0x9cc>
80002964:	fac42783          	lw	a5,-84(s0)
80002968:	40f007bb          	negw	a5,a5
8000296c:	ecf42223          	sw	a5,-316(s0)
80002970:	ec442783          	lw	a5,-316(s0)
80002974:	0007879b          	sext.w	a5,a5
80002978:	0a078e63          	beqz	a5,80002a34 <_dtoa_r+0x9cc>
8000297c:	e8043683          	ld	a3,-384(s0)
80002980:	ec442783          	lw	a5,-316(s0)
80002984:	00f7f793          	andi	a5,a5,15
80002988:	0007879b          	sext.w	a5,a5
8000298c:	0000b717          	auipc	a4,0xb
80002990:	b8470713          	addi	a4,a4,-1148 # 8000d510 <__mprec_tens>
80002994:	00379793          	slli	a5,a5,0x3
80002998:	00f707b3          	add	a5,a4,a5
8000299c:	0007b783          	ld	a5,0(a5)
800029a0:	00078593          	mv	a1,a5
800029a4:	00068513          	mv	a0,a3
800029a8:	4a9080ef          	jal	8000b650 <__muldf3>
800029ac:	00050793          	mv	a5,a0
800029b0:	e8f43023          	sd	a5,-384(s0)
800029b4:	ec442783          	lw	a5,-316(s0)
800029b8:	4047d79b          	sraw	a5,a5,0x4
800029bc:	faf42823          	sw	a5,-80(s0)
800029c0:	0680006f          	j	80002a28 <_dtoa_r+0x9c0>
800029c4:	fb042783          	lw	a5,-80(s0)
800029c8:	0017f793          	andi	a5,a5,1
800029cc:	0007879b          	sext.w	a5,a5
800029d0:	04078063          	beqz	a5,80002a10 <_dtoa_r+0x9a8>
800029d4:	fbc42783          	lw	a5,-68(s0)
800029d8:	0017879b          	addw	a5,a5,1
800029dc:	faf42e23          	sw	a5,-68(s0)
800029e0:	e8043683          	ld	a3,-384(s0)
800029e4:	0000b717          	auipc	a4,0xb
800029e8:	bfc70713          	addi	a4,a4,-1028 # 8000d5e0 <__mprec_bigtens>
800029ec:	fc042783          	lw	a5,-64(s0)
800029f0:	00379793          	slli	a5,a5,0x3
800029f4:	00f707b3          	add	a5,a4,a5
800029f8:	0007b783          	ld	a5,0(a5)
800029fc:	00078593          	mv	a1,a5
80002a00:	00068513          	mv	a0,a3
80002a04:	44d080ef          	jal	8000b650 <__muldf3>
80002a08:	00050793          	mv	a5,a0
80002a0c:	e8f43023          	sd	a5,-384(s0)
80002a10:	fb042783          	lw	a5,-80(s0)
80002a14:	4017d79b          	sraw	a5,a5,0x1
80002a18:	faf42823          	sw	a5,-80(s0)
80002a1c:	fc042783          	lw	a5,-64(s0)
80002a20:	0017879b          	addw	a5,a5,1
80002a24:	fcf42023          	sw	a5,-64(s0)
80002a28:	fb042783          	lw	a5,-80(s0)
80002a2c:	0007879b          	sext.w	a5,a5
80002a30:	f8079ae3          	bnez	a5,800029c4 <_ebss+0xffe01cb4>
80002a34:	fa842783          	lw	a5,-88(s0)
80002a38:	0007879b          	sext.w	a5,a5
80002a3c:	06078e63          	beqz	a5,80002ab8 <_dtoa_r+0xa50>
80002a40:	e8043703          	ld	a4,-384(s0)
80002a44:	0000b797          	auipc	a5,0xb
80002a48:	8ec78793          	addi	a5,a5,-1812 # 8000d330 <puts+0x1dc>
80002a4c:	0007b583          	ld	a1,0(a5)
80002a50:	00070513          	mv	a0,a4
80002a54:	2e9080ef          	jal	8000b53c <__ledf2>
80002a58:	00050793          	mv	a5,a0
80002a5c:	0407de63          	bgez	a5,80002ab8 <_dtoa_r+0xa50>
80002a60:	fb842783          	lw	a5,-72(s0)
80002a64:	0007879b          	sext.w	a5,a5
80002a68:	04f05863          	blez	a5,80002ab8 <_dtoa_r+0xa50>
80002a6c:	fb442783          	lw	a5,-76(s0)
80002a70:	0007879b          	sext.w	a5,a5
80002a74:	42f05263          	blez	a5,80002e98 <_dtoa_r+0xe30>
80002a78:	fb442783          	lw	a5,-76(s0)
80002a7c:	faf42c23          	sw	a5,-72(s0)
80002a80:	fac42783          	lw	a5,-84(s0)
80002a84:	fff7879b          	addw	a5,a5,-1
80002a88:	faf42623          	sw	a5,-84(s0)
80002a8c:	e8043703          	ld	a4,-384(s0)
80002a90:	0000b797          	auipc	a5,0xb
80002a94:	8a878793          	addi	a5,a5,-1880 # 8000d338 <puts+0x1e4>
80002a98:	0007b583          	ld	a1,0(a5)
80002a9c:	00070513          	mv	a0,a4
80002aa0:	3b1080ef          	jal	8000b650 <__muldf3>
80002aa4:	00050793          	mv	a5,a0
80002aa8:	e8f43023          	sd	a5,-384(s0)
80002aac:	fbc42783          	lw	a5,-68(s0)
80002ab0:	0017879b          	addw	a5,a5,1
80002ab4:	faf42e23          	sw	a5,-68(s0)
80002ab8:	fbc42783          	lw	a5,-68(s0)
80002abc:	00078513          	mv	a0,a5
80002ac0:	638090ef          	jal	8000c0f8 <__floatsidf>
80002ac4:	00050713          	mv	a4,a0
80002ac8:	e8043783          	ld	a5,-384(s0)
80002acc:	00078593          	mv	a1,a5
80002ad0:	00070513          	mv	a0,a4
80002ad4:	37d080ef          	jal	8000b650 <__muldf3>
80002ad8:	00050793          	mv	a5,a0
80002adc:	00078713          	mv	a4,a5
80002ae0:	0000b797          	auipc	a5,0xb
80002ae4:	86078793          	addi	a5,a5,-1952 # 8000d340 <puts+0x1ec>
80002ae8:	0007b583          	ld	a1,0(a5)
80002aec:	00070513          	mv	a0,a4
80002af0:	70d070ef          	jal	8000a9fc <__adddf3>
80002af4:	00050793          	mv	a5,a0
80002af8:	e6f43023          	sd	a5,-416(s0)
80002afc:	e6442703          	lw	a4,-412(s0)
80002b00:	fcc007b7          	lui	a5,0xfcc00
80002b04:	00f707bb          	addw	a5,a4,a5
80002b08:	0007879b          	sext.w	a5,a5
80002b0c:	e6f42223          	sw	a5,-412(s0)
80002b10:	fb842783          	lw	a5,-72(s0)
80002b14:	0007879b          	sext.w	a5,a5
80002b18:	06079e63          	bnez	a5,80002b94 <_dtoa_r+0xb2c>
80002b1c:	f4044823          	sq	zero,-176(s0)
80002b20:	f504278f          	lq	a5,-176(s0)
80002b24:	f4f44023          	sq	a5,-192(s0)
80002b28:	e8043703          	ld	a4,-384(s0)
80002b2c:	0000b797          	auipc	a5,0xb
80002b30:	81c78793          	addi	a5,a5,-2020 # 8000d348 <puts+0x1f4>
80002b34:	0007b583          	ld	a1,0(a5)
80002b38:	00070513          	mv	a0,a4
80002b3c:	799080ef          	jal	8000bad4 <__subdf3>
80002b40:	00050793          	mv	a5,a0
80002b44:	e8f43023          	sd	a5,-384(s0)
80002b48:	e8043783          	ld	a5,-384(s0)
80002b4c:	e6043703          	ld	a4,-416(s0)
80002b50:	00070593          	mv	a1,a4
80002b54:	00078513          	mv	a0,a5
80002b58:	0d5080ef          	jal	8000b42c <__gedf2>
80002b5c:	00050793          	mv	a5,a0
80002b60:	34f04ae3          	bgtz	a5,800036b4 <_dtoa_r+0x164c>
80002b64:	e8043703          	ld	a4,-384(s0)
80002b68:	e6043783          	ld	a5,-416(s0)
80002b6c:	00078693          	mv	a3,a5
80002b70:	fff00793          	li	a5,-1
80002b74:	03f79793          	slli	a5,a5,0x3f
80002b78:	00f6c7b3          	xor	a5,a3,a5
80002b7c:	00078593          	mv	a1,a5
80002b80:	00070513          	mv	a0,a4
80002b84:	1b9080ef          	jal	8000b53c <__ledf2>
80002b88:	00050793          	mv	a5,a0
80002b8c:	3007c2e3          	bltz	a5,80003690 <_dtoa_r+0x1628>
80002b90:	3140006f          	j	80002ea4 <_dtoa_r+0xe3c>
80002b94:	fa442783          	lw	a5,-92(s0)
80002b98:	0007879b          	sext.w	a5,a5
80002b9c:	16078c63          	beqz	a5,80002d14 <_dtoa_r+0xcac>
80002ba0:	fb842783          	lw	a5,-72(s0)
80002ba4:	fff7879b          	addw	a5,a5,-1
80002ba8:	0007879b          	sext.w	a5,a5
80002bac:	0000b717          	auipc	a4,0xb
80002bb0:	96470713          	addi	a4,a4,-1692 # 8000d510 <__mprec_tens>
80002bb4:	00379793          	slli	a5,a5,0x3
80002bb8:	00f707b3          	add	a5,a4,a5
80002bbc:	0007b703          	ld	a4,0(a5)
80002bc0:	0000a797          	auipc	a5,0xa
80002bc4:	79078793          	addi	a5,a5,1936 # 8000d350 <puts+0x1fc>
80002bc8:	00070593          	mv	a1,a4
80002bcc:	0007b503          	ld	a0,0(a5)
80002bd0:	314080ef          	jal	8000aee4 <__divdf3>
80002bd4:	00050793          	mv	a5,a0
80002bd8:	00078713          	mv	a4,a5
80002bdc:	e6043783          	ld	a5,-416(s0)
80002be0:	00078593          	mv	a1,a5
80002be4:	00070513          	mv	a0,a4
80002be8:	6ed080ef          	jal	8000bad4 <__subdf3>
80002bec:	00050793          	mv	a5,a0
80002bf0:	e6f43023          	sd	a5,-416(s0)
80002bf4:	fc042023          	sw	zero,-64(s0)
80002bf8:	e8043783          	ld	a5,-384(s0)
80002bfc:	00078513          	mv	a0,a5
80002c00:	478090ef          	jal	8000c078 <__fixdfsi>
80002c04:	00050793          	mv	a5,a0
80002c08:	ecf42023          	sw	a5,-320(s0)
80002c0c:	e8043483          	ld	s1,-384(s0)
80002c10:	ec042783          	lw	a5,-320(s0)
80002c14:	00078513          	mv	a0,a5
80002c18:	4e0090ef          	jal	8000c0f8 <__floatsidf>
80002c1c:	00050793          	mv	a5,a0
80002c20:	00078593          	mv	a1,a5
80002c24:	00048513          	mv	a0,s1
80002c28:	6ad080ef          	jal	8000bad4 <__subdf3>
80002c2c:	00050793          	mv	a5,a0
80002c30:	e8f43023          	sd	a5,-384(s0)
80002c34:	ec042783          	lw	a5,-320(s0)
80002c38:	0ff7f713          	zext.b	a4,a5
80002c3c:	f204278f          	lq	a5,-224(s0)
80002c40:	00178693          	addi	a3,a5,1
80002c44:	f2d44023          	sq	a3,-224(s0)
80002c48:	0307071b          	addw	a4,a4,48
80002c4c:	0ff77713          	zext.b	a4,a4
80002c50:	00e78023          	sb	a4,0(a5)
80002c54:	e8043783          	ld	a5,-384(s0)
80002c58:	e6043703          	ld	a4,-416(s0)
80002c5c:	00070593          	mv	a1,a4
80002c60:	00078513          	mv	a0,a5
80002c64:	0d9080ef          	jal	8000b53c <__ledf2>
80002c68:	00050793          	mv	a5,a0
80002c6c:	0007d463          	bgez	a5,80002c74 <_dtoa_r+0xc0c>
80002c70:	7cd0006f          	j	80003c3c <_dtoa_r+0x1bd4>
80002c74:	e8043703          	ld	a4,-384(s0)
80002c78:	0000a797          	auipc	a5,0xa
80002c7c:	6b878793          	addi	a5,a5,1720 # 8000d330 <puts+0x1dc>
80002c80:	00070593          	mv	a1,a4
80002c84:	0007b503          	ld	a0,0(a5)
80002c88:	64d080ef          	jal	8000bad4 <__subdf3>
80002c8c:	00050793          	mv	a5,a0
80002c90:	00078713          	mv	a4,a5
80002c94:	e6043783          	ld	a5,-416(s0)
80002c98:	00078593          	mv	a1,a5
80002c9c:	00070513          	mv	a0,a4
80002ca0:	09d080ef          	jal	8000b53c <__ledf2>
80002ca4:	00050793          	mv	a5,a0
80002ca8:	3a07c863          	bltz	a5,80003058 <_dtoa_r+0xff0>
80002cac:	fc042783          	lw	a5,-64(s0)
80002cb0:	0017879b          	addw	a5,a5,1
80002cb4:	fcf42023          	sw	a5,-64(s0)
80002cb8:	fc042783          	lw	a5,-64(s0)
80002cbc:	00078713          	mv	a4,a5
80002cc0:	fb842783          	lw	a5,-72(s0)
80002cc4:	0007071b          	sext.w	a4,a4
80002cc8:	0007879b          	sext.w	a5,a5
80002ccc:	1cf75a63          	bge	a4,a5,80002ea0 <_dtoa_r+0xe38>
80002cd0:	e6043703          	ld	a4,-416(s0)
80002cd4:	0000a797          	auipc	a5,0xa
80002cd8:	66478793          	addi	a5,a5,1636 # 8000d338 <puts+0x1e4>
80002cdc:	0007b583          	ld	a1,0(a5)
80002ce0:	00070513          	mv	a0,a4
80002ce4:	16d080ef          	jal	8000b650 <__muldf3>
80002ce8:	00050793          	mv	a5,a0
80002cec:	e6f43023          	sd	a5,-416(s0)
80002cf0:	e8043703          	ld	a4,-384(s0)
80002cf4:	0000a797          	auipc	a5,0xa
80002cf8:	64478793          	addi	a5,a5,1604 # 8000d338 <puts+0x1e4>
80002cfc:	0007b583          	ld	a1,0(a5)
80002d00:	00070513          	mv	a0,a4
80002d04:	14d080ef          	jal	8000b650 <__muldf3>
80002d08:	00050793          	mv	a5,a0
80002d0c:	e8f43023          	sd	a5,-384(s0)
80002d10:	ee9ff06f          	j	80002bf8 <_ebss+0xffe01ee8>
80002d14:	e6043683          	ld	a3,-416(s0)
80002d18:	fb842783          	lw	a5,-72(s0)
80002d1c:	fff7879b          	addw	a5,a5,-1
80002d20:	0007879b          	sext.w	a5,a5
80002d24:	0000a717          	auipc	a4,0xa
80002d28:	7ec70713          	addi	a4,a4,2028 # 8000d510 <__mprec_tens>
80002d2c:	00379793          	slli	a5,a5,0x3
80002d30:	00f707b3          	add	a5,a4,a5
80002d34:	0007b783          	ld	a5,0(a5)
80002d38:	00078593          	mv	a1,a5
80002d3c:	00068513          	mv	a0,a3
80002d40:	111080ef          	jal	8000b650 <__muldf3>
80002d44:	00050793          	mv	a5,a0
80002d48:	e6f43023          	sd	a5,-416(s0)
80002d4c:	00100793          	li	a5,1
80002d50:	fcf42023          	sw	a5,-64(s0)
80002d54:	e8043783          	ld	a5,-384(s0)
80002d58:	00078513          	mv	a0,a5
80002d5c:	31c090ef          	jal	8000c078 <__fixdfsi>
80002d60:	00050793          	mv	a5,a0
80002d64:	ecf42023          	sw	a5,-320(s0)
80002d68:	e8043483          	ld	s1,-384(s0)
80002d6c:	ec042783          	lw	a5,-320(s0)
80002d70:	00078513          	mv	a0,a5
80002d74:	384090ef          	jal	8000c0f8 <__floatsidf>
80002d78:	00050793          	mv	a5,a0
80002d7c:	00078593          	mv	a1,a5
80002d80:	00048513          	mv	a0,s1
80002d84:	551080ef          	jal	8000bad4 <__subdf3>
80002d88:	00050793          	mv	a5,a0
80002d8c:	e8f43023          	sd	a5,-384(s0)
80002d90:	ec042783          	lw	a5,-320(s0)
80002d94:	0ff7f713          	zext.b	a4,a5
80002d98:	f204278f          	lq	a5,-224(s0)
80002d9c:	00178693          	addi	a3,a5,1
80002da0:	f2d44023          	sq	a3,-224(s0)
80002da4:	0307071b          	addw	a4,a4,48
80002da8:	0ff77713          	zext.b	a4,a4
80002dac:	00e78023          	sb	a4,0(a5)
80002db0:	fc042783          	lw	a5,-64(s0)
80002db4:	00078713          	mv	a4,a5
80002db8:	fb842783          	lw	a5,-72(s0)
80002dbc:	0007071b          	sext.w	a4,a4
80002dc0:	0007879b          	sext.w	a5,a5
80002dc4:	0af71263          	bne	a4,a5,80002e68 <_dtoa_r+0xe00>
80002dc8:	e8043483          	ld	s1,-384(s0)
80002dcc:	e6043703          	ld	a4,-416(s0)
80002dd0:	0000a797          	auipc	a5,0xa
80002dd4:	58078793          	addi	a5,a5,1408 # 8000d350 <puts+0x1fc>
80002dd8:	0007b583          	ld	a1,0(a5)
80002ddc:	00070513          	mv	a0,a4
80002de0:	41d070ef          	jal	8000a9fc <__adddf3>
80002de4:	00050793          	mv	a5,a0
80002de8:	00078593          	mv	a1,a5
80002dec:	00048513          	mv	a0,s1
80002df0:	63c080ef          	jal	8000b42c <__gedf2>
80002df4:	00050793          	mv	a5,a0
80002df8:	26f04463          	bgtz	a5,80003060 <_dtoa_r+0xff8>
80002dfc:	e8043483          	ld	s1,-384(s0)
80002e00:	e6043703          	ld	a4,-416(s0)
80002e04:	0000a797          	auipc	a5,0xa
80002e08:	54c78793          	addi	a5,a5,1356 # 8000d350 <puts+0x1fc>
80002e0c:	00070593          	mv	a1,a4
80002e10:	0007b503          	ld	a0,0(a5)
80002e14:	4c1080ef          	jal	8000bad4 <__subdf3>
80002e18:	00050793          	mv	a5,a0
80002e1c:	00078593          	mv	a1,a5
80002e20:	00048513          	mv	a0,s1
80002e24:	718080ef          	jal	8000b53c <__ledf2>
80002e28:	00050793          	mv	a5,a0
80002e2c:	0007c463          	bltz	a5,80002e34 <_dtoa_r+0xdcc>
80002e30:	0740006f          	j	80002ea4 <_dtoa_r+0xe3c>
80002e34:	00000013          	nop
80002e38:	f204278f          	lq	a5,-224(s0)
80002e3c:	fff78793          	addi	a5,a5,-1
80002e40:	f2f44023          	sq	a5,-224(s0)
80002e44:	f204278f          	lq	a5,-224(s0)
80002e48:	0007c783          	lbu	a5,0(a5)
80002e4c:	00078713          	mv	a4,a5
80002e50:	03000793          	li	a5,48
80002e54:	fef702e3          	beq	a4,a5,80002e38 <_ebss+0xffe02128>
80002e58:	f204278f          	lq	a5,-224(s0)
80002e5c:	00178793          	addi	a5,a5,1
80002e60:	f2f44023          	sq	a5,-224(s0)
80002e64:	5e50006f          	j	80003c48 <_dtoa_r+0x1be0>
80002e68:	fc042783          	lw	a5,-64(s0)
80002e6c:	0017879b          	addw	a5,a5,1
80002e70:	fcf42023          	sw	a5,-64(s0)
80002e74:	e8043703          	ld	a4,-384(s0)
80002e78:	0000a797          	auipc	a5,0xa
80002e7c:	4c078793          	addi	a5,a5,1216 # 8000d338 <puts+0x1e4>
80002e80:	0007b583          	ld	a1,0(a5)
80002e84:	00070513          	mv	a0,a4
80002e88:	7c8080ef          	jal	8000b650 <__muldf3>
80002e8c:	00050793          	mv	a5,a0
80002e90:	e8f43023          	sd	a5,-384(s0)
80002e94:	ec1ff06f          	j	80002d54 <_ebss+0xffe02044>
80002e98:	00000013          	nop
80002e9c:	0080006f          	j	80002ea4 <_dtoa_r+0xe3c>
80002ea0:	00000013          	nop
80002ea4:	ed04278f          	lq	a5,-304(s0)
80002ea8:	f2f44023          	sq	a5,-224(s0)
80002eac:	e7043783          	ld	a5,-400(s0)
80002eb0:	e8f43023          	sd	a5,-384(s0)
80002eb4:	ecc42783          	lw	a5,-308(s0)
80002eb8:	faf42623          	sw	a5,-84(s0)
80002ebc:	ec842783          	lw	a5,-312(s0)
80002ec0:	faf42c23          	sw	a5,-72(s0)
80002ec4:	e8842783          	lw	a5,-376(s0)
80002ec8:	2607c463          	bltz	a5,80003130 <_dtoa_r+0x10c8>
80002ecc:	fac42783          	lw	a5,-84(s0)
80002ed0:	0007871b          	sext.w	a4,a5
80002ed4:	00e00793          	li	a5,14
80002ed8:	24e7cc63          	blt	a5,a4,80003130 <_dtoa_r+0x10c8>
80002edc:	0000a717          	auipc	a4,0xa
80002ee0:	63470713          	addi	a4,a4,1588 # 8000d510 <__mprec_tens>
80002ee4:	fac42783          	lw	a5,-84(s0)
80002ee8:	00379793          	slli	a5,a5,0x3
80002eec:	00f707b3          	add	a5,a4,a5
80002ef0:	0007b783          	ld	a5,0(a5)
80002ef4:	f2f43c23          	sd	a5,-200(s0)
80002ef8:	e4042783          	lw	a5,-448(s0)
80002efc:	0007879b          	sext.w	a5,a5
80002f00:	0407de63          	bgez	a5,80002f5c <_dtoa_r+0xef4>
80002f04:	fb842783          	lw	a5,-72(s0)
80002f08:	0007879b          	sext.w	a5,a5
80002f0c:	04f04863          	bgtz	a5,80002f5c <_dtoa_r+0xef4>
80002f10:	f4044823          	sq	zero,-176(s0)
80002f14:	f504278f          	lq	a5,-176(s0)
80002f18:	f4f44023          	sq	a5,-192(s0)
80002f1c:	fb842783          	lw	a5,-72(s0)
80002f20:	0007879b          	sext.w	a5,a5
80002f24:	7607ca63          	bltz	a5,80003698 <_dtoa_r+0x1630>
80002f28:	e8043483          	ld	s1,-384(s0)
80002f2c:	0000a797          	auipc	a5,0xa
80002f30:	41c78793          	addi	a5,a5,1052 # 8000d348 <puts+0x1f4>
80002f34:	0007b583          	ld	a1,0(a5)
80002f38:	f3843503          	ld	a0,-200(s0)
80002f3c:	714080ef          	jal	8000b650 <__muldf3>
80002f40:	00050793          	mv	a5,a0
80002f44:	00078593          	mv	a1,a5
80002f48:	00048513          	mv	a0,s1
80002f4c:	5f0080ef          	jal	8000b53c <__ledf2>
80002f50:	00050793          	mv	a5,a0
80002f54:	74f05263          	blez	a5,80003698 <_dtoa_r+0x1630>
80002f58:	7680006f          	j	800036c0 <_dtoa_r+0x1658>
80002f5c:	00100793          	li	a5,1
80002f60:	fcf42023          	sw	a5,-64(s0)
80002f64:	e8043783          	ld	a5,-384(s0)
80002f68:	f3843583          	ld	a1,-200(s0)
80002f6c:	00078513          	mv	a0,a5
80002f70:	775070ef          	jal	8000aee4 <__divdf3>
80002f74:	00050793          	mv	a5,a0
80002f78:	00078513          	mv	a0,a5
80002f7c:	0fc090ef          	jal	8000c078 <__fixdfsi>
80002f80:	00050793          	mv	a5,a0
80002f84:	ecf42023          	sw	a5,-320(s0)
80002f88:	e8043483          	ld	s1,-384(s0)
80002f8c:	ec042783          	lw	a5,-320(s0)
80002f90:	00078513          	mv	a0,a5
80002f94:	164090ef          	jal	8000c0f8 <__floatsidf>
80002f98:	00050793          	mv	a5,a0
80002f9c:	f3843583          	ld	a1,-200(s0)
80002fa0:	00078513          	mv	a0,a5
80002fa4:	6ac080ef          	jal	8000b650 <__muldf3>
80002fa8:	00050793          	mv	a5,a0
80002fac:	00078593          	mv	a1,a5
80002fb0:	00048513          	mv	a0,s1
80002fb4:	321080ef          	jal	8000bad4 <__subdf3>
80002fb8:	00050793          	mv	a5,a0
80002fbc:	e8f43023          	sd	a5,-384(s0)
80002fc0:	ec042783          	lw	a5,-320(s0)
80002fc4:	0ff7f713          	zext.b	a4,a5
80002fc8:	f204278f          	lq	a5,-224(s0)
80002fcc:	00178693          	addi	a3,a5,1
80002fd0:	f2d44023          	sq	a3,-224(s0)
80002fd4:	0307071b          	addw	a4,a4,48
80002fd8:	0ff77713          	zext.b	a4,a4
80002fdc:	00e78023          	sb	a4,0(a5)
80002fe0:	fc042783          	lw	a5,-64(s0)
80002fe4:	00078713          	mv	a4,a5
80002fe8:	fb842783          	lw	a5,-72(s0)
80002fec:	0007071b          	sext.w	a4,a4
80002ff0:	0007879b          	sext.w	a5,a5
80002ff4:	0ef71263          	bne	a4,a5,800030d8 <_dtoa_r+0x1070>
80002ff8:	e8043783          	ld	a5,-384(s0)
80002ffc:	00078593          	mv	a1,a5
80003000:	00078513          	mv	a0,a5
80003004:	1f9070ef          	jal	8000a9fc <__adddf3>
80003008:	00050793          	mv	a5,a0
8000300c:	e8f43023          	sd	a5,-384(s0)
80003010:	e8043783          	ld	a5,-384(s0)
80003014:	00078593          	mv	a1,a5
80003018:	f3843503          	ld	a0,-200(s0)
8000301c:	520080ef          	jal	8000b53c <__ledf2>
80003020:	00050793          	mv	a5,a0
80003024:	0407c263          	bltz	a5,80003068 <_dtoa_r+0x1000>
80003028:	e8043783          	ld	a5,-384(s0)
8000302c:	00078593          	mv	a1,a5
80003030:	f3843503          	ld	a0,-200(s0)
80003034:	340080ef          	jal	8000b374 <__eqdf2>
80003038:	00050793          	mv	a5,a0
8000303c:	00078463          	beqz	a5,80003044 <_dtoa_r+0xfdc>
80003040:	0e00006f          	j	80003120 <_dtoa_r+0x10b8>
80003044:	ec042783          	lw	a5,-320(s0)
80003048:	0017f793          	andi	a5,a5,1
8000304c:	0007879b          	sext.w	a5,a5
80003050:	0c078863          	beqz	a5,80003120 <_dtoa_r+0x10b8>
80003054:	0140006f          	j	80003068 <_dtoa_r+0x1000>
80003058:	00000013          	nop
8000305c:	03c0006f          	j	80003098 <_dtoa_r+0x1030>
80003060:	00000013          	nop
80003064:	0340006f          	j	80003098 <_dtoa_r+0x1030>
80003068:	00000013          	nop
8000306c:	02c0006f          	j	80003098 <_dtoa_r+0x1030>
80003070:	f204270f          	lq	a4,-224(s0)
80003074:	ed04278f          	lq	a5,-304(s0)
80003078:	02f71063          	bne	a4,a5,80003098 <_dtoa_r+0x1030>
8000307c:	fac42783          	lw	a5,-84(s0)
80003080:	0017879b          	addw	a5,a5,1
80003084:	faf42623          	sw	a5,-84(s0)
80003088:	f204278f          	lq	a5,-224(s0)
8000308c:	03000713          	li	a4,48
80003090:	00e78023          	sb	a4,0(a5)
80003094:	0240006f          	j	800030b8 <_dtoa_r+0x1050>
80003098:	f204278f          	lq	a5,-224(s0)
8000309c:	fff78793          	addi	a5,a5,-1
800030a0:	f2f44023          	sq	a5,-224(s0)
800030a4:	f204278f          	lq	a5,-224(s0)
800030a8:	0007c783          	lbu	a5,0(a5)
800030ac:	00078713          	mv	a4,a5
800030b0:	03900793          	li	a5,57
800030b4:	faf70ee3          	beq	a4,a5,80003070 <_ebss+0xffe02360>
800030b8:	f204278f          	lq	a5,-224(s0)
800030bc:	00178713          	addi	a4,a5,1
800030c0:	f2e44023          	sq	a4,-224(s0)
800030c4:	0007c703          	lbu	a4,0(a5)
800030c8:	0017071b          	addw	a4,a4,1
800030cc:	0ff77713          	zext.b	a4,a4
800030d0:	00e78023          	sb	a4,0(a5)
800030d4:	04c0006f          	j	80003120 <_dtoa_r+0x10b8>
800030d8:	e8043703          	ld	a4,-384(s0)
800030dc:	0000a797          	auipc	a5,0xa
800030e0:	25c78793          	addi	a5,a5,604 # 8000d338 <puts+0x1e4>
800030e4:	0007b583          	ld	a1,0(a5)
800030e8:	00070513          	mv	a0,a4
800030ec:	564080ef          	jal	8000b650 <__muldf3>
800030f0:	00050793          	mv	a5,a0
800030f4:	e8f43023          	sd	a5,-384(s0)
800030f8:	e8043783          	ld	a5,-384(s0)
800030fc:	00000593          	li	a1,0
80003100:	00078513          	mv	a0,a5
80003104:	270080ef          	jal	8000b374 <__eqdf2>
80003108:	00050793          	mv	a5,a0
8000310c:	00078e63          	beqz	a5,80003128 <_dtoa_r+0x10c0>
80003110:	fc042783          	lw	a5,-64(s0)
80003114:	0017879b          	addw	a5,a5,1
80003118:	fcf42023          	sw	a5,-64(s0)
8000311c:	e49ff06f          	j	80002f64 <_ebss+0xffe02254>
80003120:	00000013          	nop
80003124:	3250006f          	j	80003c48 <_dtoa_r+0x1be0>
80003128:	00000013          	nop
8000312c:	31d0006f          	j	80003c48 <_dtoa_r+0x1be0>
80003130:	fcc42783          	lw	a5,-52(s0)
80003134:	faf42023          	sw	a5,-96(s0)
80003138:	fc842783          	lw	a5,-56(s0)
8000313c:	f8f42e23          	sw	a5,-100(s0)
80003140:	f6044023          	sq	zero,-160(s0)
80003144:	f604278f          	lq	a5,-160(s0)
80003148:	f4f44823          	sq	a5,-176(s0)
8000314c:	fa442783          	lw	a5,-92(s0)
80003150:	0007879b          	sext.w	a5,a5
80003154:	12078263          	beqz	a5,80003278 <_dtoa_r+0x1210>
80003158:	e4442783          	lw	a5,-444(s0)
8000315c:	0007871b          	sext.w	a4,a5
80003160:	00100793          	li	a5,1
80003164:	02e7cc63          	blt	a5,a4,8000319c <_dtoa_r+0x1134>
80003168:	f8842783          	lw	a5,-120(s0)
8000316c:	0007879b          	sext.w	a5,a5
80003170:	00078a63          	beqz	a5,80003184 <_dtoa_r+0x111c>
80003174:	e8842783          	lw	a5,-376(s0)
80003178:	4337879b          	addw	a5,a5,1075
8000317c:	0007879b          	sext.w	a5,a5
80003180:	0140006f          	j	80003194 <_dtoa_r+0x112c>
80003184:	e8c42783          	lw	a5,-372(s0)
80003188:	03600713          	li	a4,54
8000318c:	40f707bb          	subw	a5,a4,a5
80003190:	0007879b          	sext.w	a5,a5
80003194:	fcf42023          	sw	a5,-64(s0)
80003198:	0a80006f          	j	80003240 <_dtoa_r+0x11d8>
8000319c:	fb842783          	lw	a5,-72(s0)
800031a0:	fff7879b          	addw	a5,a5,-1
800031a4:	faf42823          	sw	a5,-80(s0)
800031a8:	f9c42783          	lw	a5,-100(s0)
800031ac:	00078713          	mv	a4,a5
800031b0:	fb042783          	lw	a5,-80(s0)
800031b4:	0007071b          	sext.w	a4,a4
800031b8:	0007879b          	sext.w	a5,a5
800031bc:	00f74e63          	blt	a4,a5,800031d8 <_dtoa_r+0x1170>
800031c0:	f9c42783          	lw	a5,-100(s0)
800031c4:	00078713          	mv	a4,a5
800031c8:	fb042783          	lw	a5,-80(s0)
800031cc:	40f707bb          	subw	a5,a4,a5
800031d0:	f8f42e23          	sw	a5,-100(s0)
800031d4:	0400006f          	j	80003214 <_dtoa_r+0x11ac>
800031d8:	fb042783          	lw	a5,-80(s0)
800031dc:	00078713          	mv	a4,a5
800031e0:	f9c42783          	lw	a5,-100(s0)
800031e4:	40f707bb          	subw	a5,a4,a5
800031e8:	faf42823          	sw	a5,-80(s0)
800031ec:	fb042783          	lw	a5,-80(s0)
800031f0:	f9442703          	lw	a4,-108(s0)
800031f4:	00f707bb          	addw	a5,a4,a5
800031f8:	f8f42a23          	sw	a5,-108(s0)
800031fc:	fc842783          	lw	a5,-56(s0)
80003200:	00078713          	mv	a4,a5
80003204:	fb042783          	lw	a5,-80(s0)
80003208:	00f707bb          	addw	a5,a4,a5
8000320c:	fcf42423          	sw	a5,-56(s0)
80003210:	f8042e23          	sw	zero,-100(s0)
80003214:	fb842783          	lw	a5,-72(s0)
80003218:	fcf42023          	sw	a5,-64(s0)
8000321c:	fc042783          	lw	a5,-64(s0)
80003220:	0007879b          	sext.w	a5,a5
80003224:	0007de63          	bgez	a5,80003240 <_dtoa_r+0x11d8>
80003228:	fa042783          	lw	a5,-96(s0)
8000322c:	00078713          	mv	a4,a5
80003230:	fc042783          	lw	a5,-64(s0)
80003234:	40f707bb          	subw	a5,a4,a5
80003238:	faf42023          	sw	a5,-96(s0)
8000323c:	fc042023          	sw	zero,-64(s0)
80003240:	fcc42783          	lw	a5,-52(s0)
80003244:	00078713          	mv	a4,a5
80003248:	fc042783          	lw	a5,-64(s0)
8000324c:	00f707bb          	addw	a5,a4,a5
80003250:	fcf42623          	sw	a5,-52(s0)
80003254:	f9842783          	lw	a5,-104(s0)
80003258:	00078713          	mv	a4,a5
8000325c:	fc042783          	lw	a5,-64(s0)
80003260:	00f707bb          	addw	a5,a4,a5
80003264:	f8f42c23          	sw	a5,-104(s0)
80003268:	00100593          	li	a1,1
8000326c:	e504250f          	lq	a0,-432(s0)
80003270:	25d020ef          	jal	80005ccc <__i2b>
80003274:	f4a44823          	sq	a0,-176(s0)
80003278:	fa042783          	lw	a5,-96(s0)
8000327c:	0007879b          	sext.w	a5,a5
80003280:	06f05663          	blez	a5,800032ec <_dtoa_r+0x1284>
80003284:	f9842783          	lw	a5,-104(s0)
80003288:	0007879b          	sext.w	a5,a5
8000328c:	06f05063          	blez	a5,800032ec <_dtoa_r+0x1284>
80003290:	fa042783          	lw	a5,-96(s0)
80003294:	00078613          	mv	a2,a5
80003298:	f9842783          	lw	a5,-104(s0)
8000329c:	0007869b          	sext.w	a3,a5
800032a0:	0006071b          	sext.w	a4,a2
800032a4:	00d75463          	bge	a4,a3,800032ac <_dtoa_r+0x1244>
800032a8:	00060793          	mv	a5,a2
800032ac:	fcf42023          	sw	a5,-64(s0)
800032b0:	fcc42783          	lw	a5,-52(s0)
800032b4:	00078713          	mv	a4,a5
800032b8:	fc042783          	lw	a5,-64(s0)
800032bc:	40f707bb          	subw	a5,a4,a5
800032c0:	fcf42623          	sw	a5,-52(s0)
800032c4:	fa042783          	lw	a5,-96(s0)
800032c8:	00078713          	mv	a4,a5
800032cc:	fc042783          	lw	a5,-64(s0)
800032d0:	40f707bb          	subw	a5,a4,a5
800032d4:	faf42023          	sw	a5,-96(s0)
800032d8:	f9842783          	lw	a5,-104(s0)
800032dc:	00078713          	mv	a4,a5
800032e0:	fc042783          	lw	a5,-64(s0)
800032e4:	40f707bb          	subw	a5,a4,a5
800032e8:	f8f42c23          	sw	a5,-104(s0)
800032ec:	fc842783          	lw	a5,-56(s0)
800032f0:	0007879b          	sext.w	a5,a5
800032f4:	0af05863          	blez	a5,800033a4 <_dtoa_r+0x133c>
800032f8:	fa442783          	lw	a5,-92(s0)
800032fc:	0007879b          	sext.w	a5,a5
80003300:	08078663          	beqz	a5,8000338c <_dtoa_r+0x1324>
80003304:	f9c42783          	lw	a5,-100(s0)
80003308:	0007879b          	sext.w	a5,a5
8000330c:	04f05263          	blez	a5,80003350 <_dtoa_r+0x12e8>
80003310:	f9c42783          	lw	a5,-100(s0)
80003314:	00078613          	mv	a2,a5
80003318:	f504258f          	lq	a1,-176(s0)
8000331c:	e504250f          	lq	a0,-432(s0)
80003320:	6dd020ef          	jal	800061fc <__pow5mult>
80003324:	f4a44823          	sq	a0,-176(s0)
80003328:	f704260f          	lq	a2,-144(s0)
8000332c:	f504258f          	lq	a1,-176(s0)
80003330:	e504250f          	lq	a0,-432(s0)
80003334:	221020ef          	jal	80005d54 <__multiply>
80003338:	eaa44823          	sq	a0,-336(s0)
8000333c:	f704258f          	lq	a1,-144(s0)
80003340:	e504250f          	lq	a0,-432(s0)
80003344:	248020ef          	jal	8000558c <_Bfree>
80003348:	eb04278f          	lq	a5,-336(s0)
8000334c:	f6f44823          	sq	a5,-144(s0)
80003350:	fc842783          	lw	a5,-56(s0)
80003354:	00078713          	mv	a4,a5
80003358:	f9c42783          	lw	a5,-100(s0)
8000335c:	40f707bb          	subw	a5,a4,a5
80003360:	faf42823          	sw	a5,-80(s0)
80003364:	fb042783          	lw	a5,-80(s0)
80003368:	0007879b          	sext.w	a5,a5
8000336c:	02078c63          	beqz	a5,800033a4 <_dtoa_r+0x133c>
80003370:	fb042783          	lw	a5,-80(s0)
80003374:	00078613          	mv	a2,a5
80003378:	f704258f          	lq	a1,-144(s0)
8000337c:	e504250f          	lq	a0,-432(s0)
80003380:	67d020ef          	jal	800061fc <__pow5mult>
80003384:	f6a44823          	sq	a0,-144(s0)
80003388:	01c0006f          	j	800033a4 <_dtoa_r+0x133c>
8000338c:	fc842783          	lw	a5,-56(s0)
80003390:	00078613          	mv	a2,a5
80003394:	f704258f          	lq	a1,-144(s0)
80003398:	e504250f          	lq	a0,-432(s0)
8000339c:	661020ef          	jal	800061fc <__pow5mult>
800033a0:	f6a44823          	sq	a0,-144(s0)
800033a4:	00100593          	li	a1,1
800033a8:	e504250f          	lq	a0,-432(s0)
800033ac:	121020ef          	jal	80005ccc <__i2b>
800033b0:	f4a44023          	sq	a0,-192(s0)
800033b4:	f9442783          	lw	a5,-108(s0)
800033b8:	0007879b          	sext.w	a5,a5
800033bc:	00f05e63          	blez	a5,800033d8 <_dtoa_r+0x1370>
800033c0:	f9442783          	lw	a5,-108(s0)
800033c4:	00078613          	mv	a2,a5
800033c8:	f404258f          	lq	a1,-192(s0)
800033cc:	e504250f          	lq	a0,-432(s0)
800033d0:	62d020ef          	jal	800061fc <__pow5mult>
800033d4:	f4a44023          	sq	a0,-192(s0)
800033d8:	f8042823          	sw	zero,-112(s0)
800033dc:	e4442783          	lw	a5,-444(s0)
800033e0:	0007871b          	sext.w	a4,a5
800033e4:	00100793          	li	a5,1
800033e8:	06e7c063          	blt	a5,a4,80003448 <_dtoa_r+0x13e0>
800033ec:	e8042783          	lw	a5,-384(s0)
800033f0:	04079c63          	bnez	a5,80003448 <_dtoa_r+0x13e0>
800033f4:	e8442783          	lw	a5,-380(s0)
800033f8:	00078713          	mv	a4,a5
800033fc:	001007b7          	lui	a5,0x100
80003400:	fff78793          	addi	a5,a5,-1 # fffff <UART_BASE-0xff00001>
80003404:	00f777b3          	and	a5,a4,a5
80003408:	0007879b          	sext.w	a5,a5
8000340c:	02079e63          	bnez	a5,80003448 <_dtoa_r+0x13e0>
80003410:	e8442783          	lw	a5,-380(s0)
80003414:	00078713          	mv	a4,a5
80003418:	7ff007b7          	lui	a5,0x7ff00
8000341c:	00f777b3          	and	a5,a4,a5
80003420:	0007879b          	sext.w	a5,a5
80003424:	02078263          	beqz	a5,80003448 <_dtoa_r+0x13e0>
80003428:	fcc42783          	lw	a5,-52(s0)
8000342c:	0017879b          	addw	a5,a5,1
80003430:	fcf42623          	sw	a5,-52(s0)
80003434:	f9842783          	lw	a5,-104(s0)
80003438:	0017879b          	addw	a5,a5,1
8000343c:	f8f42c23          	sw	a5,-104(s0)
80003440:	00100793          	li	a5,1
80003444:	f8f42823          	sw	a5,-112(s0)
80003448:	f9442783          	lw	a5,-108(s0)
8000344c:	0007879b          	sext.w	a5,a5
80003450:	04078463          	beqz	a5,80003498 <_dtoa_r+0x1430>
80003454:	f404278f          	lq	a5,-192(s0)
80003458:	01c7a783          	lw	a5,28(a5) # 7ff0001c <UART_BASE+0x6ff0001c>
8000345c:	fff7879b          	addw	a5,a5,-1
80003460:	0007879b          	sext.w	a5,a5
80003464:	f404270f          	lq	a4,-192(s0)
80003468:	00878793          	addi	a5,a5,8
8000346c:	00279793          	slli	a5,a5,0x2
80003470:	00f707b3          	add	a5,a4,a5
80003474:	0007a783          	lw	a5,0(a5)
80003478:	00078513          	mv	a0,a5
8000347c:	628020ef          	jal	80005aa4 <__hi0bits>
80003480:	00050793          	mv	a5,a0
80003484:	00078713          	mv	a4,a5
80003488:	02000793          	li	a5,32
8000348c:	40e787bb          	subw	a5,a5,a4
80003490:	0007879b          	sext.w	a5,a5
80003494:	0080006f          	j	8000349c <_dtoa_r+0x1434>
80003498:	00100793          	li	a5,1
8000349c:	f9842703          	lw	a4,-104(s0)
800034a0:	00f707bb          	addw	a5,a4,a5
800034a4:	0007879b          	sext.w	a5,a5
800034a8:	01f7f793          	andi	a5,a5,31
800034ac:	fcf42023          	sw	a5,-64(s0)
800034b0:	fc042783          	lw	a5,-64(s0)
800034b4:	0007879b          	sext.w	a5,a5
800034b8:	00078a63          	beqz	a5,800034cc <_dtoa_r+0x1464>
800034bc:	02000793          	li	a5,32
800034c0:	fc042703          	lw	a4,-64(s0)
800034c4:	40e787bb          	subw	a5,a5,a4
800034c8:	fcf42023          	sw	a5,-64(s0)
800034cc:	fc042783          	lw	a5,-64(s0)
800034d0:	0007871b          	sext.w	a4,a5
800034d4:	00400793          	li	a5,4
800034d8:	04e7d863          	bge	a5,a4,80003528 <_dtoa_r+0x14c0>
800034dc:	fc042783          	lw	a5,-64(s0)
800034e0:	ffc7879b          	addw	a5,a5,-4
800034e4:	fcf42023          	sw	a5,-64(s0)
800034e8:	fcc42783          	lw	a5,-52(s0)
800034ec:	00078713          	mv	a4,a5
800034f0:	fc042783          	lw	a5,-64(s0)
800034f4:	00f707bb          	addw	a5,a4,a5
800034f8:	fcf42623          	sw	a5,-52(s0)
800034fc:	fa042783          	lw	a5,-96(s0)
80003500:	00078713          	mv	a4,a5
80003504:	fc042783          	lw	a5,-64(s0)
80003508:	00f707bb          	addw	a5,a4,a5
8000350c:	faf42023          	sw	a5,-96(s0)
80003510:	f9842783          	lw	a5,-104(s0)
80003514:	00078713          	mv	a4,a5
80003518:	fc042783          	lw	a5,-64(s0)
8000351c:	00f707bb          	addw	a5,a4,a5
80003520:	f8f42c23          	sw	a5,-104(s0)
80003524:	05c0006f          	j	80003580 <_dtoa_r+0x1518>
80003528:	fc042783          	lw	a5,-64(s0)
8000352c:	0007871b          	sext.w	a4,a5
80003530:	00300793          	li	a5,3
80003534:	04e7c663          	blt	a5,a4,80003580 <_dtoa_r+0x1518>
80003538:	fc042783          	lw	a5,-64(s0)
8000353c:	01c7879b          	addw	a5,a5,28
80003540:	fcf42023          	sw	a5,-64(s0)
80003544:	fcc42783          	lw	a5,-52(s0)
80003548:	00078713          	mv	a4,a5
8000354c:	fc042783          	lw	a5,-64(s0)
80003550:	00f707bb          	addw	a5,a4,a5
80003554:	fcf42623          	sw	a5,-52(s0)
80003558:	fa042783          	lw	a5,-96(s0)
8000355c:	00078713          	mv	a4,a5
80003560:	fc042783          	lw	a5,-64(s0)
80003564:	00f707bb          	addw	a5,a4,a5
80003568:	faf42023          	sw	a5,-96(s0)
8000356c:	f9842783          	lw	a5,-104(s0)
80003570:	00078713          	mv	a4,a5
80003574:	fc042783          	lw	a5,-64(s0)
80003578:	00f707bb          	addw	a5,a4,a5
8000357c:	f8f42c23          	sw	a5,-104(s0)
80003580:	fcc42783          	lw	a5,-52(s0)
80003584:	0007879b          	sext.w	a5,a5
80003588:	00f05e63          	blez	a5,800035a4 <_dtoa_r+0x153c>
8000358c:	fcc42783          	lw	a5,-52(s0)
80003590:	00078613          	mv	a2,a5
80003594:	f704258f          	lq	a1,-144(s0)
80003598:	e504250f          	lq	a0,-432(s0)
8000359c:	689020ef          	jal	80006424 <__lshift>
800035a0:	f6a44823          	sq	a0,-144(s0)
800035a4:	f9842783          	lw	a5,-104(s0)
800035a8:	0007879b          	sext.w	a5,a5
800035ac:	00f05e63          	blez	a5,800035c8 <_dtoa_r+0x1560>
800035b0:	f9842783          	lw	a5,-104(s0)
800035b4:	00078613          	mv	a2,a5
800035b8:	f404258f          	lq	a1,-192(s0)
800035bc:	e504250f          	lq	a0,-432(s0)
800035c0:	665020ef          	jal	80006424 <__lshift>
800035c4:	f4a44023          	sq	a0,-192(s0)
800035c8:	fa842783          	lw	a5,-88(s0)
800035cc:	0007879b          	sext.w	a5,a5
800035d0:	06078463          	beqz	a5,80003638 <_dtoa_r+0x15d0>
800035d4:	f404258f          	lq	a1,-192(s0)
800035d8:	f704250f          	lq	a0,-144(s0)
800035dc:	0a0030ef          	jal	8000667c <__mcmp>
800035e0:	00050793          	mv	a5,a0
800035e4:	0407da63          	bgez	a5,80003638 <_dtoa_r+0x15d0>
800035e8:	fac42783          	lw	a5,-84(s0)
800035ec:	fff7879b          	addw	a5,a5,-1
800035f0:	faf42623          	sw	a5,-84(s0)
800035f4:	00000693          	li	a3,0
800035f8:	00a00613          	li	a2,10
800035fc:	f704258f          	lq	a1,-144(s0)
80003600:	e504250f          	lq	a0,-432(s0)
80003604:	098020ef          	jal	8000569c <__multadd>
80003608:	f6a44823          	sq	a0,-144(s0)
8000360c:	fa442783          	lw	a5,-92(s0)
80003610:	0007879b          	sext.w	a5,a5
80003614:	00078e63          	beqz	a5,80003630 <_dtoa_r+0x15c8>
80003618:	00000693          	li	a3,0
8000361c:	00a00613          	li	a2,10
80003620:	f504258f          	lq	a1,-176(s0)
80003624:	e504250f          	lq	a0,-432(s0)
80003628:	074020ef          	jal	8000569c <__multadd>
8000362c:	f4a44823          	sq	a0,-176(s0)
80003630:	fb442783          	lw	a5,-76(s0)
80003634:	faf42c23          	sw	a5,-72(s0)
80003638:	fb842783          	lw	a5,-72(s0)
8000363c:	0007879b          	sext.w	a5,a5
80003640:	0af04263          	bgtz	a5,800036e4 <_dtoa_r+0x167c>
80003644:	e4442783          	lw	a5,-444(s0)
80003648:	0007871b          	sext.w	a4,a5
8000364c:	00200793          	li	a5,2
80003650:	08e7da63          	bge	a5,a4,800036e4 <_dtoa_r+0x167c>
80003654:	fb842783          	lw	a5,-72(s0)
80003658:	0007879b          	sext.w	a5,a5
8000365c:	0407c263          	bltz	a5,800036a0 <_dtoa_r+0x1638>
80003660:	00000693          	li	a3,0
80003664:	00500613          	li	a2,5
80003668:	f404258f          	lq	a1,-192(s0)
8000366c:	e504250f          	lq	a0,-432(s0)
80003670:	02c020ef          	jal	8000569c <__multadd>
80003674:	f4a44023          	sq	a0,-192(s0)
80003678:	f404258f          	lq	a1,-192(s0)
8000367c:	f704250f          	lq	a0,-144(s0)
80003680:	7fd020ef          	jal	8000667c <__mcmp>
80003684:	00050793          	mv	a5,a0
80003688:	02f04a63          	bgtz	a5,800036bc <_dtoa_r+0x1654>
8000368c:	0140006f          	j	800036a0 <_dtoa_r+0x1638>
80003690:	00000013          	nop
80003694:	0100006f          	j	800036a4 <_dtoa_r+0x163c>
80003698:	00000013          	nop
8000369c:	0080006f          	j	800036a4 <_dtoa_r+0x163c>
800036a0:	00000013          	nop
800036a4:	e4042783          	lw	a5,-448(s0)
800036a8:	fff7c793          	not	a5,a5
800036ac:	faf42623          	sw	a5,-84(s0)
800036b0:	5480006f          	j	80003bf8 <_dtoa_r+0x1b90>
800036b4:	00000013          	nop
800036b8:	0080006f          	j	800036c0 <_dtoa_r+0x1658>
800036bc:	00000013          	nop
800036c0:	f204278f          	lq	a5,-224(s0)
800036c4:	00178713          	addi	a4,a5,1
800036c8:	f2e44023          	sq	a4,-224(s0)
800036cc:	03100713          	li	a4,49
800036d0:	00e78023          	sb	a4,0(a5)
800036d4:	fac42783          	lw	a5,-84(s0)
800036d8:	0017879b          	addw	a5,a5,1
800036dc:	faf42623          	sw	a5,-84(s0)
800036e0:	5180006f          	j	80003bf8 <_dtoa_r+0x1b90>
800036e4:	fa442783          	lw	a5,-92(s0)
800036e8:	0007879b          	sext.w	a5,a5
800036ec:	38078863          	beqz	a5,80003a7c <_dtoa_r+0x1a14>
800036f0:	fa042783          	lw	a5,-96(s0)
800036f4:	0007879b          	sext.w	a5,a5
800036f8:	00f05e63          	blez	a5,80003714 <_dtoa_r+0x16ac>
800036fc:	fa042783          	lw	a5,-96(s0)
80003700:	00078613          	mv	a2,a5
80003704:	f504258f          	lq	a1,-176(s0)
80003708:	e504250f          	lq	a0,-432(s0)
8000370c:	519020ef          	jal	80006424 <__lshift>
80003710:	f4a44823          	sq	a0,-176(s0)
80003714:	f504278f          	lq	a5,-176(s0)
80003718:	f6f44023          	sq	a5,-160(s0)
8000371c:	f9042783          	lw	a5,-112(s0)
80003720:	0007879b          	sext.w	a5,a5
80003724:	08078663          	beqz	a5,800037b0 <_dtoa_r+0x1748>
80003728:	f504278f          	lq	a5,-176(s0)
8000372c:	0107a783          	lw	a5,16(a5)
80003730:	00078593          	mv	a1,a5
80003734:	e504250f          	lq	a0,-432(s0)
80003738:	475010ef          	jal	800053ac <_Balloc>
8000373c:	eaa44023          	sq	a0,-352(s0)
80003740:	ea04278f          	lq	a5,-352(s0)
80003744:	02079063          	bnez	a5,80003764 <_dtoa_r+0x16fc>
80003748:	0000a697          	auipc	a3,0xa
8000374c:	b9868693          	addi	a3,a3,-1128 # 8000d2e0 <puts+0x18c>
80003750:	00000613          	li	a2,0
80003754:	2ef00593          	li	a1,751
80003758:	0000a517          	auipc	a0,0xa
8000375c:	b2850513          	addi	a0,a0,-1240 # 8000d280 <puts+0x12c>
80003760:	389010ef          	jal	800052e8 <__assert_func>
80003764:	ea04278f          	lq	a5,-352(s0)
80003768:	f4f44823          	sq	a5,-176(s0)
8000376c:	f504278f          	lq	a5,-176(s0)
80003770:	01878713          	addi	a4,a5,24
80003774:	f604278f          	lq	a5,-160(s0)
80003778:	01878693          	addi	a3,a5,24
8000377c:	f604278f          	lq	a5,-160(s0)
80003780:	01c7a783          	lw	a5,28(a5)
80003784:	00278793          	addi	a5,a5,2
80003788:	00279793          	slli	a5,a5,0x2
8000378c:	00078613          	mv	a2,a5
80003790:	00068593          	mv	a1,a3
80003794:	00070513          	mv	a0,a4
80003798:	221040ef          	jal	800081b8 <memcpy>
8000379c:	00100613          	li	a2,1
800037a0:	f504258f          	lq	a1,-176(s0)
800037a4:	e504250f          	lq	a0,-432(s0)
800037a8:	47d020ef          	jal	80006424 <__lshift>
800037ac:	f4a44823          	sq	a0,-176(s0)
800037b0:	00100793          	li	a5,1
800037b4:	fcf42023          	sw	a5,-64(s0)
800037b8:	f404258f          	lq	a1,-192(s0)
800037bc:	f704250f          	lq	a0,-144(s0)
800037c0:	c0cfe0ef          	jal	80001bcc <_ebss+0xffe00ebc>
800037c4:	00050793          	mv	a5,a0
800037c8:	0307879b          	addw	a5,a5,48
800037cc:	fcf42223          	sw	a5,-60(s0)
800037d0:	f604258f          	lq	a1,-160(s0)
800037d4:	f704250f          	lq	a0,-144(s0)
800037d8:	6a5020ef          	jal	8000667c <__mcmp>
800037dc:	00050793          	mv	a5,a0
800037e0:	faf42823          	sw	a5,-80(s0)
800037e4:	f504260f          	lq	a2,-176(s0)
800037e8:	f404258f          	lq	a1,-192(s0)
800037ec:	e504250f          	lq	a0,-432(s0)
800037f0:	799020ef          	jal	80006788 <__mdiff>
800037f4:	e8a44823          	sq	a0,-368(s0)
800037f8:	e904278f          	lq	a5,-368(s0)
800037fc:	0187a783          	lw	a5,24(a5)
80003800:	00079c63          	bnez	a5,80003818 <_dtoa_r+0x17b0>
80003804:	e904258f          	lq	a1,-368(s0)
80003808:	f704250f          	lq	a0,-144(s0)
8000380c:	671020ef          	jal	8000667c <__mcmp>
80003810:	00050793          	mv	a5,a0
80003814:	0080006f          	j	8000381c <_dtoa_r+0x17b4>
80003818:	00100793          	li	a5,1
8000381c:	ecf42223          	sw	a5,-316(s0)
80003820:	e904258f          	lq	a1,-368(s0)
80003824:	e504250f          	lq	a0,-432(s0)
80003828:	565010ef          	jal	8000558c <_Bfree>
8000382c:	ec442783          	lw	a5,-316(s0)
80003830:	0007879b          	sext.w	a5,a5
80003834:	06079263          	bnez	a5,80003898 <_dtoa_r+0x1830>
80003838:	e4442783          	lw	a5,-444(s0)
8000383c:	0007879b          	sext.w	a5,a5
80003840:	04079c63          	bnez	a5,80003898 <_dtoa_r+0x1830>
80003844:	e8042783          	lw	a5,-384(s0)
80003848:	0017f793          	andi	a5,a5,1
8000384c:	0007879b          	sext.w	a5,a5
80003850:	04079463          	bnez	a5,80003898 <_dtoa_r+0x1830>
80003854:	fc442783          	lw	a5,-60(s0)
80003858:	0007871b          	sext.w	a4,a5
8000385c:	03900793          	li	a5,57
80003860:	10f70e63          	beq	a4,a5,8000397c <_dtoa_r+0x1914>
80003864:	fb042783          	lw	a5,-80(s0)
80003868:	0007879b          	sext.w	a5,a5
8000386c:	00f05863          	blez	a5,8000387c <_dtoa_r+0x1814>
80003870:	fc442783          	lw	a5,-60(s0)
80003874:	0017879b          	addw	a5,a5,1
80003878:	fcf42223          	sw	a5,-60(s0)
8000387c:	f204278f          	lq	a5,-224(s0)
80003880:	00178713          	addi	a4,a5,1
80003884:	f2e44023          	sq	a4,-224(s0)
80003888:	fc442703          	lw	a4,-60(s0)
8000388c:	0ff77713          	zext.b	a4,a4
80003890:	00e78023          	sb	a4,0(a5)
80003894:	3640006f          	j	80003bf8 <_dtoa_r+0x1b90>
80003898:	fb042783          	lw	a5,-80(s0)
8000389c:	0007879b          	sext.w	a5,a5
800038a0:	0207c663          	bltz	a5,800038cc <_dtoa_r+0x1864>
800038a4:	fb042783          	lw	a5,-80(s0)
800038a8:	0007879b          	sext.w	a5,a5
800038ac:	0a079863          	bnez	a5,8000395c <_dtoa_r+0x18f4>
800038b0:	e4442783          	lw	a5,-444(s0)
800038b4:	0007879b          	sext.w	a5,a5
800038b8:	0a079263          	bnez	a5,8000395c <_dtoa_r+0x18f4>
800038bc:	e8042783          	lw	a5,-384(s0)
800038c0:	0017f793          	andi	a5,a5,1
800038c4:	0007879b          	sext.w	a5,a5
800038c8:	08079a63          	bnez	a5,8000395c <_dtoa_r+0x18f4>
800038cc:	ec442783          	lw	a5,-316(s0)
800038d0:	0007879b          	sext.w	a5,a5
800038d4:	06f05663          	blez	a5,80003940 <_dtoa_r+0x18d8>
800038d8:	00100613          	li	a2,1
800038dc:	f704258f          	lq	a1,-144(s0)
800038e0:	e504250f          	lq	a0,-432(s0)
800038e4:	341020ef          	jal	80006424 <__lshift>
800038e8:	f6a44823          	sq	a0,-144(s0)
800038ec:	f404258f          	lq	a1,-192(s0)
800038f0:	f704250f          	lq	a0,-144(s0)
800038f4:	589020ef          	jal	8000667c <__mcmp>
800038f8:	00050793          	mv	a5,a0
800038fc:	ecf42223          	sw	a5,-316(s0)
80003900:	ec442783          	lw	a5,-316(s0)
80003904:	0007879b          	sext.w	a5,a5
80003908:	02f04063          	bgtz	a5,80003928 <_dtoa_r+0x18c0>
8000390c:	ec442783          	lw	a5,-316(s0)
80003910:	0007879b          	sext.w	a5,a5
80003914:	02079663          	bnez	a5,80003940 <_dtoa_r+0x18d8>
80003918:	fc442783          	lw	a5,-60(s0)
8000391c:	0017f793          	andi	a5,a5,1
80003920:	0007879b          	sext.w	a5,a5
80003924:	00078e63          	beqz	a5,80003940 <_dtoa_r+0x18d8>
80003928:	fc442783          	lw	a5,-60(s0)
8000392c:	0017871b          	addw	a4,a5,1
80003930:	fce42223          	sw	a4,-60(s0)
80003934:	00078713          	mv	a4,a5
80003938:	03900793          	li	a5,57
8000393c:	04f70463          	beq	a4,a5,80003984 <_dtoa_r+0x191c>
80003940:	f204278f          	lq	a5,-224(s0)
80003944:	00178713          	addi	a4,a5,1
80003948:	f2e44023          	sq	a4,-224(s0)
8000394c:	fc442703          	lw	a4,-60(s0)
80003950:	0ff77713          	zext.b	a4,a4
80003954:	00e78023          	sb	a4,0(a5)
80003958:	2a00006f          	j	80003bf8 <_dtoa_r+0x1b90>
8000395c:	ec442783          	lw	a5,-316(s0)
80003960:	0007879b          	sext.w	a5,a5
80003964:	06f05063          	blez	a5,800039c4 <_dtoa_r+0x195c>
80003968:	fc442783          	lw	a5,-60(s0)
8000396c:	0007871b          	sext.w	a4,a5
80003970:	03900793          	li	a5,57
80003974:	02f71663          	bne	a4,a5,800039a0 <_dtoa_r+0x1938>
80003978:	0100006f          	j	80003988 <_dtoa_r+0x1920>
8000397c:	00000013          	nop
80003980:	0080006f          	j	80003988 <_dtoa_r+0x1920>
80003984:	00000013          	nop
80003988:	f204278f          	lq	a5,-224(s0)
8000398c:	00178713          	addi	a4,a5,1
80003990:	f2e44023          	sq	a4,-224(s0)
80003994:	03900713          	li	a4,57
80003998:	00e78023          	sb	a4,0(a5)
8000399c:	1b80006f          	j	80003b54 <_dtoa_r+0x1aec>
800039a0:	fc442783          	lw	a5,-60(s0)
800039a4:	0ff7f713          	zext.b	a4,a5
800039a8:	f204278f          	lq	a5,-224(s0)
800039ac:	00178693          	addi	a3,a5,1
800039b0:	f2d44023          	sq	a3,-224(s0)
800039b4:	0017071b          	addw	a4,a4,1
800039b8:	0ff77713          	zext.b	a4,a4
800039bc:	00e78023          	sb	a4,0(a5)
800039c0:	2380006f          	j	80003bf8 <_dtoa_r+0x1b90>
800039c4:	f204278f          	lq	a5,-224(s0)
800039c8:	00178713          	addi	a4,a5,1
800039cc:	f2e44023          	sq	a4,-224(s0)
800039d0:	fc442703          	lw	a4,-60(s0)
800039d4:	0ff77713          	zext.b	a4,a4
800039d8:	00e78023          	sb	a4,0(a5)
800039dc:	fc042783          	lw	a5,-64(s0)
800039e0:	00078713          	mv	a4,a5
800039e4:	fb842783          	lw	a5,-72(s0)
800039e8:	0007071b          	sext.w	a4,a4
800039ec:	0007879b          	sext.w	a5,a5
800039f0:	10f70263          	beq	a4,a5,80003af4 <_dtoa_r+0x1a8c>
800039f4:	00000693          	li	a3,0
800039f8:	00a00613          	li	a2,10
800039fc:	f704258f          	lq	a1,-144(s0)
80003a00:	e504250f          	lq	a0,-432(s0)
80003a04:	499010ef          	jal	8000569c <__multadd>
80003a08:	f6a44823          	sq	a0,-144(s0)
80003a0c:	f604270f          	lq	a4,-160(s0)
80003a10:	f504278f          	lq	a5,-176(s0)
80003a14:	02f71463          	bne	a4,a5,80003a3c <_dtoa_r+0x19d4>
80003a18:	00000693          	li	a3,0
80003a1c:	00a00613          	li	a2,10
80003a20:	f504258f          	lq	a1,-176(s0)
80003a24:	e504250f          	lq	a0,-432(s0)
80003a28:	475010ef          	jal	8000569c <__multadd>
80003a2c:	f4a44823          	sq	a0,-176(s0)
80003a30:	f504278f          	lq	a5,-176(s0)
80003a34:	f6f44023          	sq	a5,-160(s0)
80003a38:	0340006f          	j	80003a6c <_dtoa_r+0x1a04>
80003a3c:	00000693          	li	a3,0
80003a40:	00a00613          	li	a2,10
80003a44:	f604258f          	lq	a1,-160(s0)
80003a48:	e504250f          	lq	a0,-432(s0)
80003a4c:	451010ef          	jal	8000569c <__multadd>
80003a50:	f6a44023          	sq	a0,-160(s0)
80003a54:	00000693          	li	a3,0
80003a58:	00a00613          	li	a2,10
80003a5c:	f504258f          	lq	a1,-176(s0)
80003a60:	e504250f          	lq	a0,-432(s0)
80003a64:	439010ef          	jal	8000569c <__multadd>
80003a68:	f4a44823          	sq	a0,-176(s0)
80003a6c:	fc042783          	lw	a5,-64(s0)
80003a70:	0017879b          	addw	a5,a5,1
80003a74:	fcf42023          	sw	a5,-64(s0)
80003a78:	d41ff06f          	j	800037b8 <_ebss+0xffe02aa8>
80003a7c:	00100793          	li	a5,1
80003a80:	fcf42023          	sw	a5,-64(s0)
80003a84:	f404258f          	lq	a1,-192(s0)
80003a88:	f704250f          	lq	a0,-144(s0)
80003a8c:	940fe0ef          	jal	80001bcc <_ebss+0xffe00ebc>
80003a90:	00050793          	mv	a5,a0
80003a94:	0307879b          	addw	a5,a5,48
80003a98:	fcf42223          	sw	a5,-60(s0)
80003a9c:	f204278f          	lq	a5,-224(s0)
80003aa0:	00178713          	addi	a4,a5,1
80003aa4:	f2e44023          	sq	a4,-224(s0)
80003aa8:	fc442703          	lw	a4,-60(s0)
80003aac:	0ff77713          	zext.b	a4,a4
80003ab0:	00e78023          	sb	a4,0(a5)
80003ab4:	fc042783          	lw	a5,-64(s0)
80003ab8:	00078713          	mv	a4,a5
80003abc:	fb842783          	lw	a5,-72(s0)
80003ac0:	0007071b          	sext.w	a4,a4
80003ac4:	0007879b          	sext.w	a5,a5
80003ac8:	02f75a63          	bge	a4,a5,80003afc <_dtoa_r+0x1a94>
80003acc:	00000693          	li	a3,0
80003ad0:	00a00613          	li	a2,10
80003ad4:	f704258f          	lq	a1,-144(s0)
80003ad8:	e504250f          	lq	a0,-432(s0)
80003adc:	3c1010ef          	jal	8000569c <__multadd>
80003ae0:	f6a44823          	sq	a0,-144(s0)
80003ae4:	fc042783          	lw	a5,-64(s0)
80003ae8:	0017879b          	addw	a5,a5,1
80003aec:	fcf42023          	sw	a5,-64(s0)
80003af0:	f95ff06f          	j	80003a84 <_ebss+0xffe02d74>
80003af4:	00000013          	nop
80003af8:	0080006f          	j	80003b00 <_dtoa_r+0x1a98>
80003afc:	00000013          	nop
80003b00:	00100613          	li	a2,1
80003b04:	f704258f          	lq	a1,-144(s0)
80003b08:	e504250f          	lq	a0,-432(s0)
80003b0c:	119020ef          	jal	80006424 <__lshift>
80003b10:	f6a44823          	sq	a0,-144(s0)
80003b14:	f404258f          	lq	a1,-192(s0)
80003b18:	f704250f          	lq	a0,-144(s0)
80003b1c:	361020ef          	jal	8000667c <__mcmp>
80003b20:	00050793          	mv	a5,a0
80003b24:	faf42823          	sw	a5,-80(s0)
80003b28:	fb042783          	lw	a5,-80(s0)
80003b2c:	0007879b          	sext.w	a5,a5
80003b30:	02f04063          	bgtz	a5,80003b50 <_dtoa_r+0x1ae8>
80003b34:	fb042783          	lw	a5,-80(s0)
80003b38:	0007879b          	sext.w	a5,a5
80003b3c:	08079663          	bnez	a5,80003bc8 <_dtoa_r+0x1b60>
80003b40:	fc442783          	lw	a5,-60(s0)
80003b44:	0017f793          	andi	a5,a5,1
80003b48:	0007879b          	sext.w	a5,a5
80003b4c:	06078e63          	beqz	a5,80003bc8 <_dtoa_r+0x1b60>
80003b50:	00000013          	nop
80003b54:	0340006f          	j	80003b88 <_dtoa_r+0x1b20>
80003b58:	f204270f          	lq	a4,-224(s0)
80003b5c:	ed04278f          	lq	a5,-304(s0)
80003b60:	02f71463          	bne	a4,a5,80003b88 <_dtoa_r+0x1b20>
80003b64:	fac42783          	lw	a5,-84(s0)
80003b68:	0017879b          	addw	a5,a5,1
80003b6c:	faf42623          	sw	a5,-84(s0)
80003b70:	f204278f          	lq	a5,-224(s0)
80003b74:	00178713          	addi	a4,a5,1
80003b78:	f2e44023          	sq	a4,-224(s0)
80003b7c:	03100713          	li	a4,49
80003b80:	00e78023          	sb	a4,0(a5)
80003b84:	0740006f          	j	80003bf8 <_dtoa_r+0x1b90>
80003b88:	f204278f          	lq	a5,-224(s0)
80003b8c:	fff78793          	addi	a5,a5,-1
80003b90:	f2f44023          	sq	a5,-224(s0)
80003b94:	f204278f          	lq	a5,-224(s0)
80003b98:	0007c783          	lbu	a5,0(a5)
80003b9c:	00078713          	mv	a4,a5
80003ba0:	03900793          	li	a5,57
80003ba4:	faf70ae3          	beq	a4,a5,80003b58 <_ebss+0xffe02e48>
80003ba8:	f204278f          	lq	a5,-224(s0)
80003bac:	00178713          	addi	a4,a5,1
80003bb0:	f2e44023          	sq	a4,-224(s0)
80003bb4:	0007c703          	lbu	a4,0(a5)
80003bb8:	0017071b          	addw	a4,a4,1
80003bbc:	0ff77713          	zext.b	a4,a4
80003bc0:	00e78023          	sb	a4,0(a5)
80003bc4:	0340006f          	j	80003bf8 <_dtoa_r+0x1b90>
80003bc8:	00000013          	nop
80003bcc:	f204278f          	lq	a5,-224(s0)
80003bd0:	fff78793          	addi	a5,a5,-1
80003bd4:	f2f44023          	sq	a5,-224(s0)
80003bd8:	f204278f          	lq	a5,-224(s0)
80003bdc:	0007c783          	lbu	a5,0(a5)
80003be0:	00078713          	mv	a4,a5
80003be4:	03000793          	li	a5,48
80003be8:	fef702e3          	beq	a4,a5,80003bcc <_ebss+0xffe02ebc>
80003bec:	f204278f          	lq	a5,-224(s0)
80003bf0:	00178793          	addi	a5,a5,1
80003bf4:	f2f44023          	sq	a5,-224(s0)
80003bf8:	f404258f          	lq	a1,-192(s0)
80003bfc:	e504250f          	lq	a0,-432(s0)
80003c00:	18d010ef          	jal	8000558c <_Bfree>
80003c04:	f504278f          	lq	a5,-176(s0)
80003c08:	02078e63          	beqz	a5,80003c44 <_dtoa_r+0x1bdc>
80003c0c:	f604278f          	lq	a5,-160(s0)
80003c10:	00078e63          	beqz	a5,80003c2c <_dtoa_r+0x1bc4>
80003c14:	f604270f          	lq	a4,-160(s0)
80003c18:	f504278f          	lq	a5,-176(s0)
80003c1c:	00f70863          	beq	a4,a5,80003c2c <_dtoa_r+0x1bc4>
80003c20:	f604258f          	lq	a1,-160(s0)
80003c24:	e504250f          	lq	a0,-432(s0)
80003c28:	165010ef          	jal	8000558c <_Bfree>
80003c2c:	f504258f          	lq	a1,-176(s0)
80003c30:	e504250f          	lq	a0,-432(s0)
80003c34:	159010ef          	jal	8000558c <_Bfree>
80003c38:	0100006f          	j	80003c48 <_dtoa_r+0x1be0>
80003c3c:	00000013          	nop
80003c40:	0080006f          	j	80003c48 <_dtoa_r+0x1be0>
80003c44:	00000013          	nop
80003c48:	f704258f          	lq	a1,-144(s0)
80003c4c:	e504250f          	lq	a0,-432(s0)
80003c50:	13d010ef          	jal	8000558c <_Bfree>
80003c54:	f204278f          	lq	a5,-224(s0)
80003c58:	00078023          	sb	zero,0(a5)
80003c5c:	fac42783          	lw	a5,-84(s0)
80003c60:	0017879b          	addw	a5,a5,1
80003c64:	0007871b          	sext.w	a4,a5
80003c68:	e304278f          	lq	a5,-464(s0)
80003c6c:	00e7a023          	sw	a4,0(a5)
80003c70:	e104278f          	lq	a5,-496(s0)
80003c74:	00078863          	beqz	a5,80003c84 <_dtoa_r+0x1c1c>
80003c78:	e104278f          	lq	a5,-496(s0)
80003c7c:	f204270f          	lq	a4,-224(s0)
80003c80:	00e7c023          	sq	a4,0(a5)
80003c84:	ed04278f          	lq	a5,-304(s0)
80003c88:	00078513          	mv	a0,a5
80003c8c:	1e01208f          	lq	ra,480(sp)
80003c90:	1d01240f          	lq	s0,464(sp)
80003c94:	1c01248f          	lq	s1,448(sp)
80003c98:	1f010113          	addi	sp,sp,496
80003c9c:	00008067          	ret

80003ca0 <__get_global_locale>:
80003ca0:	ff010113          	addi	sp,sp,-16
80003ca4:	00814023          	sq	s0,0(sp)
80003ca8:	01010413          	addi	s0,sp,16
80003cac:	001fc797          	auipc	a5,0x1fc
80003cb0:	4b478793          	addi	a5,a5,1204 # 80200160 <__global_locale>
80003cb4:	00078513          	mv	a0,a5
80003cb8:	0001240f          	lq	s0,0(sp)
80003cbc:	01010113          	addi	sp,sp,16
80003cc0:	00008067          	ret

80003cc4 <__get_current_locale>:
80003cc4:	fe010113          	addi	sp,sp,-32
80003cc8:	00114823          	sq	ra,16(sp)
80003ccc:	00814023          	sq	s0,0(sp)
80003cd0:	02010413          	addi	s0,sp,32
80003cd4:	fcdff0ef          	jal	80003ca0 <_ebss+0xffe02f90>
80003cd8:	00050793          	mv	a5,a0
80003cdc:	00078513          	mv	a0,a5
80003ce0:	0101208f          	lq	ra,16(sp)
80003ce4:	0001240f          	lq	s0,0(sp)
80003ce8:	02010113          	addi	sp,sp,32
80003cec:	00008067          	ret

80003cf0 <__get_C_locale>:
80003cf0:	fe010113          	addi	sp,sp,-32
80003cf4:	00114823          	sq	ra,16(sp)
80003cf8:	00814023          	sq	s0,0(sp)
80003cfc:	02010413          	addi	s0,sp,32
80003d00:	fa1ff0ef          	jal	80003ca0 <_ebss+0xffe02f90>
80003d04:	00050793          	mv	a5,a0
80003d08:	00078513          	mv	a0,a5
80003d0c:	0101208f          	lq	ra,16(sp)
80003d10:	0001240f          	lq	s0,0(sp)
80003d14:	02010113          	addi	sp,sp,32
80003d18:	00008067          	ret

80003d1c <__localeconv_l>:
80003d1c:	fc010113          	addi	sp,sp,-64
80003d20:	02114823          	sq	ra,48(sp)
80003d24:	02814023          	sq	s0,32(sp)
80003d28:	04010413          	addi	s0,sp,64
80003d2c:	fca44023          	sq	a0,-64(s0)
80003d30:	fc04278f          	lq	a5,-64(s0)
80003d34:	12078793          	addi	a5,a5,288
80003d38:	fcf44823          	sq	a5,-48(s0)
80003d3c:	fb5ff0ef          	jal	80003cf0 <_ebss+0xffe02fe0>
80003d40:	00050713          	mv	a4,a0
80003d44:	fc04278f          	lq	a5,-64(s0)
80003d48:	00e79663          	bne	a5,a4,80003d54 <__localeconv_l+0x38>
80003d4c:	fd04278f          	lq	a5,-48(s0)
80003d50:	0080006f          	j	80003d58 <__localeconv_l+0x3c>
80003d54:	fd04278f          	lq	a5,-48(s0)
80003d58:	00078513          	mv	a0,a5
80003d5c:	0301208f          	lq	ra,48(sp)
80003d60:	0201240f          	lq	s0,32(sp)
80003d64:	04010113          	addi	sp,sp,64
80003d68:	00008067          	ret

80003d6c <_localeconv_r>:
80003d6c:	fd010113          	addi	sp,sp,-48
80003d70:	02114023          	sq	ra,32(sp)
80003d74:	00814823          	sq	s0,16(sp)
80003d78:	03010413          	addi	s0,sp,48
80003d7c:	fca44823          	sq	a0,-48(s0)
80003d80:	f45ff0ef          	jal	80003cc4 <_ebss+0xffe02fb4>
80003d84:	00050793          	mv	a5,a0
80003d88:	00078513          	mv	a0,a5
80003d8c:	f91ff0ef          	jal	80003d1c <_ebss+0xffe0300c>
80003d90:	00050793          	mv	a5,a0
80003d94:	00078513          	mv	a0,a5
80003d98:	0201208f          	lq	ra,32(sp)
80003d9c:	0101240f          	lq	s0,16(sp)
80003da0:	03010113          	addi	sp,sp,48
80003da4:	00008067          	ret

80003da8 <localeconv>:
80003da8:	fe010113          	addi	sp,sp,-32
80003dac:	00114823          	sq	ra,16(sp)
80003db0:	00814023          	sq	s0,0(sp)
80003db4:	02010413          	addi	s0,sp,32
80003db8:	f0dff0ef          	jal	80003cc4 <_ebss+0xffe02fb4>
80003dbc:	00050793          	mv	a5,a0
80003dc0:	00078513          	mv	a0,a5
80003dc4:	f59ff0ef          	jal	80003d1c <_ebss+0xffe0300c>
80003dc8:	00050793          	mv	a5,a0
80003dcc:	00078513          	mv	a0,a5
80003dd0:	0101208f          	lq	ra,16(sp)
80003dd4:	0001240f          	lq	s0,0(sp)
80003dd8:	02010113          	addi	sp,sp,32
80003ddc:	00008067          	ret

80003de0 <malloc>:
80003de0:	fd010113          	addi	sp,sp,-48
80003de4:	02114023          	sq	ra,32(sp)
80003de8:	00814823          	sq	s0,16(sp)
80003dec:	03010413          	addi	s0,sp,48
80003df0:	fca44823          	sq	a0,-48(s0)
80003df4:	001fc797          	auipc	a5,0x1fc
80003df8:	32c78793          	addi	a5,a5,812 # 80200120 <_impure_ptr>
80003dfc:	0007a78f          	lq	a5,0(a5)
80003e00:	fd04258f          	lq	a1,-48(s0)
80003e04:	00078513          	mv	a0,a5
80003e08:	9d1fd0ef          	jal	800017d8 <_ebss+0xffe00ac8>
80003e0c:	00050793          	mv	a5,a0
80003e10:	00078513          	mv	a0,a5
80003e14:	0201208f          	lq	ra,32(sp)
80003e18:	0101240f          	lq	s0,16(sp)
80003e1c:	03010113          	addi	sp,sp,48
80003e20:	00008067          	ret

80003e24 <free>:
80003e24:	fd010113          	addi	sp,sp,-48
80003e28:	02114023          	sq	ra,32(sp)
80003e2c:	00814823          	sq	s0,16(sp)
80003e30:	03010413          	addi	s0,sp,48
80003e34:	fca44823          	sq	a0,-48(s0)
80003e38:	001fc797          	auipc	a5,0x1fc
80003e3c:	2e878793          	addi	a5,a5,744 # 80200120 <_impure_ptr>
80003e40:	0007a78f          	lq	a5,0(a5)
80003e44:	fd04258f          	lq	a1,-48(s0)
80003e48:	00078513          	mv	a0,a5
80003e4c:	56d040ef          	jal	80008bb8 <_free_r>
80003e50:	00000013          	nop
80003e54:	0201208f          	lq	ra,32(sp)
80003e58:	0101240f          	lq	s0,16(sp)
80003e5c:	03010113          	addi	sp,sp,48
80003e60:	00008067          	ret

80003e64 <_printf_common>:
80003e64:	f8010113          	addi	sp,sp,-128
80003e68:	06114823          	sq	ra,112(sp)
80003e6c:	06814023          	sq	s0,96(sp)
80003e70:	08010413          	addi	s0,sp,128
80003e74:	fca44023          	sq	a0,-64(s0)
80003e78:	fab44823          	sq	a1,-80(s0)
80003e7c:	fac44023          	sq	a2,-96(s0)
80003e80:	f8d44823          	sq	a3,-112(s0)
80003e84:	f8e44023          	sq	a4,-128(s0)
80003e88:	fb04278f          	lq	a5,-80(s0)
80003e8c:	0107a703          	lw	a4,16(a5)
80003e90:	fb04278f          	lq	a5,-80(s0)
80003e94:	0087a783          	lw	a5,8(a5)
80003e98:	00078613          	mv	a2,a5
80003e9c:	00070693          	mv	a3,a4
80003ea0:	0006871b          	sext.w	a4,a3
80003ea4:	0006079b          	sext.w	a5,a2
80003ea8:	00f75463          	bge	a4,a5,80003eb0 <_printf_common+0x4c>
80003eac:	00060693          	mv	a3,a2
80003eb0:	0006871b          	sext.w	a4,a3
80003eb4:	fa04278f          	lq	a5,-96(s0)
80003eb8:	00e7a023          	sw	a4,0(a5)
80003ebc:	fb04278f          	lq	a5,-80(s0)
80003ec0:	0437c783          	lbu	a5,67(a5)
80003ec4:	00078e63          	beqz	a5,80003ee0 <_printf_common+0x7c>
80003ec8:	fa04278f          	lq	a5,-96(s0)
80003ecc:	0007a783          	lw	a5,0(a5)
80003ed0:	0017879b          	addw	a5,a5,1
80003ed4:	0007871b          	sext.w	a4,a5
80003ed8:	fa04278f          	lq	a5,-96(s0)
80003edc:	00e7a023          	sw	a4,0(a5)
80003ee0:	fb04278f          	lq	a5,-80(s0)
80003ee4:	0007a783          	lw	a5,0(a5)
80003ee8:	0207f793          	andi	a5,a5,32
80003eec:	0007879b          	sext.w	a5,a5
80003ef0:	00078e63          	beqz	a5,80003f0c <_printf_common+0xa8>
80003ef4:	fa04278f          	lq	a5,-96(s0)
80003ef8:	0007a783          	lw	a5,0(a5)
80003efc:	0027879b          	addw	a5,a5,2
80003f00:	0007871b          	sext.w	a4,a5
80003f04:	fa04278f          	lq	a5,-96(s0)
80003f08:	00e7a023          	sw	a4,0(a5)
80003f0c:	fb04278f          	lq	a5,-80(s0)
80003f10:	0007a783          	lw	a5,0(a5)
80003f14:	0067f793          	andi	a5,a5,6
80003f18:	0007879b          	sext.w	a5,a5
80003f1c:	06079663          	bnez	a5,80003f88 <_printf_common+0x124>
80003f20:	fc042c23          	sw	zero,-40(s0)
80003f24:	0400006f          	j	80003f64 <_printf_common+0x100>
80003f28:	fb04278f          	lq	a5,-80(s0)
80003f2c:	01978713          	addi	a4,a5,25
80003f30:	f804278f          	lq	a5,-128(s0)
80003f34:	00100693          	li	a3,1
80003f38:	00070613          	mv	a2,a4
80003f3c:	f904258f          	lq	a1,-112(s0)
80003f40:	fc04250f          	lq	a0,-64(s0)
80003f44:	000780e7          	jalr	a5
80003f48:	00050793          	mv	a5,a0
80003f4c:	00078713          	mv	a4,a5
80003f50:	fff00793          	li	a5,-1
80003f54:	1af70863          	beq	a4,a5,80004104 <_printf_common+0x2a0>
80003f58:	fd842783          	lw	a5,-40(s0)
80003f5c:	0017879b          	addw	a5,a5,1
80003f60:	fcf42c23          	sw	a5,-40(s0)
80003f64:	fb04278f          	lq	a5,-80(s0)
80003f68:	00c7a703          	lw	a4,12(a5)
80003f6c:	fa04278f          	lq	a5,-96(s0)
80003f70:	0007a783          	lw	a5,0(a5)
80003f74:	40f707bb          	subw	a5,a4,a5
80003f78:	0007871b          	sext.w	a4,a5
80003f7c:	fd842783          	lw	a5,-40(s0)
80003f80:	0007879b          	sext.w	a5,a5
80003f84:	fae7c2e3          	blt	a5,a4,80003f28 <_ebss+0xffe03218>
80003f88:	fc042e23          	sw	zero,-36(s0)
80003f8c:	fb04278f          	lq	a5,-80(s0)
80003f90:	0437c783          	lbu	a5,67(a5)
80003f94:	00078863          	beqz	a5,80003fa4 <_printf_common+0x140>
80003f98:	fdc42783          	lw	a5,-36(s0)
80003f9c:	0017879b          	addw	a5,a5,1
80003fa0:	fcf42e23          	sw	a5,-36(s0)
80003fa4:	fb04278f          	lq	a5,-80(s0)
80003fa8:	0007a783          	lw	a5,0(a5)
80003fac:	0207f793          	andi	a5,a5,32
80003fb0:	0007879b          	sext.w	a5,a5
80003fb4:	04078063          	beqz	a5,80003ff4 <_printf_common+0x190>
80003fb8:	fdc42783          	lw	a5,-36(s0)
80003fbc:	0017871b          	addw	a4,a5,1
80003fc0:	fce42e23          	sw	a4,-36(s0)
80003fc4:	fb04270f          	lq	a4,-80(s0)
80003fc8:	00f707b3          	add	a5,a4,a5
80003fcc:	03000713          	li	a4,48
80003fd0:	04e781a3          	sb	a4,67(a5)
80003fd4:	fdc42783          	lw	a5,-36(s0)
80003fd8:	0017871b          	addw	a4,a5,1
80003fdc:	fce42e23          	sw	a4,-36(s0)
80003fe0:	fb04270f          	lq	a4,-80(s0)
80003fe4:	04574703          	lbu	a4,69(a4)
80003fe8:	fb04268f          	lq	a3,-80(s0)
80003fec:	00f687b3          	add	a5,a3,a5
80003ff0:	04e781a3          	sb	a4,67(a5)
80003ff4:	fb04278f          	lq	a5,-80(s0)
80003ff8:	04378713          	addi	a4,a5,67
80003ffc:	fdc42683          	lw	a3,-36(s0)
80004000:	f804278f          	lq	a5,-128(s0)
80004004:	00070613          	mv	a2,a4
80004008:	f904258f          	lq	a1,-112(s0)
8000400c:	fc04250f          	lq	a0,-64(s0)
80004010:	000780e7          	jalr	a5
80004014:	00050793          	mv	a5,a0
80004018:	00078713          	mv	a4,a5
8000401c:	fff00793          	li	a5,-1
80004020:	0ef70263          	beq	a4,a5,80004104 <_printf_common+0x2a0>
80004024:	fb04278f          	lq	a5,-80(s0)
80004028:	00c7a703          	lw	a4,12(a5)
8000402c:	fa04278f          	lq	a5,-96(s0)
80004030:	0007a783          	lw	a5,0(a5)
80004034:	40f707bb          	subw	a5,a4,a5
80004038:	fcf42e23          	sw	a5,-36(s0)
8000403c:	fb04278f          	lq	a5,-80(s0)
80004040:	0007a783          	lw	a5,0(a5)
80004044:	0067f793          	andi	a5,a5,6
80004048:	0007879b          	sext.w	a5,a5
8000404c:	00078713          	mv	a4,a5
80004050:	00400793          	li	a5,4
80004054:	00f71863          	bne	a4,a5,80004064 <_printf_common+0x200>
80004058:	fdc42783          	lw	a5,-36(s0)
8000405c:	0007879b          	sext.w	a5,a5
80004060:	0007d463          	bgez	a5,80004068 <_printf_common+0x204>
80004064:	fc042e23          	sw	zero,-36(s0)
80004068:	fb04278f          	lq	a5,-80(s0)
8000406c:	0087a703          	lw	a4,8(a5)
80004070:	fb04278f          	lq	a5,-80(s0)
80004074:	0107a783          	lw	a5,16(a5)
80004078:	02e7d463          	bge	a5,a4,800040a0 <_printf_common+0x23c>
8000407c:	fb04278f          	lq	a5,-80(s0)
80004080:	0087a703          	lw	a4,8(a5)
80004084:	fb04278f          	lq	a5,-80(s0)
80004088:	0107a783          	lw	a5,16(a5)
8000408c:	40f707bb          	subw	a5,a4,a5
80004090:	0007879b          	sext.w	a5,a5
80004094:	fdc42703          	lw	a4,-36(s0)
80004098:	00f707bb          	addw	a5,a4,a5
8000409c:	fcf42e23          	sw	a5,-36(s0)
800040a0:	fc042a23          	sw	zero,-44(s0)
800040a4:	0400006f          	j	800040e4 <_printf_common+0x280>
800040a8:	fb04278f          	lq	a5,-80(s0)
800040ac:	01a78713          	addi	a4,a5,26
800040b0:	f804278f          	lq	a5,-128(s0)
800040b4:	00100693          	li	a3,1
800040b8:	00070613          	mv	a2,a4
800040bc:	f904258f          	lq	a1,-112(s0)
800040c0:	fc04250f          	lq	a0,-64(s0)
800040c4:	000780e7          	jalr	a5
800040c8:	00050793          	mv	a5,a0
800040cc:	00078713          	mv	a4,a5
800040d0:	fff00793          	li	a5,-1
800040d4:	02f70863          	beq	a4,a5,80004104 <_printf_common+0x2a0>
800040d8:	fd442783          	lw	a5,-44(s0)
800040dc:	0017879b          	addw	a5,a5,1
800040e0:	fcf42a23          	sw	a5,-44(s0)
800040e4:	fd442783          	lw	a5,-44(s0)
800040e8:	00078713          	mv	a4,a5
800040ec:	fdc42783          	lw	a5,-36(s0)
800040f0:	0007071b          	sext.w	a4,a4
800040f4:	0007879b          	sext.w	a5,a5
800040f8:	faf748e3          	blt	a4,a5,800040a8 <_ebss+0xffe03398>
800040fc:	00000793          	li	a5,0
80004100:	0080006f          	j	80004108 <_printf_common+0x2a4>
80004104:	fff00793          	li	a5,-1
80004108:	00078513          	mv	a0,a5
8000410c:	0701208f          	lq	ra,112(sp)
80004110:	0601240f          	lq	s0,96(sp)
80004114:	08010113          	addi	sp,sp,128
80004118:	00008067          	ret

8000411c <_printf_i>:
8000411c:	f3010113          	addi	sp,sp,-208
80004120:	0c114023          	sq	ra,192(sp)
80004124:	0a814823          	sq	s0,176(sp)
80004128:	0d010413          	addi	s0,sp,208
8000412c:	f6a44823          	sq	a0,-144(s0)
80004130:	f6b44023          	sq	a1,-160(s0)
80004134:	f4c44823          	sq	a2,-176(s0)
80004138:	f4d44023          	sq	a3,-192(s0)
8000413c:	f2e44823          	sq	a4,-208(s0)
80004140:	f604278f          	lq	a5,-160(s0)
80004144:	01b78793          	addi	a5,a5,27
80004148:	02878793          	addi	a5,a5,40
8000414c:	fcf44023          	sq	a5,-64(s0)
80004150:	00009797          	auipc	a5,0x9
80004154:	21078793          	addi	a5,a5,528 # 8000d360 <puts+0x20c>
80004158:	faf44823          	sq	a5,-80(s0)
8000415c:	f604278f          	lq	a5,-160(s0)
80004160:	0187c783          	lbu	a5,24(a5)
80004164:	0007879b          	sext.w	a5,a5
80004168:	54078463          	beqz	a5,800046b0 <_printf_i+0x594>
8000416c:	00078713          	mv	a4,a5
80004170:	5a074c63          	bltz	a4,80004728 <_printf_i+0x60c>
80004174:	00078693          	mv	a3,a5
80004178:	07800713          	li	a4,120
8000417c:	5ad74663          	blt	a4,a3,80004728 <_printf_i+0x60c>
80004180:	00078693          	mv	a3,a5
80004184:	05800713          	li	a4,88
80004188:	5ae6c063          	blt	a3,a4,80004728 <_printf_i+0x60c>
8000418c:	fa87869b          	addw	a3,a5,-88
80004190:	0006871b          	sext.w	a4,a3
80004194:	02000793          	li	a5,32
80004198:	58e7e863          	bltu	a5,a4,80004728 <_printf_i+0x60c>
8000419c:	06069793          	slli	a5,a3,0x60
800041a0:	0607d793          	srli	a5,a5,0x60
800041a4:	00279713          	slli	a4,a5,0x2
800041a8:	00009797          	auipc	a5,0x9
800041ac:	1ec78793          	addi	a5,a5,492 # 8000d394 <puts+0x240>
800041b0:	00f707b3          	add	a5,a4,a5
800041b4:	0007a783          	lw	a5,0(a5)
800041b8:	0007871b          	sext.w	a4,a5
800041bc:	00009797          	auipc	a5,0x9
800041c0:	1d878793          	addi	a5,a5,472 # 8000d394 <puts+0x240>
800041c4:	00f707b3          	add	a5,a4,a5
800041c8:	00078067          	jr	a5
800041cc:	f304278f          	lq	a5,-208(s0)
800041d0:	0007a78f          	lq	a5,0(a5)
800041d4:	01078693          	addi	a3,a5,16
800041d8:	f304270f          	lq	a4,-208(s0)
800041dc:	00d74023          	sq	a3,0(a4)
800041e0:	0007a703          	lw	a4,0(a5)
800041e4:	fc04278f          	lq	a5,-64(s0)
800041e8:	fff78793          	addi	a5,a5,-1
800041ec:	fcf44023          	sq	a5,-64(s0)
800041f0:	0ff77713          	zext.b	a4,a4
800041f4:	fc04278f          	lq	a5,-64(s0)
800041f8:	00e78023          	sb	a4,0(a5)
800041fc:	f604278f          	lq	a5,-160(s0)
80004200:	00100713          	li	a4,1
80004204:	00e7a823          	sw	a4,16(a5)
80004208:	5480006f          	j	80004750 <_printf_i+0x634>
8000420c:	f604278f          	lq	a5,-160(s0)
80004210:	0007a783          	lw	a5,0(a5)
80004214:	0807f793          	andi	a5,a5,128
80004218:	0007879b          	sext.w	a5,a5
8000421c:	02078463          	beqz	a5,80004244 <_printf_i+0x128>
80004220:	f304278f          	lq	a5,-208(s0)
80004224:	0007a78f          	lq	a5,0(a5)
80004228:	01078693          	addi	a3,a5,16
8000422c:	f304270f          	lq	a4,-208(s0)
80004230:	00d74023          	sq	a3,0(a4)
80004234:	0007b783          	ld	a5,0(a5)
80004238:	04079793          	slli	a5,a5,0x40
8000423c:	0407d793          	srli	a5,a5,0x40
80004240:	0640006f          	j	800042a4 <_printf_i+0x188>
80004244:	f604278f          	lq	a5,-160(s0)
80004248:	0007a783          	lw	a5,0(a5)
8000424c:	0407f793          	andi	a5,a5,64
80004250:	0007879b          	sext.w	a5,a5
80004254:	02078863          	beqz	a5,80004284 <_printf_i+0x168>
80004258:	f304278f          	lq	a5,-208(s0)
8000425c:	0007a78f          	lq	a5,0(a5)
80004260:	01078693          	addi	a3,a5,16
80004264:	f304270f          	lq	a4,-208(s0)
80004268:	00d74023          	sq	a3,0(a4)
8000426c:	0007a783          	lw	a5,0(a5)
80004270:	0107979b          	sllw	a5,a5,0x10
80004274:	4107d79b          	sraw	a5,a5,0x10
80004278:	04079793          	slli	a5,a5,0x40
8000427c:	0407d793          	srli	a5,a5,0x40
80004280:	0240006f          	j	800042a4 <_printf_i+0x188>
80004284:	f304278f          	lq	a5,-208(s0)
80004288:	0007a78f          	lq	a5,0(a5)
8000428c:	01078693          	addi	a3,a5,16
80004290:	f304270f          	lq	a4,-208(s0)
80004294:	00d74023          	sq	a3,0(a4)
80004298:	0007a783          	lw	a5,0(a5)
8000429c:	04079793          	slli	a5,a5,0x40
800042a0:	0407d793          	srli	a5,a5,0x40
800042a4:	fcf43c23          	sd	a5,-40(s0)
800042a8:	fd843783          	ld	a5,-40(s0)
800042ac:	0007de63          	bgez	a5,800042c8 <_printf_i+0x1ac>
800042b0:	fd843783          	ld	a5,-40(s0)
800042b4:	40f007fb          	negd	a5,a5
800042b8:	fcf43c23          	sd	a5,-40(s0)
800042bc:	f604278f          	lq	a5,-160(s0)
800042c0:	02d00713          	li	a4,45
800042c4:	04e781a3          	sb	a4,67(a5)
800042c8:	00a00793          	li	a5,10
800042cc:	fcf42a23          	sw	a5,-44(s0)
800042d0:	2140006f          	j	800044e4 <_printf_i+0x3c8>
800042d4:	f604278f          	lq	a5,-160(s0)
800042d8:	0007a783          	lw	a5,0(a5)
800042dc:	0807f793          	andi	a5,a5,128
800042e0:	0007879b          	sext.w	a5,a5
800042e4:	02078063          	beqz	a5,80004304 <_printf_i+0x1e8>
800042e8:	f304278f          	lq	a5,-208(s0)
800042ec:	0007a78f          	lq	a5,0(a5)
800042f0:	01078693          	addi	a3,a5,16
800042f4:	f304270f          	lq	a4,-208(s0)
800042f8:	00d74023          	sq	a3,0(a4)
800042fc:	0007f783          	ldu	a5,0(a5)
80004300:	0640006f          	j	80004364 <_printf_i+0x248>
80004304:	f604278f          	lq	a5,-160(s0)
80004308:	0007a783          	lw	a5,0(a5)
8000430c:	0407f793          	andi	a5,a5,64
80004310:	0007879b          	sext.w	a5,a5
80004314:	02078463          	beqz	a5,8000433c <_printf_i+0x220>
80004318:	f304278f          	lq	a5,-208(s0)
8000431c:	0007a78f          	lq	a5,0(a5)
80004320:	01078693          	addi	a3,a5,16
80004324:	f304270f          	lq	a4,-208(s0)
80004328:	00d74023          	sq	a3,0(a4)
8000432c:	0007a783          	lw	a5,0(a5)
80004330:	07079793          	slli	a5,a5,0x70
80004334:	0707d793          	srli	a5,a5,0x70
80004338:	02c0006f          	j	80004364 <_printf_i+0x248>
8000433c:	f304278f          	lq	a5,-208(s0)
80004340:	0007a78f          	lq	a5,0(a5)
80004344:	01078693          	addi	a3,a5,16
80004348:	f304270f          	lq	a4,-208(s0)
8000434c:	00d74023          	sq	a3,0(a4)
80004350:	0007a783          	lw	a5,0(a5)
80004354:	020797db          	sllid	a5,a5,0x20
80004358:	0207d7db          	srlid	a5,a5,0x20
8000435c:	04079793          	slli	a5,a5,0x40
80004360:	0407d793          	srli	a5,a5,0x40
80004364:	fcf43c23          	sd	a5,-40(s0)
80004368:	f604278f          	lq	a5,-160(s0)
8000436c:	0187c783          	lbu	a5,24(a5)
80004370:	00078713          	mv	a4,a5
80004374:	06f00793          	li	a5,111
80004378:	00f71663          	bne	a4,a5,80004384 <_printf_i+0x268>
8000437c:	00800793          	li	a5,8
80004380:	0080006f          	j	80004388 <_printf_i+0x26c>
80004384:	00a00793          	li	a5,10
80004388:	fcf42a23          	sw	a5,-44(s0)
8000438c:	1500006f          	j	800044dc <_printf_i+0x3c0>
80004390:	f604278f          	lq	a5,-160(s0)
80004394:	05800713          	li	a4,88
80004398:	04e782a3          	sb	a4,69(a5)
8000439c:	04c0006f          	j	800043e8 <_printf_i+0x2cc>
800043a0:	f604278f          	lq	a5,-160(s0)
800043a4:	0007a783          	lw	a5,0(a5)
800043a8:	0207e793          	ori	a5,a5,32
800043ac:	0007871b          	sext.w	a4,a5
800043b0:	f604278f          	lq	a5,-160(s0)
800043b4:	00e7a023          	sw	a4,0(a5)
800043b8:	f604278f          	lq	a5,-160(s0)
800043bc:	0007a783          	lw	a5,0(a5)
800043c0:	0807e793          	ori	a5,a5,128
800043c4:	0007871b          	sext.w	a4,a5
800043c8:	f604278f          	lq	a5,-160(s0)
800043cc:	00e7a023          	sw	a4,0(a5)
800043d0:	f604278f          	lq	a5,-160(s0)
800043d4:	07800713          	li	a4,120
800043d8:	04e782a3          	sb	a4,69(a5)
800043dc:	00009797          	auipc	a5,0x9
800043e0:	fa478793          	addi	a5,a5,-92 # 8000d380 <puts+0x22c>
800043e4:	faf44823          	sq	a5,-80(s0)
800043e8:	f604278f          	lq	a5,-160(s0)
800043ec:	0007a783          	lw	a5,0(a5)
800043f0:	0807f793          	andi	a5,a5,128
800043f4:	0007879b          	sext.w	a5,a5
800043f8:	02078063          	beqz	a5,80004418 <_printf_i+0x2fc>
800043fc:	f304278f          	lq	a5,-208(s0)
80004400:	0007a78f          	lq	a5,0(a5)
80004404:	01078693          	addi	a3,a5,16
80004408:	f304270f          	lq	a4,-208(s0)
8000440c:	00d74023          	sq	a3,0(a4)
80004410:	0007f783          	ldu	a5,0(a5)
80004414:	0640006f          	j	80004478 <_printf_i+0x35c>
80004418:	f604278f          	lq	a5,-160(s0)
8000441c:	0007a783          	lw	a5,0(a5)
80004420:	0407f793          	andi	a5,a5,64
80004424:	0007879b          	sext.w	a5,a5
80004428:	02078463          	beqz	a5,80004450 <_printf_i+0x334>
8000442c:	f304278f          	lq	a5,-208(s0)
80004430:	0007a78f          	lq	a5,0(a5)
80004434:	01078693          	addi	a3,a5,16
80004438:	f304270f          	lq	a4,-208(s0)
8000443c:	00d74023          	sq	a3,0(a4)
80004440:	0007a783          	lw	a5,0(a5)
80004444:	07079793          	slli	a5,a5,0x70
80004448:	0707d793          	srli	a5,a5,0x70
8000444c:	02c0006f          	j	80004478 <_printf_i+0x35c>
80004450:	f304278f          	lq	a5,-208(s0)
80004454:	0007a78f          	lq	a5,0(a5)
80004458:	01078693          	addi	a3,a5,16
8000445c:	f304270f          	lq	a4,-208(s0)
80004460:	00d74023          	sq	a3,0(a4)
80004464:	0007a783          	lw	a5,0(a5)
80004468:	020797db          	sllid	a5,a5,0x20
8000446c:	0207d7db          	srlid	a5,a5,0x20
80004470:	04079793          	slli	a5,a5,0x40
80004474:	0407d793          	srli	a5,a5,0x40
80004478:	fcf43c23          	sd	a5,-40(s0)
8000447c:	01000793          	li	a5,16
80004480:	fcf42a23          	sw	a5,-44(s0)
80004484:	f604278f          	lq	a5,-160(s0)
80004488:	0007a783          	lw	a5,0(a5)
8000448c:	0017f793          	andi	a5,a5,1
80004490:	0007879b          	sext.w	a5,a5
80004494:	00078e63          	beqz	a5,800044b0 <_printf_i+0x394>
80004498:	f604278f          	lq	a5,-160(s0)
8000449c:	0007a783          	lw	a5,0(a5)
800044a0:	0207e793          	ori	a5,a5,32
800044a4:	0007871b          	sext.w	a4,a5
800044a8:	f604278f          	lq	a5,-160(s0)
800044ac:	00e7a023          	sw	a4,0(a5)
800044b0:	fd843783          	ld	a5,-40(s0)
800044b4:	000787db          	addid	a5,a5,0
800044b8:	02079063          	bnez	a5,800044d8 <_printf_i+0x3bc>
800044bc:	f604278f          	lq	a5,-160(s0)
800044c0:	0007a783          	lw	a5,0(a5)
800044c4:	fdf7f793          	andi	a5,a5,-33
800044c8:	0007871b          	sext.w	a4,a5
800044cc:	f604278f          	lq	a5,-160(s0)
800044d0:	00e7a023          	sw	a4,0(a5)
800044d4:	0080006f          	j	800044dc <_printf_i+0x3c0>
800044d8:	00000013          	nop
800044dc:	f604278f          	lq	a5,-160(s0)
800044e0:	040781a3          	sb	zero,67(a5)
800044e4:	f604278f          	lq	a5,-160(s0)
800044e8:	0047a703          	lw	a4,4(a5)
800044ec:	f604278f          	lq	a5,-160(s0)
800044f0:	00e7a423          	sw	a4,8(a5)
800044f4:	f604278f          	lq	a5,-160(s0)
800044f8:	0087a783          	lw	a5,8(a5)
800044fc:	0007ce63          	bltz	a5,80004518 <_printf_i+0x3fc>
80004500:	f604278f          	lq	a5,-160(s0)
80004504:	0007a783          	lw	a5,0(a5)
80004508:	ffb7f793          	andi	a5,a5,-5
8000450c:	0007871b          	sext.w	a4,a5
80004510:	f604278f          	lq	a5,-160(s0)
80004514:	00e7a023          	sw	a4,0(a5)
80004518:	fd843783          	ld	a5,-40(s0)
8000451c:	000787db          	addid	a5,a5,0
80004520:	00079863          	bnez	a5,80004530 <_printf_i+0x414>
80004524:	f604278f          	lq	a5,-160(s0)
80004528:	0047a783          	lw	a5,4(a5)
8000452c:	06078463          	beqz	a5,80004594 <_printf_i+0x478>
80004530:	fd442783          	lw	a5,-44(s0)
80004534:	04079793          	slli	a5,a5,0x40
80004538:	0407d793          	srli	a5,a5,0x40
8000453c:	fd843703          	ld	a4,-40(s0)
80004540:	02f777fb          	remud	a5,a4,a5
80004544:	04079793          	slli	a5,a5,0x40
80004548:	0407d793          	srli	a5,a5,0x40
8000454c:	00078713          	mv	a4,a5
80004550:	fb04278f          	lq	a5,-80(s0)
80004554:	00e787b3          	add	a5,a5,a4
80004558:	fc04270f          	lq	a4,-64(s0)
8000455c:	fff70713          	addi	a4,a4,-1
80004560:	fce44023          	sq	a4,-64(s0)
80004564:	0007c703          	lbu	a4,0(a5)
80004568:	fc04278f          	lq	a5,-64(s0)
8000456c:	00e78023          	sb	a4,0(a5)
80004570:	fd442783          	lw	a5,-44(s0)
80004574:	04079793          	slli	a5,a5,0x40
80004578:	0407d793          	srli	a5,a5,0x40
8000457c:	fd843703          	ld	a4,-40(s0)
80004580:	02f757fb          	divud	a5,a4,a5
80004584:	fcf43c23          	sd	a5,-40(s0)
80004588:	fd843783          	ld	a5,-40(s0)
8000458c:	000787db          	addid	a5,a5,0
80004590:	fa0790e3          	bnez	a5,80004530 <_ebss+0xffe03820>
80004594:	fd442783          	lw	a5,-44(s0)
80004598:	0007871b          	sext.w	a4,a5
8000459c:	00800793          	li	a5,8
800045a0:	04f71263          	bne	a4,a5,800045e4 <_printf_i+0x4c8>
800045a4:	f604278f          	lq	a5,-160(s0)
800045a8:	0007a783          	lw	a5,0(a5)
800045ac:	0017f793          	andi	a5,a5,1
800045b0:	0007879b          	sext.w	a5,a5
800045b4:	02078863          	beqz	a5,800045e4 <_printf_i+0x4c8>
800045b8:	f604278f          	lq	a5,-160(s0)
800045bc:	0047a703          	lw	a4,4(a5)
800045c0:	f604278f          	lq	a5,-160(s0)
800045c4:	0107a783          	lw	a5,16(a5)
800045c8:	00e7ce63          	blt	a5,a4,800045e4 <_printf_i+0x4c8>
800045cc:	fc04278f          	lq	a5,-64(s0)
800045d0:	fff78793          	addi	a5,a5,-1
800045d4:	fcf44023          	sq	a5,-64(s0)
800045d8:	fc04278f          	lq	a5,-64(s0)
800045dc:	03000713          	li	a4,48
800045e0:	00e78023          	sb	a4,0(a5)
800045e4:	f604278f          	lq	a5,-160(s0)
800045e8:	01b78793          	addi	a5,a5,27
800045ec:	02878713          	addi	a4,a5,40
800045f0:	fc04278f          	lq	a5,-64(s0)
800045f4:	40f707b3          	sub	a5,a4,a5
800045f8:	0007871b          	sext.w	a4,a5
800045fc:	f604278f          	lq	a5,-160(s0)
80004600:	00e7a823          	sw	a4,16(a5)
80004604:	1580006f          	j	8000475c <_printf_i+0x640>
80004608:	f604278f          	lq	a5,-160(s0)
8000460c:	0007a783          	lw	a5,0(a5)
80004610:	0807f793          	andi	a5,a5,128
80004614:	0007879b          	sext.w	a5,a5
80004618:	02078863          	beqz	a5,80004648 <_printf_i+0x52c>
8000461c:	f604278f          	lq	a5,-160(s0)
80004620:	0147a603          	lw	a2,20(a5)
80004624:	f304278f          	lq	a5,-208(s0)
80004628:	0007a78f          	lq	a5,0(a5)
8000462c:	01078693          	addi	a3,a5,16
80004630:	f304270f          	lq	a4,-208(s0)
80004634:	00d74023          	sq	a3,0(a4)
80004638:	0007a78f          	lq	a5,0(a5)
8000463c:	00060713          	mv	a4,a2
80004640:	00e7b023          	sd	a4,0(a5)
80004644:	06c0006f          	j	800046b0 <_printf_i+0x594>
80004648:	f604278f          	lq	a5,-160(s0)
8000464c:	0007a783          	lw	a5,0(a5)
80004650:	0407f793          	andi	a5,a5,64
80004654:	0007879b          	sext.w	a5,a5
80004658:	02078a63          	beqz	a5,8000468c <_printf_i+0x570>
8000465c:	f604278f          	lq	a5,-160(s0)
80004660:	0147a603          	lw	a2,20(a5)
80004664:	f304278f          	lq	a5,-208(s0)
80004668:	0007a78f          	lq	a5,0(a5)
8000466c:	01078693          	addi	a3,a5,16
80004670:	f304270f          	lq	a4,-208(s0)
80004674:	00d74023          	sq	a3,0(a4)
80004678:	0007a78f          	lq	a5,0(a5)
8000467c:	0106171b          	sllw	a4,a2,0x10
80004680:	4107571b          	sraw	a4,a4,0x10
80004684:	00e79023          	sh	a4,0(a5)
80004688:	0280006f          	j	800046b0 <_printf_i+0x594>
8000468c:	f304278f          	lq	a5,-208(s0)
80004690:	0007a78f          	lq	a5,0(a5)
80004694:	01078693          	addi	a3,a5,16
80004698:	f304270f          	lq	a4,-208(s0)
8000469c:	00d74023          	sq	a3,0(a4)
800046a0:	0007a78f          	lq	a5,0(a5)
800046a4:	f604270f          	lq	a4,-160(s0)
800046a8:	01472703          	lw	a4,20(a4)
800046ac:	00e7a023          	sw	a4,0(a5)
800046b0:	f604278f          	lq	a5,-160(s0)
800046b4:	0007a823          	sw	zero,16(a5)
800046b8:	0a40006f          	j	8000475c <_printf_i+0x640>
800046bc:	f304278f          	lq	a5,-208(s0)
800046c0:	0007a78f          	lq	a5,0(a5)
800046c4:	01078693          	addi	a3,a5,16
800046c8:	f304270f          	lq	a4,-208(s0)
800046cc:	00d74023          	sq	a3,0(a4)
800046d0:	0007a78f          	lq	a5,0(a5)
800046d4:	fcf44023          	sq	a5,-64(s0)
800046d8:	f604278f          	lq	a5,-160(s0)
800046dc:	0047a783          	lw	a5,4(a5)
800046e0:	00078613          	mv	a2,a5
800046e4:	00000593          	li	a1,0
800046e8:	fc04250f          	lq	a0,-64(s0)
800046ec:	509040ef          	jal	800093f4 <memchr>
800046f0:	f8a44823          	sq	a0,-112(s0)
800046f4:	f904278f          	lq	a5,-112(s0)
800046f8:	00078e63          	beqz	a5,80004714 <_printf_i+0x5f8>
800046fc:	f904270f          	lq	a4,-112(s0)
80004700:	fc04278f          	lq	a5,-64(s0)
80004704:	40f707b3          	sub	a5,a4,a5
80004708:	0007871b          	sext.w	a4,a5
8000470c:	f604278f          	lq	a5,-160(s0)
80004710:	00e7a223          	sw	a4,4(a5)
80004714:	f604278f          	lq	a5,-160(s0)
80004718:	0047a703          	lw	a4,4(a5)
8000471c:	f604278f          	lq	a5,-160(s0)
80004720:	00e7a823          	sw	a4,16(a5)
80004724:	02c0006f          	j	80004750 <_printf_i+0x634>
80004728:	fc04278f          	lq	a5,-64(s0)
8000472c:	fff78793          	addi	a5,a5,-1
80004730:	fcf44023          	sq	a5,-64(s0)
80004734:	f604278f          	lq	a5,-160(s0)
80004738:	0187c703          	lbu	a4,24(a5)
8000473c:	fc04278f          	lq	a5,-64(s0)
80004740:	00e78023          	sb	a4,0(a5)
80004744:	f604278f          	lq	a5,-160(s0)
80004748:	00100713          	li	a4,1
8000474c:	00e7a823          	sw	a4,16(a5)
80004750:	f604278f          	lq	a5,-160(s0)
80004754:	040781a3          	sb	zero,67(a5)
80004758:	00000013          	nop
8000475c:	f8840793          	addi	a5,s0,-120
80004760:	f404270f          	lq	a4,-192(s0)
80004764:	f504268f          	lq	a3,-176(s0)
80004768:	00078613          	mv	a2,a5
8000476c:	f604258f          	lq	a1,-160(s0)
80004770:	f704250f          	lq	a0,-144(s0)
80004774:	ef0ff0ef          	jal	80003e64 <_ebss+0xffe03154>
80004778:	00050793          	mv	a5,a0
8000477c:	f8f42623          	sw	a5,-116(s0)
80004780:	f8c42783          	lw	a5,-116(s0)
80004784:	0007871b          	sext.w	a4,a5
80004788:	fff00793          	li	a5,-1
8000478c:	0cf70e63          	beq	a4,a5,80004868 <_printf_i+0x74c>
80004790:	f604278f          	lq	a5,-160(s0)
80004794:	0107a783          	lw	a5,16(a5)
80004798:	00078713          	mv	a4,a5
8000479c:	f404278f          	lq	a5,-192(s0)
800047a0:	00070693          	mv	a3,a4
800047a4:	fc04260f          	lq	a2,-64(s0)
800047a8:	f504258f          	lq	a1,-176(s0)
800047ac:	f704250f          	lq	a0,-144(s0)
800047b0:	000780e7          	jalr	a5
800047b4:	00050793          	mv	a5,a0
800047b8:	00078713          	mv	a4,a5
800047bc:	fff00793          	li	a5,-1
800047c0:	0af70663          	beq	a4,a5,8000486c <_printf_i+0x750>
800047c4:	f604278f          	lq	a5,-160(s0)
800047c8:	0007a783          	lw	a5,0(a5)
800047cc:	0027f793          	andi	a5,a5,2
800047d0:	0007879b          	sext.w	a5,a5
800047d4:	06078463          	beqz	a5,8000483c <_printf_i+0x720>
800047d8:	fa042623          	sw	zero,-84(s0)
800047dc:	0400006f          	j	8000481c <_printf_i+0x700>
800047e0:	f604278f          	lq	a5,-160(s0)
800047e4:	01978713          	addi	a4,a5,25
800047e8:	f404278f          	lq	a5,-192(s0)
800047ec:	00100693          	li	a3,1
800047f0:	00070613          	mv	a2,a4
800047f4:	f504258f          	lq	a1,-176(s0)
800047f8:	f704250f          	lq	a0,-144(s0)
800047fc:	000780e7          	jalr	a5
80004800:	00050793          	mv	a5,a0
80004804:	00078713          	mv	a4,a5
80004808:	fff00793          	li	a5,-1
8000480c:	06f70063          	beq	a4,a5,8000486c <_printf_i+0x750>
80004810:	fac42783          	lw	a5,-84(s0)
80004814:	0017879b          	addw	a5,a5,1
80004818:	faf42623          	sw	a5,-84(s0)
8000481c:	f604278f          	lq	a5,-160(s0)
80004820:	00c7a703          	lw	a4,12(a5)
80004824:	f8842783          	lw	a5,-120(s0)
80004828:	40f707bb          	subw	a5,a4,a5
8000482c:	0007871b          	sext.w	a4,a5
80004830:	fac42783          	lw	a5,-84(s0)
80004834:	0007879b          	sext.w	a5,a5
80004838:	fae7c4e3          	blt	a5,a4,800047e0 <_ebss+0xffe03ad0>
8000483c:	f604278f          	lq	a5,-160(s0)
80004840:	00c7a783          	lw	a5,12(a5)
80004844:	f8842703          	lw	a4,-120(s0)
80004848:	00070613          	mv	a2,a4
8000484c:	00078693          	mv	a3,a5
80004850:	0006871b          	sext.w	a4,a3
80004854:	0006079b          	sext.w	a5,a2
80004858:	00f75463          	bge	a4,a5,80004860 <_printf_i+0x744>
8000485c:	00060693          	mv	a3,a2
80004860:	0006879b          	sext.w	a5,a3
80004864:	00c0006f          	j	80004870 <_printf_i+0x754>
80004868:	00000013          	nop
8000486c:	fff00793          	li	a5,-1
80004870:	00078513          	mv	a0,a5
80004874:	0c01208f          	lq	ra,192(sp)
80004878:	0b01240f          	lq	s0,176(sp)
8000487c:	0d010113          	addi	sp,sp,208
80004880:	00008067          	ret

80004884 <memset>:
80004884:	01f00793          	li	a5,31
80004888:	00050693          	mv	a3,a0
8000488c:	10c7f463          	bgeu	a5,a2,80004994 <memset+0x110>
80004890:	00f6f713          	andi	a4,a3,15
80004894:	02070663          	beqz	a4,800048c0 <memset+0x3c>
80004898:	00000297          	auipc	t0,0x0
8000489c:	00271313          	slli	t1,a4,0x2
800048a0:	006282b3          	add	t0,t0,t1
800048a4:	00008313          	mv	t1,ra
800048a8:	14c280e7          	jalr	332(t0) # 800049e4 <memset+0x160>
800048ac:	00030093          	mv	ra,t1
800048b0:	ff070713          	addi	a4,a4,-16
800048b4:	00e60633          	add	a2,a2,a4
800048b8:	40e686b3          	sub	a3,a3,a4
800048bc:	0cc7fc63          	bgeu	a5,a2,80004994 <memset+0x110>
800048c0:	00059463          	bnez	a1,800048c8 <memset+0x44>
800048c4:	0180006f          	j	800048dc <memset+0x58>
800048c8:	0ff5f593          	zext.b	a1,a1
800048cc:	00859293          	slli	t0,a1,0x8
800048d0:	0055e5b3          	or	a1,a1,t0
800048d4:	01059293          	slli	t0,a1,0x10
800048d8:	0055e5b3          	or	a1,a1,t0
800048dc:	ff067293          	andi	t0,a2,-16
800048e0:	00568333          	add	t1,a3,t0
800048e4:	1f02f293          	andi	t0,t0,496
800048e8:	00028e63          	beqz	t0,80004904 <memset+0x80>
800048ec:	405002b3          	neg	t0,t0
800048f0:	20028293          	addi	t0,t0,512
800048f4:	405686b3          	sub	a3,a3,t0
800048f8:	00000397          	auipc	t2,0x0
800048fc:	005383b3          	add	t2,t2,t0
80004900:	00c38067          	jr	12(t2) # 80004904 <memset+0x80>
80004904:	00b6c023          	sq	a1,0(a3)
80004908:	00b6c823          	sq	a1,16(a3)
8000490c:	02b6c023          	sq	a1,32(a3)
80004910:	02b6c823          	sq	a1,48(a3)
80004914:	04b6c023          	sq	a1,64(a3)
80004918:	04b6c823          	sq	a1,80(a3)
8000491c:	06b6c023          	sq	a1,96(a3)
80004920:	06b6c823          	sq	a1,112(a3)
80004924:	08b6c023          	sq	a1,128(a3)
80004928:	08b6c823          	sq	a1,144(a3)
8000492c:	0ab6c023          	sq	a1,160(a3)
80004930:	0ab6c823          	sq	a1,176(a3)
80004934:	0cb6c023          	sq	a1,192(a3)
80004938:	0cb6c823          	sq	a1,208(a3)
8000493c:	0eb6c023          	sq	a1,224(a3)
80004940:	0eb6c823          	sq	a1,240(a3)
80004944:	10b6c023          	sq	a1,256(a3)
80004948:	10b6c823          	sq	a1,272(a3)
8000494c:	12b6c023          	sq	a1,288(a3)
80004950:	12b6c823          	sq	a1,304(a3)
80004954:	14b6c023          	sq	a1,320(a3)
80004958:	14b6c823          	sq	a1,336(a3)
8000495c:	16b6c023          	sq	a1,352(a3)
80004960:	16b6c823          	sq	a1,368(a3)
80004964:	18b6c023          	sq	a1,384(a3)
80004968:	18b6c823          	sq	a1,400(a3)
8000496c:	1ab6c023          	sq	a1,416(a3)
80004970:	1ab6c823          	sq	a1,432(a3)
80004974:	1cb6c023          	sq	a1,448(a3)
80004978:	1cb6c823          	sq	a1,464(a3)
8000497c:	1eb6c023          	sq	a1,480(a3)
80004980:	1eb6c823          	sq	a1,496(a3)
80004984:	20068693          	addi	a3,a3,512
80004988:	f666eee3          	bltu	a3,t1,80004904 <_ebss+0xffe03bf4>
8000498c:	00f67613          	andi	a2,a2,15
80004990:	08060a63          	beqz	a2,80004a24 <memset+0x1a0>
80004994:	00000297          	auipc	t0,0x0
80004998:	40c78633          	sub	a2,a5,a2
8000499c:	00261613          	slli	a2,a2,0x2
800049a0:	00c282b3          	add	t0,t0,a2
800049a4:	01428067          	jr	20(t0) # 800049a8 <memset+0x124>
800049a8:	00b68f23          	sb	a1,30(a3)
800049ac:	00b68ea3          	sb	a1,29(a3)
800049b0:	00b68e23          	sb	a1,28(a3)
800049b4:	00b68da3          	sb	a1,27(a3)
800049b8:	00b68d23          	sb	a1,26(a3)
800049bc:	00b68ca3          	sb	a1,25(a3)
800049c0:	00b68c23          	sb	a1,24(a3)
800049c4:	00b68ba3          	sb	a1,23(a3)
800049c8:	00b68b23          	sb	a1,22(a3)
800049cc:	00b68aa3          	sb	a1,21(a3)
800049d0:	00b68a23          	sb	a1,20(a3)
800049d4:	00b689a3          	sb	a1,19(a3)
800049d8:	00b68923          	sb	a1,18(a3)
800049dc:	00b688a3          	sb	a1,17(a3)
800049e0:	00b68823          	sb	a1,16(a3)
800049e4:	00b687a3          	sb	a1,15(a3)
800049e8:	00b68723          	sb	a1,14(a3)
800049ec:	00b686a3          	sb	a1,13(a3)
800049f0:	00b68623          	sb	a1,12(a3)
800049f4:	00b685a3          	sb	a1,11(a3)
800049f8:	00b68523          	sb	a1,10(a3)
800049fc:	00b684a3          	sb	a1,9(a3)
80004a00:	00b68423          	sb	a1,8(a3)
80004a04:	00b683a3          	sb	a1,7(a3)
80004a08:	00b68323          	sb	a1,6(a3)
80004a0c:	00b682a3          	sb	a1,5(a3)
80004a10:	00b68223          	sb	a1,4(a3)
80004a14:	00b681a3          	sb	a1,3(a3)
80004a18:	00b68123          	sb	a1,2(a3)
80004a1c:	00b680a3          	sb	a1,1(a3)
80004a20:	00b68023          	sb	a1,0(a3)
80004a24:	00008067          	ret

80004a28 <__malloc_lock>:
80004a28:	fe010113          	addi	sp,sp,-32
80004a2c:	00814823          	sq	s0,16(sp)
80004a30:	02010413          	addi	s0,sp,32
80004a34:	fea44023          	sq	a0,-32(s0)
80004a38:	00000013          	nop
80004a3c:	0101240f          	lq	s0,16(sp)
80004a40:	02010113          	addi	sp,sp,32
80004a44:	00008067          	ret

80004a48 <__malloc_unlock>:
80004a48:	fe010113          	addi	sp,sp,-32
80004a4c:	00814823          	sq	s0,16(sp)
80004a50:	02010413          	addi	s0,sp,32
80004a54:	fea44023          	sq	a0,-32(s0)
80004a58:	00000013          	nop
80004a5c:	0101240f          	lq	s0,16(sp)
80004a60:	02010113          	addi	sp,sp,32
80004a64:	00008067          	ret

80004a68 <exit>:
80004a68:	fd010113          	addi	sp,sp,-48
80004a6c:	02114023          	sq	ra,32(sp)
80004a70:	00814823          	sq	s0,16(sp)
80004a74:	03010413          	addi	s0,sp,48
80004a78:	00050793          	mv	a5,a0
80004a7c:	fcf42e23          	sw	a5,-36(s0)
80004a80:	00000793          	li	a5,0
80004a84:	00078c63          	beqz	a5,80004a9c <exit+0x34>
80004a88:	fdc42783          	lw	a5,-36(s0)
80004a8c:	00000593          	li	a1,0
80004a90:	00078513          	mv	a0,a5
80004a94:	00000097          	auipc	ra,0x0
80004a98:	000000e7          	jalr	zero # 0 <UART_BASE-0x10000000>
80004a9c:	001fc797          	auipc	a5,0x1fc
80004aa0:	94478793          	addi	a5,a5,-1724 # 802003e0 <__stdio_exit_handler>
80004aa4:	0007a78f          	lq	a5,0(a5)
80004aa8:	00078a63          	beqz	a5,80004abc <exit+0x54>
80004aac:	001fc797          	auipc	a5,0x1fc
80004ab0:	93478793          	addi	a5,a5,-1740 # 802003e0 <__stdio_exit_handler>
80004ab4:	0007a78f          	lq	a5,0(a5)
80004ab8:	000780e7          	jalr	a5
80004abc:	fdc42783          	lw	a5,-36(s0)
80004ac0:	00078513          	mv	a0,a5
80004ac4:	2a5070ef          	jal	8000c568 <_exit>

80004ac8 <_iprintf_r>:
80004ac8:	f3010113          	addi	sp,sp,-208
80004acc:	06114023          	sq	ra,96(sp)
80004ad0:	04814823          	sq	s0,80(sp)
80004ad4:	07010413          	addi	s0,sp,112
80004ad8:	faa44823          	sq	a0,-80(s0)
80004adc:	fab44023          	sq	a1,-96(s0)
80004ae0:	00c44023          	sq	a2,0(s0)
80004ae4:	00d44823          	sq	a3,16(s0)
80004ae8:	02e44023          	sq	a4,32(s0)
80004aec:	02f44823          	sq	a5,48(s0)
80004af0:	05044023          	sq	a6,64(s0)
80004af4:	05144823          	sq	a7,80(s0)
80004af8:	06040793          	addi	a5,s0,96
80004afc:	f8f44823          	sq	a5,-112(s0)
80004b00:	f904278f          	lq	a5,-112(s0)
80004b04:	fa078793          	addi	a5,a5,-96
80004b08:	fcf44023          	sq	a5,-64(s0)
80004b0c:	fb04278f          	lq	a5,-80(s0)
80004b10:	0207a78f          	lq	a5,32(a5)
80004b14:	fc04270f          	lq	a4,-64(s0)
80004b18:	00070693          	mv	a3,a4
80004b1c:	fa04260f          	lq	a2,-96(s0)
80004b20:	00078593          	mv	a1,a5
80004b24:	fb04250f          	lq	a0,-80(s0)
80004b28:	2e8000ef          	jal	80004e10 <_vfiprintf_r>
80004b2c:	00050793          	mv	a5,a0
80004b30:	fcf42e23          	sw	a5,-36(s0)
80004b34:	fdc42783          	lw	a5,-36(s0)
80004b38:	00078513          	mv	a0,a5
80004b3c:	0601208f          	lq	ra,96(sp)
80004b40:	0501240f          	lq	s0,80(sp)
80004b44:	0d010113          	addi	sp,sp,208
80004b48:	00008067          	ret

80004b4c <iprintf>:
80004b4c:	f2010113          	addi	sp,sp,-224
80004b50:	06114023          	sq	ra,96(sp)
80004b54:	04814823          	sq	s0,80(sp)
80004b58:	07010413          	addi	s0,sp,112
80004b5c:	faa44023          	sq	a0,-96(s0)
80004b60:	00b44023          	sq	a1,0(s0)
80004b64:	00c44823          	sq	a2,16(s0)
80004b68:	02d44023          	sq	a3,32(s0)
80004b6c:	02e44823          	sq	a4,48(s0)
80004b70:	04f44023          	sq	a5,64(s0)
80004b74:	05044823          	sq	a6,80(s0)
80004b78:	07144023          	sq	a7,96(s0)
80004b7c:	001fb797          	auipc	a5,0x1fb
80004b80:	5a478793          	addi	a5,a5,1444 # 80200120 <_impure_ptr>
80004b84:	0007a78f          	lq	a5,0(a5)
80004b88:	fcf44823          	sq	a5,-48(s0)
80004b8c:	07040793          	addi	a5,s0,112
80004b90:	f8f44823          	sq	a5,-112(s0)
80004b94:	f904278f          	lq	a5,-112(s0)
80004b98:	f9078793          	addi	a5,a5,-112
80004b9c:	faf44823          	sq	a5,-80(s0)
80004ba0:	fd04278f          	lq	a5,-48(s0)
80004ba4:	0207a78f          	lq	a5,32(a5)
80004ba8:	fb04270f          	lq	a4,-80(s0)
80004bac:	00070693          	mv	a3,a4
80004bb0:	fa04260f          	lq	a2,-96(s0)
80004bb4:	00078593          	mv	a1,a5
80004bb8:	fd04250f          	lq	a0,-48(s0)
80004bbc:	254000ef          	jal	80004e10 <_vfiprintf_r>
80004bc0:	00050793          	mv	a5,a0
80004bc4:	fcf42623          	sw	a5,-52(s0)
80004bc8:	fcc42783          	lw	a5,-52(s0)
80004bcc:	00078513          	mv	a0,a5
80004bd0:	0601208f          	lq	ra,96(sp)
80004bd4:	0501240f          	lq	s0,80(sp)
80004bd8:	0e010113          	addi	sp,sp,224
80004bdc:	00008067          	ret

80004be0 <__sprint_r>:
80004be0:	fa010113          	addi	sp,sp,-96
80004be4:	04114823          	sq	ra,80(sp)
80004be8:	04814023          	sq	s0,64(sp)
80004bec:	02914823          	sq	s1,48(sp)
80004bf0:	03214023          	sq	s2,32(sp)
80004bf4:	06010413          	addi	s0,sp,96
80004bf8:	faa44823          	sq	a0,-80(s0)
80004bfc:	fab44023          	sq	a1,-96(s0)
80004c00:	00060493          	mv	s1,a2
80004c04:	0204a78f          	lq	a5,32(s1)
80004c08:	00079863          	bnez	a5,80004c18 <__sprint_r+0x38>
80004c0c:	0004a823          	sw	zero,16(s1)
80004c10:	00000793          	li	a5,0
80004c14:	0280006f          	j	80004c3c <__sprint_r+0x5c>
80004c18:	00048613          	mv	a2,s1
80004c1c:	fa04258f          	lq	a1,-96(s0)
80004c20:	fb04250f          	lq	a0,-80(s0)
80004c24:	105020ef          	jal	80007528 <__sfvwrite_r>
80004c28:	00050793          	mv	a5,a0
80004c2c:	00078913          	mv	s2,a5
80004c30:	0204c023          	sq	zero,32(s1)
80004c34:	0004a823          	sw	zero,16(s1)
80004c38:	00090793          	mv	a5,s2
80004c3c:	00078513          	mv	a0,a5
80004c40:	0501208f          	lq	ra,80(sp)
80004c44:	0401240f          	lq	s0,64(sp)
80004c48:	0301248f          	lq	s1,48(sp)
80004c4c:	0201290f          	lq	s2,32(sp)
80004c50:	06010113          	addi	sp,sp,96
80004c54:	00008067          	ret

80004c58 <__sfputc_r>:
80004c58:	fb010113          	addi	sp,sp,-80
80004c5c:	04114023          	sq	ra,64(sp)
80004c60:	02814823          	sq	s0,48(sp)
80004c64:	05010413          	addi	s0,sp,80
80004c68:	fca44823          	sq	a0,-48(s0)
80004c6c:	00058793          	mv	a5,a1
80004c70:	fac44823          	sq	a2,-80(s0)
80004c74:	fcf42623          	sw	a5,-52(s0)
80004c78:	fb04278f          	lq	a5,-80(s0)
80004c7c:	0147a783          	lw	a5,20(a5)
80004c80:	fff7879b          	addw	a5,a5,-1
80004c84:	0007871b          	sext.w	a4,a5
80004c88:	fb04278f          	lq	a5,-80(s0)
80004c8c:	00e7aa23          	sw	a4,20(a5)
80004c90:	fb04278f          	lq	a5,-80(s0)
80004c94:	0147a783          	lw	a5,20(a5)
80004c98:	0207d663          	bgez	a5,80004cc4 <__sfputc_r+0x6c>
80004c9c:	fb04278f          	lq	a5,-80(s0)
80004ca0:	0147a703          	lw	a4,20(a5)
80004ca4:	fb04278f          	lq	a5,-80(s0)
80004ca8:	0407a783          	lw	a5,64(a5)
80004cac:	04f74263          	blt	a4,a5,80004cf0 <__sfputc_r+0x98>
80004cb0:	fcc42783          	lw	a5,-52(s0)
80004cb4:	0ff7f793          	zext.b	a5,a5
80004cb8:	00078713          	mv	a4,a5
80004cbc:	00a00793          	li	a5,10
80004cc0:	02f70863          	beq	a4,a5,80004cf0 <__sfputc_r+0x98>
80004cc4:	fb04278f          	lq	a5,-80(s0)
80004cc8:	0007a78f          	lq	a5,0(a5)
80004ccc:	00178693          	addi	a3,a5,1
80004cd0:	fb04270f          	lq	a4,-80(s0)
80004cd4:	00d74023          	sq	a3,0(a4)
80004cd8:	fcc42703          	lw	a4,-52(s0)
80004cdc:	0ff77713          	zext.b	a4,a4
80004ce0:	00e78023          	sb	a4,0(a5)
80004ce4:	0007c783          	lbu	a5,0(a5)
80004ce8:	0007879b          	sext.w	a5,a5
80004cec:	01c0006f          	j	80004d08 <__sfputc_r+0xb0>
80004cf0:	fcc42783          	lw	a5,-52(s0)
80004cf4:	fb04260f          	lq	a2,-80(s0)
80004cf8:	00078593          	mv	a1,a5
80004cfc:	fd04250f          	lq	a0,-48(s0)
80004d00:	164040ef          	jal	80008e64 <__swbuf_r>
80004d04:	00050793          	mv	a5,a0
80004d08:	00078513          	mv	a0,a5
80004d0c:	0401208f          	lq	ra,64(sp)
80004d10:	0301240f          	lq	s0,48(sp)
80004d14:	05010113          	addi	sp,sp,80
80004d18:	00008067          	ret

80004d1c <__sfputs_r>:
80004d1c:	f9010113          	addi	sp,sp,-112
80004d20:	06114023          	sq	ra,96(sp)
80004d24:	04814823          	sq	s0,80(sp)
80004d28:	04914023          	sq	s1,64(sp)
80004d2c:	07010413          	addi	s0,sp,112
80004d30:	fca44023          	sq	a0,-64(s0)
80004d34:	fab44823          	sq	a1,-80(s0)
80004d38:	fac44023          	sq	a2,-96(s0)
80004d3c:	f8d44823          	sq	a3,-112(s0)
80004d40:	00000493          	li	s1,0
80004d44:	0480006f          	j	80004d8c <__sfputs_r+0x70>
80004d48:	00048713          	mv	a4,s1
80004d4c:	fa04278f          	lq	a5,-96(s0)
80004d50:	00e787b3          	add	a5,a5,a4
80004d54:	0007c783          	lbu	a5,0(a5)
80004d58:	0007879b          	sext.w	a5,a5
80004d5c:	fb04260f          	lq	a2,-80(s0)
80004d60:	00078593          	mv	a1,a5
80004d64:	fc04250f          	lq	a0,-64(s0)
80004d68:	ef1ff0ef          	jal	80004c58 <_ebss+0xffe03f48>
80004d6c:	00050793          	mv	a5,a0
80004d70:	00078713          	mv	a4,a5
80004d74:	fff00793          	li	a5,-1
80004d78:	00f71663          	bne	a4,a5,80004d84 <__sfputs_r+0x68>
80004d7c:	fff00793          	li	a5,-1
80004d80:	01c0006f          	j	80004d9c <__sfputs_r+0x80>
80004d84:	0014879b          	addw	a5,s1,1
80004d88:	0007849b          	sext.w	s1,a5
80004d8c:	00048713          	mv	a4,s1
80004d90:	f904278f          	lq	a5,-112(s0)
80004d94:	faf76ae3          	bltu	a4,a5,80004d48 <_ebss+0xffe04038>
80004d98:	00000793          	li	a5,0
80004d9c:	00078513          	mv	a0,a5
80004da0:	0601208f          	lq	ra,96(sp)
80004da4:	0501240f          	lq	s0,80(sp)
80004da8:	0401248f          	lq	s1,64(sp)
80004dac:	07010113          	addi	sp,sp,112
80004db0:	00008067          	ret

80004db4 <vfiprintf>:
80004db4:	fa010113          	addi	sp,sp,-96
80004db8:	04114823          	sq	ra,80(sp)
80004dbc:	04814023          	sq	s0,64(sp)
80004dc0:	06010413          	addi	s0,sp,96
80004dc4:	fca44023          	sq	a0,-64(s0)
80004dc8:	fab44823          	sq	a1,-80(s0)
80004dcc:	fac44023          	sq	a2,-96(s0)
80004dd0:	001fb797          	auipc	a5,0x1fb
80004dd4:	35078793          	addi	a5,a5,848 # 80200120 <_impure_ptr>
80004dd8:	0007a78f          	lq	a5,0(a5)
80004ddc:	fa04268f          	lq	a3,-96(s0)
80004de0:	fb04260f          	lq	a2,-80(s0)
80004de4:	fc04258f          	lq	a1,-64(s0)
80004de8:	00078513          	mv	a0,a5
80004dec:	024000ef          	jal	80004e10 <_vfiprintf_r>
80004df0:	00050793          	mv	a5,a0
80004df4:	fcf42e23          	sw	a5,-36(s0)
80004df8:	fdc42783          	lw	a5,-36(s0)
80004dfc:	00078513          	mv	a0,a5
80004e00:	0501208f          	lq	ra,80(sp)
80004e04:	0401240f          	lq	s0,64(sp)
80004e08:	06010113          	addi	sp,sp,96
80004e0c:	00008067          	ret

80004e10 <_vfiprintf_r>:
80004e10:	ed010113          	addi	sp,sp,-304
80004e14:	12114023          	sq	ra,288(sp)
80004e18:	10814823          	sq	s0,272(sp)
80004e1c:	10914023          	sq	s1,256(sp)
80004e20:	0f214823          	sq	s2,240(sp)
80004e24:	0f314023          	sq	s3,224(sp)
80004e28:	13010413          	addi	s0,sp,304
80004e2c:	f0a44023          	sq	a0,-256(s0)
80004e30:	eeb44823          	sq	a1,-272(s0)
80004e34:	eec44023          	sq	a2,-288(s0)
80004e38:	ecd44823          	sq	a3,-304(s0)
80004e3c:	00000797          	auipc	a5,0x0
80004e40:	ee078793          	addi	a5,a5,-288 # 80004d1c <__sfputs_r>
80004e44:	faf44023          	sq	a5,-96(s0)
80004e48:	f004278f          	lq	a5,-256(s0)
80004e4c:	f8f44823          	sq	a5,-112(s0)
80004e50:	f904278f          	lq	a5,-112(s0)
80004e54:	00078c63          	beqz	a5,80004e6c <_vfiprintf_r+0x5c>
80004e58:	f904278f          	lq	a5,-112(s0)
80004e5c:	0807a78f          	lq	a5,128(a5)
80004e60:	00079663          	bnez	a5,80004e6c <_vfiprintf_r+0x5c>
80004e64:	f904250f          	lq	a0,-112(s0)
80004e68:	298030ef          	jal	80008100 <__sinit>
80004e6c:	ef04278f          	lq	a5,-272(s0)
80004e70:	01879783          	lh	a5,24(a5)
80004e74:	07079793          	slli	a5,a5,0x70
80004e78:	0707d793          	srli	a5,a5,0x70
80004e7c:	0007879b          	sext.w	a5,a5
80004e80:	0087f793          	andi	a5,a5,8
80004e84:	0007879b          	sext.w	a5,a5
80004e88:	00078863          	beqz	a5,80004e98 <_vfiprintf_r+0x88>
80004e8c:	ef04278f          	lq	a5,-272(s0)
80004e90:	0207a78f          	lq	a5,32(a5)
80004e94:	02079063          	bnez	a5,80004eb4 <_vfiprintf_r+0xa4>
80004e98:	ef04258f          	lq	a1,-272(s0)
80004e9c:	f004250f          	lq	a0,-256(s0)
80004ea0:	2a1030ef          	jal	80008940 <__swsetup_r>
80004ea4:	00050793          	mv	a5,a0
80004ea8:	00078663          	beqz	a5,80004eb4 <_vfiprintf_r+0xa4>
80004eac:	fff00793          	li	a5,-1
80004eb0:	4180006f          	j	800052c8 <_vfiprintf_r+0x4b8>
80004eb4:	ee04248f          	lq	s1,-288(s0)
80004eb8:	f2042a23          	sw	zero,-204(s0)
80004ebc:	02000793          	li	a5,32
80004ec0:	f2f40ca3          	sb	a5,-199(s0)
80004ec4:	03000793          	li	a5,48
80004ec8:	f2f40d23          	sb	a5,-198(s0)
80004ecc:	ed04278f          	lq	a5,-304(s0)
80004ed0:	f0f44823          	sq	a5,-240(s0)
80004ed4:	00048913          	mv	s2,s1
80004ed8:	0080006f          	j	80004ee0 <_vfiprintf_r+0xd0>
80004edc:	00148493          	addi	s1,s1,1
80004ee0:	0004c783          	lbu	a5,0(s1)
80004ee4:	00078a63          	beqz	a5,80004ef8 <_vfiprintf_r+0xe8>
80004ee8:	0004c783          	lbu	a5,0(s1)
80004eec:	00078713          	mv	a4,a5
80004ef0:	02500793          	li	a5,37
80004ef4:	fef714e3          	bne	a4,a5,80004edc <_ebss+0xffe041cc>
80004ef8:	412487b3          	sub	a5,s1,s2
80004efc:	0007899b          	sext.w	s3,a5
80004f00:	04098063          	beqz	s3,80004f40 <_vfiprintf_r+0x130>
80004f04:	00098713          	mv	a4,s3
80004f08:	fa04278f          	lq	a5,-96(s0)
80004f0c:	00070693          	mv	a3,a4
80004f10:	00090613          	mv	a2,s2
80004f14:	ef04258f          	lq	a1,-272(s0)
80004f18:	f004250f          	lq	a0,-256(s0)
80004f1c:	000780e7          	jalr	a5
80004f20:	00050793          	mv	a5,a0
80004f24:	00078713          	mv	a4,a5
80004f28:	fff00793          	li	a5,-1
80004f2c:	36f70863          	beq	a4,a5,8000529c <_vfiprintf_r+0x48c>
80004f30:	f3442783          	lw	a5,-204(s0)
80004f34:	00f987bb          	addw	a5,s3,a5
80004f38:	0007879b          	sext.w	a5,a5
80004f3c:	f2f42a23          	sw	a5,-204(s0)
80004f40:	0004c783          	lbu	a5,0(s1)
80004f44:	34078663          	beqz	a5,80005290 <_vfiprintf_r+0x480>
80004f48:	00148493          	addi	s1,s1,1
80004f4c:	f2042023          	sw	zero,-224(s0)
80004f50:	f2042623          	sw	zero,-212(s0)
80004f54:	fff00793          	li	a5,-1
80004f58:	f2f42223          	sw	a5,-220(s0)
80004f5c:	f2042423          	sw	zero,-216(s0)
80004f60:	f60401a3          	sb	zero,-157(s0)
80004f64:	f6042c23          	sw	zero,-136(s0)
80004f68:	00008797          	auipc	a5,0x8
80004f6c:	4b878793          	addi	a5,a5,1208 # 8000d420 <puts+0x2cc>
80004f70:	f8f44023          	sq	a5,-128(s0)
80004f74:	0300006f          	j	80004fa4 <_vfiprintf_r+0x194>
80004f78:	f2042703          	lw	a4,-224(s0)
80004f7c:	f804278f          	lq	a5,-128(s0)
80004f80:	40f907b3          	sub	a5,s2,a5
80004f84:	0007879b          	sext.w	a5,a5
80004f88:	00100693          	li	a3,1
80004f8c:	00f697bb          	sllw	a5,a3,a5
80004f90:	0007879b          	sext.w	a5,a5
80004f94:	00f767b3          	or	a5,a4,a5
80004f98:	0007879b          	sext.w	a5,a5
80004f9c:	f2f42023          	sw	a5,-224(s0)
80004fa0:	00148493          	addi	s1,s1,1
80004fa4:	0004c783          	lbu	a5,0(s1)
80004fa8:	0007879b          	sext.w	a5,a5
80004fac:	00500613          	li	a2,5
80004fb0:	00078593          	mv	a1,a5
80004fb4:	f804250f          	lq	a0,-128(s0)
80004fb8:	43c040ef          	jal	800093f4 <memchr>
80004fbc:	00050913          	mv	s2,a0
80004fc0:	fa091ce3          	bnez	s2,80004f78 <_ebss+0xffe04268>
80004fc4:	f2042783          	lw	a5,-224(s0)
80004fc8:	0107f793          	andi	a5,a5,16
80004fcc:	0007879b          	sext.w	a5,a5
80004fd0:	00078663          	beqz	a5,80004fdc <_vfiprintf_r+0x1cc>
80004fd4:	02000793          	li	a5,32
80004fd8:	f6f401a3          	sb	a5,-157(s0)
80004fdc:	f2042783          	lw	a5,-224(s0)
80004fe0:	0087f793          	andi	a5,a5,8
80004fe4:	0007879b          	sext.w	a5,a5
80004fe8:	00078663          	beqz	a5,80004ff4 <_vfiprintf_r+0x1e4>
80004fec:	02b00793          	li	a5,43
80004ff0:	f6f401a3          	sb	a5,-157(s0)
80004ff4:	0004c783          	lbu	a5,0(s1)
80004ff8:	00078713          	mv	a4,a5
80004ffc:	02a00793          	li	a5,42
80005000:	08f71263          	bne	a4,a5,80005084 <_vfiprintf_r+0x274>
80005004:	f104278f          	lq	a5,-240(s0)
80005008:	01078713          	addi	a4,a5,16
8000500c:	f0e44823          	sq	a4,-240(s0)
80005010:	0007a783          	lw	a5,0(a5)
80005014:	f2f42623          	sw	a5,-212(s0)
80005018:	f2c42783          	lw	a5,-212(s0)
8000501c:	0207d263          	bgez	a5,80005040 <_vfiprintf_r+0x230>
80005020:	f2c42783          	lw	a5,-212(s0)
80005024:	40f007bb          	negw	a5,a5
80005028:	0007879b          	sext.w	a5,a5
8000502c:	f2f42623          	sw	a5,-212(s0)
80005030:	f2042783          	lw	a5,-224(s0)
80005034:	0027e793          	ori	a5,a5,2
80005038:	0007879b          	sext.w	a5,a5
8000503c:	f2f42023          	sw	a5,-224(s0)
80005040:	00148493          	addi	s1,s1,1
80005044:	0600006f          	j	800050a4 <_vfiprintf_r+0x294>
80005048:	f2c42783          	lw	a5,-212(s0)
8000504c:	00078713          	mv	a4,a5
80005050:	00070793          	mv	a5,a4
80005054:	0027979b          	sllw	a5,a5,0x2
80005058:	00e787bb          	addw	a5,a5,a4
8000505c:	0017979b          	sllw	a5,a5,0x1
80005060:	0007871b          	sext.w	a4,a5
80005064:	0004c783          	lbu	a5,0(s1)
80005068:	0007879b          	sext.w	a5,a5
8000506c:	fd07879b          	addw	a5,a5,-48
80005070:	0007879b          	sext.w	a5,a5
80005074:	00f707bb          	addw	a5,a4,a5
80005078:	0007879b          	sext.w	a5,a5
8000507c:	f2f42623          	sw	a5,-212(s0)
80005080:	00148493          	addi	s1,s1,1
80005084:	0004c783          	lbu	a5,0(s1)
80005088:	0007879b          	sext.w	a5,a5
8000508c:	fd07879b          	addw	a5,a5,-48
80005090:	0007879b          	sext.w	a5,a5
80005094:	0007879b          	sext.w	a5,a5
80005098:	00078713          	mv	a4,a5
8000509c:	00900793          	li	a5,9
800050a0:	fae7f4e3          	bgeu	a5,a4,80005048 <_ebss+0xffe04338>
800050a4:	0004c783          	lbu	a5,0(s1)
800050a8:	00078713          	mv	a4,a5
800050ac:	02e00793          	li	a5,46
800050b0:	0af71463          	bne	a4,a5,80005158 <_vfiprintf_r+0x348>
800050b4:	00148493          	addi	s1,s1,1
800050b8:	0004c783          	lbu	a5,0(s1)
800050bc:	00078713          	mv	a4,a5
800050c0:	02a00793          	li	a5,42
800050c4:	02f71863          	bne	a4,a5,800050f4 <_vfiprintf_r+0x2e4>
800050c8:	00148493          	addi	s1,s1,1
800050cc:	f104278f          	lq	a5,-240(s0)
800050d0:	01078713          	addi	a4,a5,16
800050d4:	f0e44823          	sq	a4,-240(s0)
800050d8:	0007a783          	lw	a5,0(a5)
800050dc:	f2f42223          	sw	a5,-220(s0)
800050e0:	f2442783          	lw	a5,-220(s0)
800050e4:	0607da63          	bgez	a5,80005158 <_vfiprintf_r+0x348>
800050e8:	fff00793          	li	a5,-1
800050ec:	f2f42223          	sw	a5,-220(s0)
800050f0:	0680006f          	j	80005158 <_vfiprintf_r+0x348>
800050f4:	f2042223          	sw	zero,-220(s0)
800050f8:	0400006f          	j	80005138 <_vfiprintf_r+0x328>
800050fc:	f2442783          	lw	a5,-220(s0)
80005100:	00078713          	mv	a4,a5
80005104:	00070793          	mv	a5,a4
80005108:	0027979b          	sllw	a5,a5,0x2
8000510c:	00e787bb          	addw	a5,a5,a4
80005110:	0017979b          	sllw	a5,a5,0x1
80005114:	0007871b          	sext.w	a4,a5
80005118:	0004c783          	lbu	a5,0(s1)
8000511c:	0007879b          	sext.w	a5,a5
80005120:	fd07879b          	addw	a5,a5,-48
80005124:	0007879b          	sext.w	a5,a5
80005128:	00f707bb          	addw	a5,a4,a5
8000512c:	0007879b          	sext.w	a5,a5
80005130:	f2f42223          	sw	a5,-220(s0)
80005134:	00148493          	addi	s1,s1,1
80005138:	0004c783          	lbu	a5,0(s1)
8000513c:	0007879b          	sext.w	a5,a5
80005140:	fd07879b          	addw	a5,a5,-48
80005144:	0007879b          	sext.w	a5,a5
80005148:	0007879b          	sext.w	a5,a5
8000514c:	00078713          	mv	a4,a5
80005150:	00900793          	li	a5,9
80005154:	fae7f4e3          	bgeu	a5,a4,800050fc <_ebss+0xffe043ec>
80005158:	00008797          	auipc	a5,0x8
8000515c:	2d878793          	addi	a5,a5,728 # 8000d430 <puts+0x2dc>
80005160:	f8f44023          	sq	a5,-128(s0)
80005164:	0004c783          	lbu	a5,0(s1)
80005168:	0007879b          	sext.w	a5,a5
8000516c:	00300613          	li	a2,3
80005170:	00078593          	mv	a1,a5
80005174:	f804250f          	lq	a0,-128(s0)
80005178:	27c040ef          	jal	800093f4 <memchr>
8000517c:	00050913          	mv	s2,a0
80005180:	02090863          	beqz	s2,800051b0 <_vfiprintf_r+0x3a0>
80005184:	f2042703          	lw	a4,-224(s0)
80005188:	f804278f          	lq	a5,-128(s0)
8000518c:	40f907b3          	sub	a5,s2,a5
80005190:	0007879b          	sext.w	a5,a5
80005194:	04000693          	li	a3,64
80005198:	00f697bb          	sllw	a5,a3,a5
8000519c:	0007879b          	sext.w	a5,a5
800051a0:	00f767b3          	or	a5,a4,a5
800051a4:	0007879b          	sext.w	a5,a5
800051a8:	f2f42023          	sw	a5,-224(s0)
800051ac:	00148493          	addi	s1,s1,1
800051b0:	00048793          	mv	a5,s1
800051b4:	00178493          	addi	s1,a5,1
800051b8:	0007c783          	lbu	a5,0(a5)
800051bc:	f2f40c23          	sb	a5,-200(s0)
800051c0:	f3844783          	lbu	a5,-200(s0)
800051c4:	0007879b          	sext.w	a5,a5
800051c8:	00600613          	li	a2,6
800051cc:	00078593          	mv	a1,a5
800051d0:	00008517          	auipc	a0,0x8
800051d4:	27050513          	addi	a0,a0,624 # 8000d440 <puts+0x2ec>
800051d8:	21c040ef          	jal	800093f4 <memchr>
800051dc:	00050913          	mv	s2,a0
800051e0:	06090663          	beqz	s2,8000524c <_vfiprintf_r+0x43c>
800051e4:	ffffb797          	auipc	a5,0xffffb
800051e8:	64c78793          	addi	a5,a5,1612 # 80000830 <_ebss+0xffdffb20>
800051ec:	02079c63          	bnez	a5,80005224 <_vfiprintf_r+0x414>
800051f0:	f2042783          	lw	a5,-224(s0)
800051f4:	1007f793          	andi	a5,a5,256
800051f8:	0007879b          	sext.w	a5,a5
800051fc:	00078a63          	beqz	a5,80005210 <_vfiprintf_r+0x400>
80005200:	f104278f          	lq	a5,-240(s0)
80005204:	01078793          	addi	a5,a5,16
80005208:	f0f44823          	sq	a5,-240(s0)
8000520c:	0100006f          	j	8000521c <_vfiprintf_r+0x40c>
80005210:	f104278f          	lq	a5,-240(s0)
80005214:	01078793          	addi	a5,a5,16
80005218:	f0f44823          	sq	a5,-240(s0)
8000521c:	00000913          	li	s2,0
80005220:	0500006f          	j	80005270 <_vfiprintf_r+0x460>
80005224:	f1040713          	addi	a4,s0,-240
80005228:	f2040793          	addi	a5,s0,-224
8000522c:	fa04268f          	lq	a3,-96(s0)
80005230:	ef04260f          	lq	a2,-272(s0)
80005234:	00078593          	mv	a1,a5
80005238:	f004250f          	lq	a0,-256(s0)
8000523c:	df4fb0ef          	jal	80000830 <_ebss+0xffdffb20>
80005240:	00050793          	mv	a5,a0
80005244:	00078913          	mv	s2,a5
80005248:	0280006f          	j	80005270 <_vfiprintf_r+0x460>
8000524c:	f1040713          	addi	a4,s0,-240
80005250:	f2040793          	addi	a5,s0,-224
80005254:	fa04268f          	lq	a3,-96(s0)
80005258:	ef04260f          	lq	a2,-272(s0)
8000525c:	00078593          	mv	a1,a5
80005260:	f004250f          	lq	a0,-256(s0)
80005264:	eb9fe0ef          	jal	8000411c <_ebss+0xffe0340c>
80005268:	00050793          	mv	a5,a0
8000526c:	00078913          	mv	s2,a5
80005270:	00090713          	mv	a4,s2
80005274:	fff00793          	li	a5,-1
80005278:	02f70063          	beq	a4,a5,80005298 <_vfiprintf_r+0x488>
8000527c:	f3442783          	lw	a5,-204(s0)
80005280:	00f907bb          	addw	a5,s2,a5
80005284:	0007879b          	sext.w	a5,a5
80005288:	f2f42a23          	sw	a5,-204(s0)
8000528c:	c49ff06f          	j	80004ed4 <_ebss+0xffe041c4>
80005290:	00000013          	nop
80005294:	0080006f          	j	8000529c <_vfiprintf_r+0x48c>
80005298:	00000013          	nop
8000529c:	ef04278f          	lq	a5,-272(s0)
800052a0:	01879783          	lh	a5,24(a5)
800052a4:	07079793          	slli	a5,a5,0x70
800052a8:	0707d793          	srli	a5,a5,0x70
800052ac:	0007879b          	sext.w	a5,a5
800052b0:	0407f793          	andi	a5,a5,64
800052b4:	0007879b          	sext.w	a5,a5
800052b8:	00079663          	bnez	a5,800052c4 <_vfiprintf_r+0x4b4>
800052bc:	f3442783          	lw	a5,-204(s0)
800052c0:	0080006f          	j	800052c8 <_vfiprintf_r+0x4b8>
800052c4:	fff00793          	li	a5,-1
800052c8:	00078513          	mv	a0,a5
800052cc:	1201208f          	lq	ra,288(sp)
800052d0:	1101240f          	lq	s0,272(sp)
800052d4:	1001248f          	lq	s1,256(sp)
800052d8:	0f01290f          	lq	s2,240(sp)
800052dc:	0e01298f          	lq	s3,224(sp)
800052e0:	13010113          	addi	sp,sp,304
800052e4:	00008067          	ret

800052e8 <__assert_func>:
800052e8:	fa010113          	addi	sp,sp,-96
800052ec:	04114823          	sq	ra,80(sp)
800052f0:	04814023          	sq	s0,64(sp)
800052f4:	06010413          	addi	s0,sp,96
800052f8:	fca44823          	sq	a0,-48(s0)
800052fc:	00058793          	mv	a5,a1
80005300:	fac44823          	sq	a2,-80(s0)
80005304:	fad44023          	sq	a3,-96(s0)
80005308:	fcf42623          	sw	a5,-52(s0)
8000530c:	001fb797          	auipc	a5,0x1fb
80005310:	e1478793          	addi	a5,a5,-492 # 80200120 <_impure_ptr>
80005314:	0007a78f          	lq	a5,0(a5)
80005318:	0307a50f          	lq	a0,48(a5)
8000531c:	fb04278f          	lq	a5,-80(s0)
80005320:	00078863          	beqz	a5,80005330 <__assert_func+0x48>
80005324:	00008797          	auipc	a5,0x8
80005328:	12c78793          	addi	a5,a5,300 # 8000d450 <puts+0x2fc>
8000532c:	00c0006f          	j	80005338 <__assert_func+0x50>
80005330:	00008797          	auipc	a5,0x8
80005334:	13078793          	addi	a5,a5,304 # 8000d460 <puts+0x30c>
80005338:	fb04270f          	lq	a4,-80(s0)
8000533c:	00070663          	beqz	a4,80005348 <__assert_func+0x60>
80005340:	fb04270f          	lq	a4,-80(s0)
80005344:	00c0006f          	j	80005350 <__assert_func+0x68>
80005348:	00008717          	auipc	a4,0x8
8000534c:	11870713          	addi	a4,a4,280 # 8000d460 <puts+0x30c>
80005350:	fcc42683          	lw	a3,-52(s0)
80005354:	00070813          	mv	a6,a4
80005358:	00068713          	mv	a4,a3
8000535c:	fd04268f          	lq	a3,-48(s0)
80005360:	fa04260f          	lq	a2,-96(s0)
80005364:	00008597          	auipc	a1,0x8
80005368:	10c58593          	addi	a1,a1,268 # 8000d470 <puts+0x31c>
8000536c:	74d030ef          	jal	800092b8 <fiprintf>
80005370:	14c030ef          	jal	800084bc <abort>

80005374 <__assert>:
80005374:	fb010113          	addi	sp,sp,-80
80005378:	04114023          	sq	ra,64(sp)
8000537c:	02814823          	sq	s0,48(sp)
80005380:	05010413          	addi	s0,sp,80
80005384:	fca44823          	sq	a0,-48(s0)
80005388:	00058793          	mv	a5,a1
8000538c:	fac44823          	sq	a2,-80(s0)
80005390:	fcf42623          	sw	a5,-52(s0)
80005394:	fcc42783          	lw	a5,-52(s0)
80005398:	fb04268f          	lq	a3,-80(s0)
8000539c:	00000613          	li	a2,0
800053a0:	00078593          	mv	a1,a5
800053a4:	fd04250f          	lq	a0,-48(s0)
800053a8:	f41ff0ef          	jal	800052e8 <_ebss+0xffe045d8>

800053ac <_Balloc>:
800053ac:	f7010113          	addi	sp,sp,-144
800053b0:	08114023          	sq	ra,128(sp)
800053b4:	06814823          	sq	s0,112(sp)
800053b8:	06914023          	sq	s1,96(sp)
800053bc:	09010413          	addi	s0,sp,144
800053c0:	f8a44023          	sq	a0,-128(s0)
800053c4:	00058793          	mv	a5,a1
800053c8:	f6f42e23          	sw	a5,-132(s0)
800053cc:	f804278f          	lq	a5,-128(s0)
800053d0:	faf44823          	sq	a5,-80(s0)
800053d4:	fb04278f          	lq	a5,-80(s0)
800053d8:	0707a78f          	lq	a5,112(a5)
800053dc:	08079063          	bnez	a5,8000545c <_Balloc+0xb0>
800053e0:	04000513          	li	a0,64
800053e4:	9fdfe0ef          	jal	80003de0 <_ebss+0xffe030d0>
800053e8:	00050793          	mv	a5,a0
800053ec:	00078713          	mv	a4,a5
800053f0:	fb04278f          	lq	a5,-80(s0)
800053f4:	06e7c823          	sq	a4,112(a5)
800053f8:	fb04278f          	lq	a5,-80(s0)
800053fc:	0707a78f          	lq	a5,112(a5)
80005400:	02079063          	bnez	a5,80005420 <_Balloc+0x74>
80005404:	00008697          	auipc	a3,0x8
80005408:	09c68693          	addi	a3,a3,156 # 8000d4a0 <puts+0x34c>
8000540c:	00000613          	li	a2,0
80005410:	06b00593          	li	a1,107
80005414:	00008517          	auipc	a0,0x8
80005418:	0ac50513          	addi	a0,a0,172 # 8000d4c0 <puts+0x36c>
8000541c:	ecdff0ef          	jal	800052e8 <_ebss+0xffe045d8>
80005420:	f804278f          	lq	a5,-128(s0)
80005424:	faf44023          	sq	a5,-96(s0)
80005428:	fa04278f          	lq	a5,-96(s0)
8000542c:	0707a78f          	lq	a5,112(a5)
80005430:	0007a823          	sw	zero,16(a5)
80005434:	fa04278f          	lq	a5,-96(s0)
80005438:	0707a78f          	lq	a5,112(a5)
8000543c:	0207c023          	sq	zero,32(a5)
80005440:	fa04270f          	lq	a4,-96(s0)
80005444:	0707270f          	lq	a4,112(a4)
80005448:	0207a78f          	lq	a5,32(a5)
8000544c:	00f74023          	sq	a5,0(a4)
80005450:	fa04278f          	lq	a5,-96(s0)
80005454:	0707a78f          	lq	a5,112(a5)
80005458:	0207c823          	sq	zero,48(a5)
8000545c:	f804278f          	lq	a5,-128(s0)
80005460:	0707a78f          	lq	a5,112(a5)
80005464:	0307a78f          	lq	a5,48(a5)
80005468:	02079e63          	bnez	a5,800054a4 <_Balloc+0xf8>
8000546c:	f804278f          	lq	a5,-128(s0)
80005470:	0707a48f          	lq	s1,112(a5)
80005474:	08100613          	li	a2,129
80005478:	01000593          	li	a1,16
8000547c:	f804250f          	lq	a0,-128(s0)
80005480:	f5dfa0ef          	jal	800003dc <_ebss+0xffdff6cc>
80005484:	00050793          	mv	a5,a0
80005488:	02f4c823          	sq	a5,48(s1)
8000548c:	f804278f          	lq	a5,-128(s0)
80005490:	0707a78f          	lq	a5,112(a5)
80005494:	0307a78f          	lq	a5,48(a5)
80005498:	00079663          	bnez	a5,800054a4 <_Balloc+0xf8>
8000549c:	00000793          	li	a5,0
800054a0:	0d40006f          	j	80005574 <_Balloc+0x1c8>
800054a4:	f804278f          	lq	a5,-128(s0)
800054a8:	0707a78f          	lq	a5,112(a5)
800054ac:	0307a70f          	lq	a4,48(a5)
800054b0:	f7c42783          	lw	a5,-132(s0)
800054b4:	00479793          	slli	a5,a5,0x4
800054b8:	00f707b3          	add	a5,a4,a5
800054bc:	0007a78f          	lq	a5,0(a5)
800054c0:	fcf44023          	sq	a5,-64(s0)
800054c4:	fc04278f          	lq	a5,-64(s0)
800054c8:	02078663          	beqz	a5,800054f4 <_Balloc+0x148>
800054cc:	f804278f          	lq	a5,-128(s0)
800054d0:	0707a78f          	lq	a5,112(a5)
800054d4:	0307a70f          	lq	a4,48(a5)
800054d8:	f7c42783          	lw	a5,-132(s0)
800054dc:	00479793          	slli	a5,a5,0x4
800054e0:	00f707b3          	add	a5,a4,a5
800054e4:	fc04270f          	lq	a4,-64(s0)
800054e8:	0007270f          	lq	a4,0(a4)
800054ec:	00e7c023          	sq	a4,0(a5)
800054f0:	0680006f          	j	80005558 <_Balloc+0x1ac>
800054f4:	f7c42783          	lw	a5,-132(s0)
800054f8:	00078713          	mv	a4,a5
800054fc:	00100793          	li	a5,1
80005500:	00e797bb          	sllw	a5,a5,a4
80005504:	f8f42e23          	sw	a5,-100(s0)
80005508:	f9c42783          	lw	a5,-100(s0)
8000550c:	fff7879b          	addw	a5,a5,-1
80005510:	0007879b          	sext.w	a5,a5
80005514:	00c78793          	addi	a5,a5,12
80005518:	00279793          	slli	a5,a5,0x2
8000551c:	00078613          	mv	a2,a5
80005520:	00100593          	li	a1,1
80005524:	f804250f          	lq	a0,-128(s0)
80005528:	eb5fa0ef          	jal	800003dc <_ebss+0xffdff6cc>
8000552c:	fca44023          	sq	a0,-64(s0)
80005530:	fc04278f          	lq	a5,-64(s0)
80005534:	00079663          	bnez	a5,80005540 <_Balloc+0x194>
80005538:	00000793          	li	a5,0
8000553c:	0380006f          	j	80005574 <_Balloc+0x1c8>
80005540:	fc04278f          	lq	a5,-64(s0)
80005544:	f7c42703          	lw	a4,-132(s0)
80005548:	00e7a823          	sw	a4,16(a5)
8000554c:	fc04278f          	lq	a5,-64(s0)
80005550:	f9c42703          	lw	a4,-100(s0)
80005554:	00e7aa23          	sw	a4,20(a5)
80005558:	fc04278f          	lq	a5,-64(s0)
8000555c:	0007ae23          	sw	zero,28(a5)
80005560:	fc04278f          	lq	a5,-64(s0)
80005564:	01c7a703          	lw	a4,28(a5)
80005568:	fc04278f          	lq	a5,-64(s0)
8000556c:	00e7ac23          	sw	a4,24(a5)
80005570:	fc04278f          	lq	a5,-64(s0)
80005574:	00078513          	mv	a0,a5
80005578:	0801208f          	lq	ra,128(sp)
8000557c:	0701240f          	lq	s0,112(sp)
80005580:	0601248f          	lq	s1,96(sp)
80005584:	09010113          	addi	sp,sp,144
80005588:	00008067          	ret

8000558c <_Bfree>:
8000558c:	fa010113          	addi	sp,sp,-96
80005590:	04114823          	sq	ra,80(sp)
80005594:	04814023          	sq	s0,64(sp)
80005598:	06010413          	addi	s0,sp,96
8000559c:	faa44823          	sq	a0,-80(s0)
800055a0:	fab44023          	sq	a1,-96(s0)
800055a4:	fb04278f          	lq	a5,-80(s0)
800055a8:	fcf44823          	sq	a5,-48(s0)
800055ac:	fd04278f          	lq	a5,-48(s0)
800055b0:	0707a78f          	lq	a5,112(a5)
800055b4:	08079063          	bnez	a5,80005634 <_Bfree+0xa8>
800055b8:	04000513          	li	a0,64
800055bc:	825fe0ef          	jal	80003de0 <_ebss+0xffe030d0>
800055c0:	00050793          	mv	a5,a0
800055c4:	00078713          	mv	a4,a5
800055c8:	fd04278f          	lq	a5,-48(s0)
800055cc:	06e7c823          	sq	a4,112(a5)
800055d0:	fd04278f          	lq	a5,-48(s0)
800055d4:	0707a78f          	lq	a5,112(a5)
800055d8:	02079063          	bnez	a5,800055f8 <_Bfree+0x6c>
800055dc:	00008697          	auipc	a3,0x8
800055e0:	ec468693          	addi	a3,a3,-316 # 8000d4a0 <puts+0x34c>
800055e4:	00000613          	li	a2,0
800055e8:	08f00593          	li	a1,143
800055ec:	00008517          	auipc	a0,0x8
800055f0:	ed450513          	addi	a0,a0,-300 # 8000d4c0 <puts+0x36c>
800055f4:	cf5ff0ef          	jal	800052e8 <_ebss+0xffe045d8>
800055f8:	fb04278f          	lq	a5,-80(s0)
800055fc:	fcf44023          	sq	a5,-64(s0)
80005600:	fc04278f          	lq	a5,-64(s0)
80005604:	0707a78f          	lq	a5,112(a5)
80005608:	0007a823          	sw	zero,16(a5)
8000560c:	fc04278f          	lq	a5,-64(s0)
80005610:	0707a78f          	lq	a5,112(a5)
80005614:	0207c023          	sq	zero,32(a5)
80005618:	fc04270f          	lq	a4,-64(s0)
8000561c:	0707270f          	lq	a4,112(a4)
80005620:	0207a78f          	lq	a5,32(a5)
80005624:	00f74023          	sq	a5,0(a4)
80005628:	fc04278f          	lq	a5,-64(s0)
8000562c:	0707a78f          	lq	a5,112(a5)
80005630:	0207c823          	sq	zero,48(a5)
80005634:	fa04278f          	lq	a5,-96(s0)
80005638:	04078863          	beqz	a5,80005688 <_Bfree+0xfc>
8000563c:	fb04278f          	lq	a5,-80(s0)
80005640:	0707a78f          	lq	a5,112(a5)
80005644:	0307a70f          	lq	a4,48(a5)
80005648:	fa04278f          	lq	a5,-96(s0)
8000564c:	0107a783          	lw	a5,16(a5)
80005650:	00479793          	slli	a5,a5,0x4
80005654:	00f707b3          	add	a5,a4,a5
80005658:	0007a70f          	lq	a4,0(a5)
8000565c:	fa04278f          	lq	a5,-96(s0)
80005660:	00e7c023          	sq	a4,0(a5)
80005664:	fb04278f          	lq	a5,-80(s0)
80005668:	0707a78f          	lq	a5,112(a5)
8000566c:	0307a70f          	lq	a4,48(a5)
80005670:	fa04278f          	lq	a5,-96(s0)
80005674:	0107a783          	lw	a5,16(a5)
80005678:	00479793          	slli	a5,a5,0x4
8000567c:	00f707b3          	add	a5,a4,a5
80005680:	fa04270f          	lq	a4,-96(s0)
80005684:	00e7c023          	sq	a4,0(a5)
80005688:	00000013          	nop
8000568c:	0501208f          	lq	ra,80(sp)
80005690:	0401240f          	lq	s0,64(sp)
80005694:	06010113          	addi	sp,sp,96
80005698:	00008067          	ret

8000569c <__multadd>:
8000569c:	f6010113          	addi	sp,sp,-160
800056a0:	08114823          	sq	ra,144(sp)
800056a4:	08814023          	sq	s0,128(sp)
800056a8:	0a010413          	addi	s0,sp,160
800056ac:	f8a44023          	sq	a0,-128(s0)
800056b0:	f6b44823          	sq	a1,-144(s0)
800056b4:	00060793          	mv	a5,a2
800056b8:	00068713          	mv	a4,a3
800056bc:	f6f42623          	sw	a5,-148(s0)
800056c0:	00070793          	mv	a5,a4
800056c4:	f6f42423          	sw	a5,-152(s0)
800056c8:	f704278f          	lq	a5,-144(s0)
800056cc:	01c7a783          	lw	a5,28(a5)
800056d0:	faf42e23          	sw	a5,-68(s0)
800056d4:	f704278f          	lq	a5,-144(s0)
800056d8:	02078793          	addi	a5,a5,32
800056dc:	fcf44023          	sq	a5,-64(s0)
800056e0:	fc042e23          	sw	zero,-36(s0)
800056e4:	fc04278f          	lq	a5,-64(s0)
800056e8:	0007a783          	lw	a5,0(a5)
800056ec:	faf42c23          	sw	a5,-72(s0)
800056f0:	fb842783          	lw	a5,-72(s0)
800056f4:	00078713          	mv	a4,a5
800056f8:	000107b7          	lui	a5,0x10
800056fc:	fff78793          	addi	a5,a5,-1 # ffff <UART_BASE-0xfff0001>
80005700:	00f777b3          	and	a5,a4,a5
80005704:	0007871b          	sext.w	a4,a5
80005708:	f6c42783          	lw	a5,-148(s0)
8000570c:	02f707bb          	mulw	a5,a4,a5
80005710:	0007871b          	sext.w	a4,a5
80005714:	f6842783          	lw	a5,-152(s0)
80005718:	00f707bb          	addw	a5,a4,a5
8000571c:	faf42a23          	sw	a5,-76(s0)
80005720:	fb842783          	lw	a5,-72(s0)
80005724:	0107d79b          	srlw	a5,a5,0x10
80005728:	0007871b          	sext.w	a4,a5
8000572c:	f6c42783          	lw	a5,-148(s0)
80005730:	02f707bb          	mulw	a5,a4,a5
80005734:	0007871b          	sext.w	a4,a5
80005738:	fb442783          	lw	a5,-76(s0)
8000573c:	0107d79b          	srlw	a5,a5,0x10
80005740:	0007879b          	sext.w	a5,a5
80005744:	00f707bb          	addw	a5,a4,a5
80005748:	faf42823          	sw	a5,-80(s0)
8000574c:	fb042783          	lw	a5,-80(s0)
80005750:	0107d79b          	srlw	a5,a5,0x10
80005754:	0007879b          	sext.w	a5,a5
80005758:	f6f42423          	sw	a5,-152(s0)
8000575c:	fb042783          	lw	a5,-80(s0)
80005760:	0107979b          	sllw	a5,a5,0x10
80005764:	0007869b          	sext.w	a3,a5
80005768:	fb442783          	lw	a5,-76(s0)
8000576c:	00078713          	mv	a4,a5
80005770:	000107b7          	lui	a5,0x10
80005774:	fff78793          	addi	a5,a5,-1 # ffff <UART_BASE-0xfff0001>
80005778:	00f777b3          	and	a5,a4,a5
8000577c:	0007871b          	sext.w	a4,a5
80005780:	fc04278f          	lq	a5,-64(s0)
80005784:	00478613          	addi	a2,a5,4
80005788:	fcc44023          	sq	a2,-64(s0)
8000578c:	00e6873b          	addw	a4,a3,a4
80005790:	0007071b          	sext.w	a4,a4
80005794:	00e7a023          	sw	a4,0(a5)
80005798:	fdc42783          	lw	a5,-36(s0)
8000579c:	0017879b          	addw	a5,a5,1
800057a0:	fcf42e23          	sw	a5,-36(s0)
800057a4:	fdc42783          	lw	a5,-36(s0)
800057a8:	00078713          	mv	a4,a5
800057ac:	fbc42783          	lw	a5,-68(s0)
800057b0:	0007071b          	sext.w	a4,a4
800057b4:	0007879b          	sext.w	a5,a5
800057b8:	f2f746e3          	blt	a4,a5,800056e4 <_ebss+0xffe049d4>
800057bc:	f6842783          	lw	a5,-152(s0)
800057c0:	0007879b          	sext.w	a5,a5
800057c4:	0c078c63          	beqz	a5,8000589c <__multadd+0x200>
800057c8:	f704278f          	lq	a5,-144(s0)
800057cc:	0147a703          	lw	a4,20(a5)
800057d0:	fbc42783          	lw	a5,-68(s0)
800057d4:	0007879b          	sext.w	a5,a5
800057d8:	08e7ca63          	blt	a5,a4,8000586c <__multadd+0x1d0>
800057dc:	f704278f          	lq	a5,-144(s0)
800057e0:	0107a783          	lw	a5,16(a5)
800057e4:	0017879b          	addw	a5,a5,1
800057e8:	0007879b          	sext.w	a5,a5
800057ec:	00078593          	mv	a1,a5
800057f0:	f804250f          	lq	a0,-128(s0)
800057f4:	bb9ff0ef          	jal	800053ac <_ebss+0xffe0469c>
800057f8:	faa44023          	sq	a0,-96(s0)
800057fc:	fa04278f          	lq	a5,-96(s0)
80005800:	02079063          	bnez	a5,80005820 <__multadd+0x184>
80005804:	00008697          	auipc	a3,0x8
80005808:	cec68693          	addi	a3,a3,-788 # 8000d4f0 <puts+0x39c>
8000580c:	00000613          	li	a2,0
80005810:	0ba00593          	li	a1,186
80005814:	00008517          	auipc	a0,0x8
80005818:	cac50513          	addi	a0,a0,-852 # 8000d4c0 <puts+0x36c>
8000581c:	acdff0ef          	jal	800052e8 <_ebss+0xffe045d8>
80005820:	fa04278f          	lq	a5,-96(s0)
80005824:	f8f44823          	sq	a5,-112(s0)
80005828:	f904278f          	lq	a5,-112(s0)
8000582c:	01878713          	addi	a4,a5,24
80005830:	f704278f          	lq	a5,-144(s0)
80005834:	01878693          	addi	a3,a5,24
80005838:	f704278f          	lq	a5,-144(s0)
8000583c:	01c7a783          	lw	a5,28(a5)
80005840:	00278793          	addi	a5,a5,2
80005844:	00279793          	slli	a5,a5,0x2
80005848:	00078613          	mv	a2,a5
8000584c:	00068593          	mv	a1,a3
80005850:	00070513          	mv	a0,a4
80005854:	165020ef          	jal	800081b8 <memcpy>
80005858:	f704258f          	lq	a1,-144(s0)
8000585c:	f804250f          	lq	a0,-128(s0)
80005860:	d2dff0ef          	jal	8000558c <_ebss+0xffe0487c>
80005864:	f904278f          	lq	a5,-112(s0)
80005868:	f6f44823          	sq	a5,-144(s0)
8000586c:	fbc42783          	lw	a5,-68(s0)
80005870:	0017871b          	addw	a4,a5,1
80005874:	fae42e23          	sw	a4,-68(s0)
80005878:	f6842703          	lw	a4,-152(s0)
8000587c:	f704268f          	lq	a3,-144(s0)
80005880:	00878793          	addi	a5,a5,8
80005884:	00279793          	slli	a5,a5,0x2
80005888:	00f687b3          	add	a5,a3,a5
8000588c:	00e7a023          	sw	a4,0(a5)
80005890:	f704278f          	lq	a5,-144(s0)
80005894:	fbc42703          	lw	a4,-68(s0)
80005898:	00e7ae23          	sw	a4,28(a5)
8000589c:	f704278f          	lq	a5,-144(s0)
800058a0:	00078513          	mv	a0,a5
800058a4:	0901208f          	lq	ra,144(sp)
800058a8:	0801240f          	lq	s0,128(sp)
800058ac:	0a010113          	addi	sp,sp,160
800058b0:	00008067          	ret

800058b4 <__s2b>:
800058b4:	f8010113          	addi	sp,sp,-128
800058b8:	06114823          	sq	ra,112(sp)
800058bc:	06814023          	sq	s0,96(sp)
800058c0:	08010413          	addi	s0,sp,128
800058c4:	faa44023          	sq	a0,-96(s0)
800058c8:	f8b44823          	sq	a1,-112(s0)
800058cc:	00060793          	mv	a5,a2
800058d0:	f8f42623          	sw	a5,-116(s0)
800058d4:	00068793          	mv	a5,a3
800058d8:	f8f42423          	sw	a5,-120(s0)
800058dc:	00070793          	mv	a5,a4
800058e0:	f8f42223          	sw	a5,-124(s0)
800058e4:	f8842783          	lw	a5,-120(s0)
800058e8:	0087879b          	addw	a5,a5,8
800058ec:	0007879b          	sext.w	a5,a5
800058f0:	00078713          	mv	a4,a5
800058f4:	00900793          	li	a5,9
800058f8:	02f747bb          	divw	a5,a4,a5
800058fc:	fcf42023          	sw	a5,-64(s0)
80005900:	fc042423          	sw	zero,-56(s0)
80005904:	00100793          	li	a5,1
80005908:	fcf42223          	sw	a5,-60(s0)
8000590c:	01c0006f          	j	80005928 <__s2b+0x74>
80005910:	fc442783          	lw	a5,-60(s0)
80005914:	0017979b          	sllw	a5,a5,0x1
80005918:	fcf42223          	sw	a5,-60(s0)
8000591c:	fc842783          	lw	a5,-56(s0)
80005920:	0017879b          	addw	a5,a5,1
80005924:	fcf42423          	sw	a5,-56(s0)
80005928:	fc042783          	lw	a5,-64(s0)
8000592c:	00078713          	mv	a4,a5
80005930:	fc442783          	lw	a5,-60(s0)
80005934:	0007071b          	sext.w	a4,a4
80005938:	0007879b          	sext.w	a5,a5
8000593c:	fce7cae3          	blt	a5,a4,80005910 <_ebss+0xffe04c00>
80005940:	fc842783          	lw	a5,-56(s0)
80005944:	00078593          	mv	a1,a5
80005948:	fa04250f          	lq	a0,-96(s0)
8000594c:	a61ff0ef          	jal	800053ac <_ebss+0xffe0469c>
80005950:	faa44823          	sq	a0,-80(s0)
80005954:	fb04278f          	lq	a5,-80(s0)
80005958:	02079063          	bnez	a5,80005978 <__s2b+0xc4>
8000595c:	00008697          	auipc	a3,0x8
80005960:	b9468693          	addi	a3,a3,-1132 # 8000d4f0 <puts+0x39c>
80005964:	00000613          	li	a2,0
80005968:	0d300593          	li	a1,211
8000596c:	00008517          	auipc	a0,0x8
80005970:	b5450513          	addi	a0,a0,-1196 # 8000d4c0 <puts+0x36c>
80005974:	975ff0ef          	jal	800052e8 <_ebss+0xffe045d8>
80005978:	fb04278f          	lq	a5,-80(s0)
8000597c:	fcf44823          	sq	a5,-48(s0)
80005980:	fd04278f          	lq	a5,-48(s0)
80005984:	f8442703          	lw	a4,-124(s0)
80005988:	02e7a023          	sw	a4,32(a5)
8000598c:	fd04278f          	lq	a5,-48(s0)
80005990:	00100713          	li	a4,1
80005994:	00e7ae23          	sw	a4,28(a5)
80005998:	00900793          	li	a5,9
8000599c:	fcf42623          	sw	a5,-52(s0)
800059a0:	f8c42783          	lw	a5,-116(s0)
800059a4:	0007871b          	sext.w	a4,a5
800059a8:	00900793          	li	a5,9
800059ac:	06e7dc63          	bge	a5,a4,80005a24 <__s2b+0x170>
800059b0:	f904278f          	lq	a5,-112(s0)
800059b4:	00978793          	addi	a5,a5,9
800059b8:	f8f44823          	sq	a5,-112(s0)
800059bc:	f904278f          	lq	a5,-112(s0)
800059c0:	00178713          	addi	a4,a5,1
800059c4:	f8e44823          	sq	a4,-112(s0)
800059c8:	0007c783          	lbu	a5,0(a5)
800059cc:	0007879b          	sext.w	a5,a5
800059d0:	fd07879b          	addw	a5,a5,-48
800059d4:	0007879b          	sext.w	a5,a5
800059d8:	00078693          	mv	a3,a5
800059dc:	00a00613          	li	a2,10
800059e0:	fd04258f          	lq	a1,-48(s0)
800059e4:	fa04250f          	lq	a0,-96(s0)
800059e8:	cb5ff0ef          	jal	8000569c <_ebss+0xffe0498c>
800059ec:	fca44823          	sq	a0,-48(s0)
800059f0:	fcc42783          	lw	a5,-52(s0)
800059f4:	0017879b          	addw	a5,a5,1
800059f8:	fcf42623          	sw	a5,-52(s0)
800059fc:	fcc42783          	lw	a5,-52(s0)
80005a00:	00078713          	mv	a4,a5
80005a04:	f8c42783          	lw	a5,-116(s0)
80005a08:	0007071b          	sext.w	a4,a4
80005a0c:	0007879b          	sext.w	a5,a5
80005a10:	faf746e3          	blt	a4,a5,800059bc <_ebss+0xffe04cac>
80005a14:	f904278f          	lq	a5,-112(s0)
80005a18:	00178793          	addi	a5,a5,1
80005a1c:	f8f44823          	sq	a5,-112(s0)
80005a20:	0540006f          	j	80005a74 <__s2b+0x1c0>
80005a24:	f904278f          	lq	a5,-112(s0)
80005a28:	00a78793          	addi	a5,a5,10
80005a2c:	f8f44823          	sq	a5,-112(s0)
80005a30:	0440006f          	j	80005a74 <__s2b+0x1c0>
80005a34:	f904278f          	lq	a5,-112(s0)
80005a38:	00178713          	addi	a4,a5,1
80005a3c:	f8e44823          	sq	a4,-112(s0)
80005a40:	0007c783          	lbu	a5,0(a5)
80005a44:	0007879b          	sext.w	a5,a5
80005a48:	fd07879b          	addw	a5,a5,-48
80005a4c:	0007879b          	sext.w	a5,a5
80005a50:	00078693          	mv	a3,a5
80005a54:	00a00613          	li	a2,10
80005a58:	fd04258f          	lq	a1,-48(s0)
80005a5c:	fa04250f          	lq	a0,-96(s0)
80005a60:	c3dff0ef          	jal	8000569c <_ebss+0xffe0498c>
80005a64:	fca44823          	sq	a0,-48(s0)
80005a68:	fcc42783          	lw	a5,-52(s0)
80005a6c:	0017879b          	addw	a5,a5,1
80005a70:	fcf42623          	sw	a5,-52(s0)
80005a74:	fcc42783          	lw	a5,-52(s0)
80005a78:	00078713          	mv	a4,a5
80005a7c:	f8842783          	lw	a5,-120(s0)
80005a80:	0007071b          	sext.w	a4,a4
80005a84:	0007879b          	sext.w	a5,a5
80005a88:	faf746e3          	blt	a4,a5,80005a34 <_ebss+0xffe04d24>
80005a8c:	fd04278f          	lq	a5,-48(s0)
80005a90:	00078513          	mv	a0,a5
80005a94:	0701208f          	lq	ra,112(sp)
80005a98:	0601240f          	lq	s0,96(sp)
80005a9c:	08010113          	addi	sp,sp,128
80005aa0:	00008067          	ret

80005aa4 <__hi0bits>:
80005aa4:	fe010113          	addi	sp,sp,-32
80005aa8:	00814823          	sq	s0,16(sp)
80005aac:	00914023          	sq	s1,0(sp)
80005ab0:	02010413          	addi	s0,sp,32
80005ab4:	00050793          	mv	a5,a0
80005ab8:	00000493          	li	s1,0
80005abc:	00078693          	mv	a3,a5
80005ac0:	00010737          	lui	a4,0x10
80005ac4:	00e6f863          	bgeu	a3,a4,80005ad4 <__hi0bits+0x30>
80005ac8:	01000493          	li	s1,16
80005acc:	0107979b          	sllw	a5,a5,0x10
80005ad0:	0007879b          	sext.w	a5,a5
80005ad4:	00078693          	mv	a3,a5
80005ad8:	01000737          	lui	a4,0x1000
80005adc:	00e6fa63          	bgeu	a3,a4,80005af0 <__hi0bits+0x4c>
80005ae0:	0084871b          	addw	a4,s1,8
80005ae4:	0007049b          	sext.w	s1,a4
80005ae8:	0087979b          	sllw	a5,a5,0x8
80005aec:	0007879b          	sext.w	a5,a5
80005af0:	00078693          	mv	a3,a5
80005af4:	10000737          	lui	a4,0x10000
80005af8:	00e6fa63          	bgeu	a3,a4,80005b0c <__hi0bits+0x68>
80005afc:	0044871b          	addw	a4,s1,4
80005b00:	0007049b          	sext.w	s1,a4
80005b04:	0047979b          	sllw	a5,a5,0x4
80005b08:	0007879b          	sext.w	a5,a5
80005b0c:	00078693          	mv	a3,a5
80005b10:	40000737          	lui	a4,0x40000
80005b14:	00e6fa63          	bgeu	a3,a4,80005b28 <__hi0bits+0x84>
80005b18:	0024871b          	addw	a4,s1,2
80005b1c:	0007049b          	sext.w	s1,a4
80005b20:	0027979b          	sllw	a5,a5,0x2
80005b24:	0007879b          	sext.w	a5,a5
80005b28:	0007871b          	sext.w	a4,a5
80005b2c:	02074463          	bltz	a4,80005b54 <__hi0bits+0xb0>
80005b30:	0014871b          	addw	a4,s1,1
80005b34:	0007049b          	sext.w	s1,a4
80005b38:	00078713          	mv	a4,a5
80005b3c:	400007b7          	lui	a5,0x40000
80005b40:	00f777b3          	and	a5,a4,a5
80005b44:	0007879b          	sext.w	a5,a5
80005b48:	00079663          	bnez	a5,80005b54 <__hi0bits+0xb0>
80005b4c:	02000793          	li	a5,32
80005b50:	0080006f          	j	80005b58 <__hi0bits+0xb4>
80005b54:	00048793          	mv	a5,s1
80005b58:	00078513          	mv	a0,a5
80005b5c:	0101240f          	lq	s0,16(sp)
80005b60:	0001248f          	lq	s1,0(sp)
80005b64:	02010113          	addi	sp,sp,32
80005b68:	00008067          	ret

80005b6c <__lo0bits>:
80005b6c:	fc010113          	addi	sp,sp,-64
80005b70:	02814823          	sq	s0,48(sp)
80005b74:	02914023          	sq	s1,32(sp)
80005b78:	01214823          	sq	s2,16(sp)
80005b7c:	04010413          	addi	s0,sp,64
80005b80:	fca44023          	sq	a0,-64(s0)
80005b84:	fc04278f          	lq	a5,-64(s0)
80005b88:	0007a483          	lw	s1,0(a5) # 40000000 <UART_BASE+0x30000000>
80005b8c:	00048793          	mv	a5,s1
80005b90:	0077f793          	andi	a5,a5,7
80005b94:	0007879b          	sext.w	a5,a5
80005b98:	04078e63          	beqz	a5,80005bf4 <__lo0bits+0x88>
80005b9c:	00048793          	mv	a5,s1
80005ba0:	0017f793          	andi	a5,a5,1
80005ba4:	0007879b          	sext.w	a5,a5
80005ba8:	00078663          	beqz	a5,80005bb4 <__lo0bits+0x48>
80005bac:	00000793          	li	a5,0
80005bb0:	1040006f          	j	80005cb4 <__lo0bits+0x148>
80005bb4:	00048793          	mv	a5,s1
80005bb8:	0027f793          	andi	a5,a5,2
80005bbc:	0007879b          	sext.w	a5,a5
80005bc0:	00078e63          	beqz	a5,80005bdc <__lo0bits+0x70>
80005bc4:	0014d79b          	srlw	a5,s1,0x1
80005bc8:	0007871b          	sext.w	a4,a5
80005bcc:	fc04278f          	lq	a5,-64(s0)
80005bd0:	00e7a023          	sw	a4,0(a5)
80005bd4:	00100793          	li	a5,1
80005bd8:	0dc0006f          	j	80005cb4 <__lo0bits+0x148>
80005bdc:	0024d79b          	srlw	a5,s1,0x2
80005be0:	0007871b          	sext.w	a4,a5
80005be4:	fc04278f          	lq	a5,-64(s0)
80005be8:	00e7a023          	sw	a4,0(a5)
80005bec:	00200793          	li	a5,2
80005bf0:	0c40006f          	j	80005cb4 <__lo0bits+0x148>
80005bf4:	00000913          	li	s2,0
80005bf8:	00048713          	mv	a4,s1
80005bfc:	000107b7          	lui	a5,0x10
80005c00:	fff78793          	addi	a5,a5,-1 # ffff <UART_BASE-0xfff0001>
80005c04:	00f777b3          	and	a5,a4,a5
80005c08:	0007879b          	sext.w	a5,a5
80005c0c:	00079863          	bnez	a5,80005c1c <__lo0bits+0xb0>
80005c10:	01000913          	li	s2,16
80005c14:	0104d79b          	srlw	a5,s1,0x10
80005c18:	0007849b          	sext.w	s1,a5
80005c1c:	00048793          	mv	a5,s1
80005c20:	0ff7f793          	zext.b	a5,a5
80005c24:	0007879b          	sext.w	a5,a5
80005c28:	00079a63          	bnez	a5,80005c3c <__lo0bits+0xd0>
80005c2c:	0089079b          	addw	a5,s2,8
80005c30:	0007891b          	sext.w	s2,a5
80005c34:	0084d79b          	srlw	a5,s1,0x8
80005c38:	0007849b          	sext.w	s1,a5
80005c3c:	00048793          	mv	a5,s1
80005c40:	00f7f793          	andi	a5,a5,15
80005c44:	0007879b          	sext.w	a5,a5
80005c48:	00079a63          	bnez	a5,80005c5c <__lo0bits+0xf0>
80005c4c:	0049079b          	addw	a5,s2,4
80005c50:	0007891b          	sext.w	s2,a5
80005c54:	0044d79b          	srlw	a5,s1,0x4
80005c58:	0007849b          	sext.w	s1,a5
80005c5c:	00048793          	mv	a5,s1
80005c60:	0037f793          	andi	a5,a5,3
80005c64:	0007879b          	sext.w	a5,a5
80005c68:	00079a63          	bnez	a5,80005c7c <__lo0bits+0x110>
80005c6c:	0029079b          	addw	a5,s2,2
80005c70:	0007891b          	sext.w	s2,a5
80005c74:	0024d79b          	srlw	a5,s1,0x2
80005c78:	0007849b          	sext.w	s1,a5
80005c7c:	00048793          	mv	a5,s1
80005c80:	0017f793          	andi	a5,a5,1
80005c84:	0007879b          	sext.w	a5,a5
80005c88:	02079063          	bnez	a5,80005ca8 <__lo0bits+0x13c>
80005c8c:	0019079b          	addw	a5,s2,1
80005c90:	0007891b          	sext.w	s2,a5
80005c94:	0014d79b          	srlw	a5,s1,0x1
80005c98:	0007849b          	sext.w	s1,a5
80005c9c:	00049663          	bnez	s1,80005ca8 <__lo0bits+0x13c>
80005ca0:	02000793          	li	a5,32
80005ca4:	0100006f          	j	80005cb4 <__lo0bits+0x148>
80005ca8:	fc04278f          	lq	a5,-64(s0)
80005cac:	0097a023          	sw	s1,0(a5)
80005cb0:	00090793          	mv	a5,s2
80005cb4:	00078513          	mv	a0,a5
80005cb8:	0301240f          	lq	s0,48(sp)
80005cbc:	0201248f          	lq	s1,32(sp)
80005cc0:	0101290f          	lq	s2,16(sp)
80005cc4:	04010113          	addi	sp,sp,64
80005cc8:	00008067          	ret

80005ccc <__i2b>:
80005ccc:	fa010113          	addi	sp,sp,-96
80005cd0:	04114823          	sq	ra,80(sp)
80005cd4:	04814023          	sq	s0,64(sp)
80005cd8:	06010413          	addi	s0,sp,96
80005cdc:	faa44823          	sq	a0,-80(s0)
80005ce0:	00058793          	mv	a5,a1
80005ce4:	faf42623          	sw	a5,-84(s0)
80005ce8:	00100593          	li	a1,1
80005cec:	fb04250f          	lq	a0,-80(s0)
80005cf0:	ebcff0ef          	jal	800053ac <_ebss+0xffe0469c>
80005cf4:	fca44823          	sq	a0,-48(s0)
80005cf8:	fd04278f          	lq	a5,-48(s0)
80005cfc:	02079063          	bnez	a5,80005d1c <__i2b+0x50>
80005d00:	00007697          	auipc	a3,0x7
80005d04:	7f068693          	addi	a3,a3,2032 # 8000d4f0 <puts+0x39c>
80005d08:	00000613          	li	a2,0
80005d0c:	14500593          	li	a1,325
80005d10:	00007517          	auipc	a0,0x7
80005d14:	7b050513          	addi	a0,a0,1968 # 8000d4c0 <puts+0x36c>
80005d18:	dd0ff0ef          	jal	800052e8 <_ebss+0xffe045d8>
80005d1c:	fd04278f          	lq	a5,-48(s0)
80005d20:	fcf44023          	sq	a5,-64(s0)
80005d24:	fac42703          	lw	a4,-84(s0)
80005d28:	fc04278f          	lq	a5,-64(s0)
80005d2c:	02e7a023          	sw	a4,32(a5)
80005d30:	fc04278f          	lq	a5,-64(s0)
80005d34:	00100713          	li	a4,1
80005d38:	00e7ae23          	sw	a4,28(a5)
80005d3c:	fc04278f          	lq	a5,-64(s0)
80005d40:	00078513          	mv	a0,a5
80005d44:	0501208f          	lq	ra,80(sp)
80005d48:	0401240f          	lq	s0,64(sp)
80005d4c:	06010113          	addi	sp,sp,96
80005d50:	00008067          	ret

80005d54 <__multiply>:
80005d54:	ee010113          	addi	sp,sp,-288
80005d58:	10114823          	sq	ra,272(sp)
80005d5c:	10814023          	sq	s0,256(sp)
80005d60:	12010413          	addi	s0,sp,288
80005d64:	f0a44023          	sq	a0,-256(s0)
80005d68:	eeb44823          	sq	a1,-272(s0)
80005d6c:	eec44023          	sq	a2,-288(s0)
80005d70:	ef04278f          	lq	a5,-272(s0)
80005d74:	01c7a703          	lw	a4,28(a5)
80005d78:	ee04278f          	lq	a5,-288(s0)
80005d7c:	01c7a783          	lw	a5,28(a5)
80005d80:	00f75e63          	bge	a4,a5,80005d9c <__multiply+0x48>
80005d84:	ef04278f          	lq	a5,-272(s0)
80005d88:	f6f44823          	sq	a5,-144(s0)
80005d8c:	ee04278f          	lq	a5,-288(s0)
80005d90:	eef44823          	sq	a5,-272(s0)
80005d94:	f704278f          	lq	a5,-144(s0)
80005d98:	eef44023          	sq	a5,-288(s0)
80005d9c:	ef04278f          	lq	a5,-272(s0)
80005da0:	0107a783          	lw	a5,16(a5)
80005da4:	fcf42e23          	sw	a5,-36(s0)
80005da8:	ef04278f          	lq	a5,-272(s0)
80005dac:	01c7a783          	lw	a5,28(a5)
80005db0:	f6f42623          	sw	a5,-148(s0)
80005db4:	ee04278f          	lq	a5,-288(s0)
80005db8:	01c7a783          	lw	a5,28(a5)
80005dbc:	f6f42423          	sw	a5,-152(s0)
80005dc0:	f6c42783          	lw	a5,-148(s0)
80005dc4:	00078713          	mv	a4,a5
80005dc8:	f6842783          	lw	a5,-152(s0)
80005dcc:	00f707bb          	addw	a5,a4,a5
80005dd0:	fcf42c23          	sw	a5,-40(s0)
80005dd4:	ef04278f          	lq	a5,-272(s0)
80005dd8:	0147a703          	lw	a4,20(a5)
80005ddc:	fd842783          	lw	a5,-40(s0)
80005de0:	0007879b          	sext.w	a5,a5
80005de4:	00f75863          	bge	a4,a5,80005df4 <__multiply+0xa0>
80005de8:	fdc42783          	lw	a5,-36(s0)
80005dec:	0017879b          	addw	a5,a5,1
80005df0:	fcf42e23          	sw	a5,-36(s0)
80005df4:	fdc42783          	lw	a5,-36(s0)
80005df8:	00078593          	mv	a1,a5
80005dfc:	f004250f          	lq	a0,-256(s0)
80005e00:	dacff0ef          	jal	800053ac <_ebss+0xffe0469c>
80005e04:	f4a44823          	sq	a0,-176(s0)
80005e08:	f504278f          	lq	a5,-176(s0)
80005e0c:	02079063          	bnez	a5,80005e2c <__multiply+0xd8>
80005e10:	00007697          	auipc	a3,0x7
80005e14:	6e068693          	addi	a3,a3,1760 # 8000d4f0 <puts+0x39c>
80005e18:	00000613          	li	a2,0
80005e1c:	16200593          	li	a1,354
80005e20:	00007517          	auipc	a0,0x7
80005e24:	6a050513          	addi	a0,a0,1696 # 8000d4c0 <puts+0x36c>
80005e28:	cc0ff0ef          	jal	800052e8 <_ebss+0xffe045d8>
80005e2c:	f504278f          	lq	a5,-176(s0)
80005e30:	f6f44823          	sq	a5,-144(s0)
80005e34:	f704278f          	lq	a5,-144(s0)
80005e38:	02078793          	addi	a5,a5,32
80005e3c:	fcf44023          	sq	a5,-64(s0)
80005e40:	fd842783          	lw	a5,-40(s0)
80005e44:	00279793          	slli	a5,a5,0x2
80005e48:	fc04270f          	lq	a4,-64(s0)
80005e4c:	00f707b3          	add	a5,a4,a5
80005e50:	f4f44023          	sq	a5,-192(s0)
80005e54:	0180006f          	j	80005e6c <__multiply+0x118>
80005e58:	fc04278f          	lq	a5,-64(s0)
80005e5c:	0007a023          	sw	zero,0(a5)
80005e60:	fc04278f          	lq	a5,-64(s0)
80005e64:	00478793          	addi	a5,a5,4
80005e68:	fcf44023          	sq	a5,-64(s0)
80005e6c:	fc04270f          	lq	a4,-64(s0)
80005e70:	f404278f          	lq	a5,-192(s0)
80005e74:	fef762e3          	bltu	a4,a5,80005e58 <_ebss+0xffe05148>
80005e78:	ef04278f          	lq	a5,-272(s0)
80005e7c:	02078793          	addi	a5,a5,32
80005e80:	f4f44023          	sq	a5,-192(s0)
80005e84:	f6c42783          	lw	a5,-148(s0)
80005e88:	00279793          	slli	a5,a5,0x2
80005e8c:	f404270f          	lq	a4,-192(s0)
80005e90:	00f707b3          	add	a5,a4,a5
80005e94:	f2f44823          	sq	a5,-208(s0)
80005e98:	ee04278f          	lq	a5,-288(s0)
80005e9c:	02078793          	addi	a5,a5,32
80005ea0:	faf44823          	sq	a5,-80(s0)
80005ea4:	f6842783          	lw	a5,-152(s0)
80005ea8:	00279793          	slli	a5,a5,0x2
80005eac:	fb04270f          	lq	a4,-80(s0)
80005eb0:	00f707b3          	add	a5,a4,a5
80005eb4:	f2f44023          	sq	a5,-224(s0)
80005eb8:	f704278f          	lq	a5,-144(s0)
80005ebc:	02078793          	addi	a5,a5,32
80005ec0:	f8f44823          	sq	a5,-112(s0)
80005ec4:	2b40006f          	j	80006178 <__multiply+0x424>
80005ec8:	fb04278f          	lq	a5,-80(s0)
80005ecc:	0007a783          	lw	a5,0(a5)
80005ed0:	00078713          	mv	a4,a5
80005ed4:	000107b7          	lui	a5,0x10
80005ed8:	fff78793          	addi	a5,a5,-1 # ffff <UART_BASE-0xfff0001>
80005edc:	00f777b3          	and	a5,a4,a5
80005ee0:	f0f42e23          	sw	a5,-228(s0)
80005ee4:	f1c42783          	lw	a5,-228(s0)
80005ee8:	0007879b          	sext.w	a5,a5
80005eec:	12078463          	beqz	a5,80006014 <__multiply+0x2c0>
80005ef0:	f404278f          	lq	a5,-192(s0)
80005ef4:	fcf44023          	sq	a5,-64(s0)
80005ef8:	f904278f          	lq	a5,-112(s0)
80005efc:	faf44023          	sq	a5,-96(s0)
80005f00:	fc042a23          	sw	zero,-44(s0)
80005f04:	fc04278f          	lq	a5,-64(s0)
80005f08:	0007a783          	lw	a5,0(a5)
80005f0c:	00078713          	mv	a4,a5
80005f10:	000107b7          	lui	a5,0x10
80005f14:	fff78793          	addi	a5,a5,-1 # ffff <UART_BASE-0xfff0001>
80005f18:	00f777b3          	and	a5,a4,a5
80005f1c:	0007879b          	sext.w	a5,a5
80005f20:	f1c42703          	lw	a4,-228(s0)
80005f24:	02f707bb          	mulw	a5,a4,a5
80005f28:	0007871b          	sext.w	a4,a5
80005f2c:	fa04278f          	lq	a5,-96(s0)
80005f30:	0007a783          	lw	a5,0(a5)
80005f34:	00078693          	mv	a3,a5
80005f38:	000107b7          	lui	a5,0x10
80005f3c:	fff78793          	addi	a5,a5,-1 # ffff <UART_BASE-0xfff0001>
80005f40:	00f6f7b3          	and	a5,a3,a5
80005f44:	0007879b          	sext.w	a5,a5
80005f48:	00f707bb          	addw	a5,a4,a5
80005f4c:	0007879b          	sext.w	a5,a5
80005f50:	fd442703          	lw	a4,-44(s0)
80005f54:	00f707bb          	addw	a5,a4,a5
80005f58:	f0f42c23          	sw	a5,-232(s0)
80005f5c:	f1842783          	lw	a5,-232(s0)
80005f60:	0107d79b          	srlw	a5,a5,0x10
80005f64:	fcf42a23          	sw	a5,-44(s0)
80005f68:	fc04278f          	lq	a5,-64(s0)
80005f6c:	00478713          	addi	a4,a5,4
80005f70:	fce44023          	sq	a4,-64(s0)
80005f74:	0007a783          	lw	a5,0(a5)
80005f78:	0107d79b          	srlw	a5,a5,0x10
80005f7c:	0007879b          	sext.w	a5,a5
80005f80:	f1c42703          	lw	a4,-228(s0)
80005f84:	02f707bb          	mulw	a5,a4,a5
80005f88:	0007871b          	sext.w	a4,a5
80005f8c:	fa04278f          	lq	a5,-96(s0)
80005f90:	0007a783          	lw	a5,0(a5)
80005f94:	0107d79b          	srlw	a5,a5,0x10
80005f98:	0007879b          	sext.w	a5,a5
80005f9c:	00f707bb          	addw	a5,a4,a5
80005fa0:	0007879b          	sext.w	a5,a5
80005fa4:	fd442703          	lw	a4,-44(s0)
80005fa8:	00f707bb          	addw	a5,a4,a5
80005fac:	f8f42623          	sw	a5,-116(s0)
80005fb0:	f8c42783          	lw	a5,-116(s0)
80005fb4:	0107d79b          	srlw	a5,a5,0x10
80005fb8:	fcf42a23          	sw	a5,-44(s0)
80005fbc:	f8c42783          	lw	a5,-116(s0)
80005fc0:	0107979b          	sllw	a5,a5,0x10
80005fc4:	0007869b          	sext.w	a3,a5
80005fc8:	f1842783          	lw	a5,-232(s0)
80005fcc:	00078713          	mv	a4,a5
80005fd0:	000107b7          	lui	a5,0x10
80005fd4:	fff78793          	addi	a5,a5,-1 # ffff <UART_BASE-0xfff0001>
80005fd8:	00f777b3          	and	a5,a4,a5
80005fdc:	0007861b          	sext.w	a2,a5
80005fe0:	fa04278f          	lq	a5,-96(s0)
80005fe4:	00478713          	addi	a4,a5,4
80005fe8:	fae44023          	sq	a4,-96(s0)
80005fec:	00060713          	mv	a4,a2
80005ff0:	00e6e733          	or	a4,a3,a4
80005ff4:	0007071b          	sext.w	a4,a4
80005ff8:	00e7a023          	sw	a4,0(a5)
80005ffc:	fc04270f          	lq	a4,-64(s0)
80006000:	f304278f          	lq	a5,-208(s0)
80006004:	f0f760e3          	bltu	a4,a5,80005f04 <_ebss+0xffe051f4>
80006008:	fa04278f          	lq	a5,-96(s0)
8000600c:	fd442703          	lw	a4,-44(s0)
80006010:	00e7a023          	sw	a4,0(a5)
80006014:	fb04278f          	lq	a5,-80(s0)
80006018:	0007a783          	lw	a5,0(a5)
8000601c:	0107d79b          	srlw	a5,a5,0x10
80006020:	f0f42e23          	sw	a5,-228(s0)
80006024:	f1c42783          	lw	a5,-228(s0)
80006028:	0007879b          	sext.w	a5,a5
8000602c:	12078a63          	beqz	a5,80006160 <__multiply+0x40c>
80006030:	f404278f          	lq	a5,-192(s0)
80006034:	fcf44023          	sq	a5,-64(s0)
80006038:	f904278f          	lq	a5,-112(s0)
8000603c:	faf44023          	sq	a5,-96(s0)
80006040:	fc042a23          	sw	zero,-44(s0)
80006044:	fa04278f          	lq	a5,-96(s0)
80006048:	0007a783          	lw	a5,0(a5)
8000604c:	f8f42623          	sw	a5,-116(s0)
80006050:	fc04278f          	lq	a5,-64(s0)
80006054:	0007a783          	lw	a5,0(a5)
80006058:	00078713          	mv	a4,a5
8000605c:	000107b7          	lui	a5,0x10
80006060:	fff78793          	addi	a5,a5,-1 # ffff <UART_BASE-0xfff0001>
80006064:	00f777b3          	and	a5,a4,a5
80006068:	0007879b          	sext.w	a5,a5
8000606c:	f1c42703          	lw	a4,-228(s0)
80006070:	02f707bb          	mulw	a5,a4,a5
80006074:	0007871b          	sext.w	a4,a5
80006078:	fa04278f          	lq	a5,-96(s0)
8000607c:	0007a783          	lw	a5,0(a5)
80006080:	0107d79b          	srlw	a5,a5,0x10
80006084:	0007879b          	sext.w	a5,a5
80006088:	00f707bb          	addw	a5,a4,a5
8000608c:	0007879b          	sext.w	a5,a5
80006090:	fd442703          	lw	a4,-44(s0)
80006094:	00f707bb          	addw	a5,a4,a5
80006098:	f0f42c23          	sw	a5,-232(s0)
8000609c:	f1842783          	lw	a5,-232(s0)
800060a0:	0107d79b          	srlw	a5,a5,0x10
800060a4:	fcf42a23          	sw	a5,-44(s0)
800060a8:	f1842783          	lw	a5,-232(s0)
800060ac:	0107979b          	sllw	a5,a5,0x10
800060b0:	0007869b          	sext.w	a3,a5
800060b4:	f8c42783          	lw	a5,-116(s0)
800060b8:	00078713          	mv	a4,a5
800060bc:	000107b7          	lui	a5,0x10
800060c0:	fff78793          	addi	a5,a5,-1 # ffff <UART_BASE-0xfff0001>
800060c4:	00f777b3          	and	a5,a4,a5
800060c8:	0007861b          	sext.w	a2,a5
800060cc:	fa04278f          	lq	a5,-96(s0)
800060d0:	00478713          	addi	a4,a5,4
800060d4:	fae44023          	sq	a4,-96(s0)
800060d8:	00060713          	mv	a4,a2
800060dc:	00e6e733          	or	a4,a3,a4
800060e0:	0007071b          	sext.w	a4,a4
800060e4:	00e7a023          	sw	a4,0(a5)
800060e8:	fc04278f          	lq	a5,-64(s0)
800060ec:	00478713          	addi	a4,a5,4
800060f0:	fce44023          	sq	a4,-64(s0)
800060f4:	0007a783          	lw	a5,0(a5)
800060f8:	0107d79b          	srlw	a5,a5,0x10
800060fc:	0007879b          	sext.w	a5,a5
80006100:	f1c42703          	lw	a4,-228(s0)
80006104:	02f707bb          	mulw	a5,a4,a5
80006108:	0007871b          	sext.w	a4,a5
8000610c:	fa04278f          	lq	a5,-96(s0)
80006110:	0007a783          	lw	a5,0(a5)
80006114:	00078693          	mv	a3,a5
80006118:	000107b7          	lui	a5,0x10
8000611c:	fff78793          	addi	a5,a5,-1 # ffff <UART_BASE-0xfff0001>
80006120:	00f6f7b3          	and	a5,a3,a5
80006124:	0007879b          	sext.w	a5,a5
80006128:	00f707bb          	addw	a5,a4,a5
8000612c:	0007879b          	sext.w	a5,a5
80006130:	fd442703          	lw	a4,-44(s0)
80006134:	00f707bb          	addw	a5,a4,a5
80006138:	f8f42623          	sw	a5,-116(s0)
8000613c:	f8c42783          	lw	a5,-116(s0)
80006140:	0107d79b          	srlw	a5,a5,0x10
80006144:	fcf42a23          	sw	a5,-44(s0)
80006148:	fc04270f          	lq	a4,-64(s0)
8000614c:	f304278f          	lq	a5,-208(s0)
80006150:	f0f760e3          	bltu	a4,a5,80006050 <_ebss+0xffe05340>
80006154:	fa04278f          	lq	a5,-96(s0)
80006158:	f8c42703          	lw	a4,-116(s0)
8000615c:	00e7a023          	sw	a4,0(a5)
80006160:	fb04278f          	lq	a5,-80(s0)
80006164:	00478793          	addi	a5,a5,4
80006168:	faf44823          	sq	a5,-80(s0)
8000616c:	f904278f          	lq	a5,-112(s0)
80006170:	00478793          	addi	a5,a5,4
80006174:	f8f44823          	sq	a5,-112(s0)
80006178:	fb04270f          	lq	a4,-80(s0)
8000617c:	f204278f          	lq	a5,-224(s0)
80006180:	d4f764e3          	bltu	a4,a5,80005ec8 <_ebss+0xffe051b8>
80006184:	f704278f          	lq	a5,-144(s0)
80006188:	02078793          	addi	a5,a5,32
8000618c:	f8f44823          	sq	a5,-112(s0)
80006190:	fd842783          	lw	a5,-40(s0)
80006194:	00279793          	slli	a5,a5,0x2
80006198:	f904270f          	lq	a4,-112(s0)
8000619c:	00f707b3          	add	a5,a4,a5
800061a0:	faf44023          	sq	a5,-96(s0)
800061a4:	0100006f          	j	800061b4 <__multiply+0x460>
800061a8:	fd842783          	lw	a5,-40(s0)
800061ac:	fff7879b          	addw	a5,a5,-1
800061b0:	fcf42c23          	sw	a5,-40(s0)
800061b4:	fd842783          	lw	a5,-40(s0)
800061b8:	0007879b          	sext.w	a5,a5
800061bc:	00f05e63          	blez	a5,800061d8 <__multiply+0x484>
800061c0:	fa04278f          	lq	a5,-96(s0)
800061c4:	ffc78793          	addi	a5,a5,-4
800061c8:	faf44023          	sq	a5,-96(s0)
800061cc:	fa04278f          	lq	a5,-96(s0)
800061d0:	0007a783          	lw	a5,0(a5)
800061d4:	fc078ae3          	beqz	a5,800061a8 <_ebss+0xffe05498>
800061d8:	f704278f          	lq	a5,-144(s0)
800061dc:	fd842703          	lw	a4,-40(s0)
800061e0:	00e7ae23          	sw	a4,28(a5)
800061e4:	f704278f          	lq	a5,-144(s0)
800061e8:	00078513          	mv	a0,a5
800061ec:	1101208f          	lq	ra,272(sp)
800061f0:	1001240f          	lq	s0,256(sp)
800061f4:	12010113          	addi	sp,sp,288
800061f8:	00008067          	ret

800061fc <__pow5mult>:
800061fc:	f4010113          	addi	sp,sp,-192
80006200:	0a114823          	sq	ra,176(sp)
80006204:	0a814023          	sq	s0,160(sp)
80006208:	08914823          	sq	s1,144(sp)
8000620c:	0c010413          	addi	s0,sp,192
80006210:	f6a44023          	sq	a0,-160(s0)
80006214:	f4b44823          	sq	a1,-176(s0)
80006218:	00060793          	mv	a5,a2
8000621c:	f4f42623          	sw	a5,-180(s0)
80006220:	f4c42783          	lw	a5,-180(s0)
80006224:	0037f793          	andi	a5,a5,3
80006228:	faf42623          	sw	a5,-84(s0)
8000622c:	fac42783          	lw	a5,-84(s0)
80006230:	0007879b          	sext.w	a5,a5
80006234:	02078e63          	beqz	a5,80006270 <__pow5mult+0x74>
80006238:	fac42783          	lw	a5,-84(s0)
8000623c:	fff7879b          	addw	a5,a5,-1
80006240:	0007879b          	sext.w	a5,a5
80006244:	00007717          	auipc	a4,0x7
80006248:	3fc70713          	addi	a4,a4,1020 # 8000d640 <p05.0>
8000624c:	00279793          	slli	a5,a5,0x2
80006250:	00f707b3          	add	a5,a4,a5
80006254:	0007a783          	lw	a5,0(a5)
80006258:	00000693          	li	a3,0
8000625c:	00078613          	mv	a2,a5
80006260:	f504258f          	lq	a1,-176(s0)
80006264:	f604250f          	lq	a0,-160(s0)
80006268:	c34ff0ef          	jal	8000569c <_ebss+0xffe0498c>
8000626c:	f4a44823          	sq	a0,-176(s0)
80006270:	f4c42783          	lw	a5,-180(s0)
80006274:	4027d79b          	sraw	a5,a5,0x2
80006278:	f4f42623          	sw	a5,-180(s0)
8000627c:	f4c42783          	lw	a5,-180(s0)
80006280:	0007879b          	sext.w	a5,a5
80006284:	00079663          	bnez	a5,80006290 <__pow5mult+0x94>
80006288:	f504278f          	lq	a5,-176(s0)
8000628c:	1800006f          	j	8000640c <__pow5mult+0x210>
80006290:	f604278f          	lq	a5,-160(s0)
80006294:	f8f44823          	sq	a5,-112(s0)
80006298:	f904278f          	lq	a5,-112(s0)
8000629c:	0707a78f          	lq	a5,112(a5)
800062a0:	08079063          	bnez	a5,80006320 <__pow5mult+0x124>
800062a4:	04000513          	li	a0,64
800062a8:	b39fd0ef          	jal	80003de0 <_ebss+0xffe030d0>
800062ac:	00050793          	mv	a5,a0
800062b0:	00078713          	mv	a4,a5
800062b4:	f904278f          	lq	a5,-112(s0)
800062b8:	06e7c823          	sq	a4,112(a5)
800062bc:	f904278f          	lq	a5,-112(s0)
800062c0:	0707a78f          	lq	a5,112(a5)
800062c4:	02079063          	bnez	a5,800062e4 <__pow5mult+0xe8>
800062c8:	00007697          	auipc	a3,0x7
800062cc:	1d868693          	addi	a3,a3,472 # 8000d4a0 <puts+0x34c>
800062d0:	00000613          	li	a2,0
800062d4:	1b300593          	li	a1,435
800062d8:	00007517          	auipc	a0,0x7
800062dc:	1e850513          	addi	a0,a0,488 # 8000d4c0 <puts+0x36c>
800062e0:	808ff0ef          	jal	800052e8 <_ebss+0xffe045d8>
800062e4:	f604278f          	lq	a5,-160(s0)
800062e8:	f8f44023          	sq	a5,-128(s0)
800062ec:	f804278f          	lq	a5,-128(s0)
800062f0:	0707a78f          	lq	a5,112(a5)
800062f4:	0007a823          	sw	zero,16(a5)
800062f8:	f804278f          	lq	a5,-128(s0)
800062fc:	0707a78f          	lq	a5,112(a5)
80006300:	0207c023          	sq	zero,32(a5)
80006304:	f804270f          	lq	a4,-128(s0)
80006308:	0707270f          	lq	a4,112(a4)
8000630c:	0207a78f          	lq	a5,32(a5)
80006310:	00f74023          	sq	a5,0(a4)
80006314:	f804278f          	lq	a5,-128(s0)
80006318:	0707a78f          	lq	a5,112(a5)
8000631c:	0207c823          	sq	zero,48(a5)
80006320:	f604278f          	lq	a5,-160(s0)
80006324:	0707a78f          	lq	a5,112(a5)
80006328:	0207a78f          	lq	a5,32(a5)
8000632c:	fcf44023          	sq	a5,-64(s0)
80006330:	fc04278f          	lq	a5,-64(s0)
80006334:	02079863          	bnez	a5,80006364 <__pow5mult+0x168>
80006338:	f604278f          	lq	a5,-160(s0)
8000633c:	0707a48f          	lq	s1,112(a5)
80006340:	27100593          	li	a1,625
80006344:	f604250f          	lq	a0,-160(s0)
80006348:	985ff0ef          	jal	80005ccc <_ebss+0xffe04fbc>
8000634c:	00050793          	mv	a5,a0
80006350:	02f4c023          	sq	a5,32(s1)
80006354:	0204a78f          	lq	a5,32(s1)
80006358:	fcf44023          	sq	a5,-64(s0)
8000635c:	fc04278f          	lq	a5,-64(s0)
80006360:	0007c023          	sq	zero,0(a5)
80006364:	f4c42783          	lw	a5,-180(s0)
80006368:	0017f793          	andi	a5,a5,1
8000636c:	0007879b          	sext.w	a5,a5
80006370:	02078663          	beqz	a5,8000639c <__pow5mult+0x1a0>
80006374:	fc04260f          	lq	a2,-64(s0)
80006378:	f504258f          	lq	a1,-176(s0)
8000637c:	f604250f          	lq	a0,-160(s0)
80006380:	9d5ff0ef          	jal	80005d54 <_ebss+0xffe05044>
80006384:	f6a44823          	sq	a0,-144(s0)
80006388:	f504258f          	lq	a1,-176(s0)
8000638c:	f604250f          	lq	a0,-160(s0)
80006390:	9fcff0ef          	jal	8000558c <_ebss+0xffe0487c>
80006394:	f704278f          	lq	a5,-144(s0)
80006398:	f4f44823          	sq	a5,-176(s0)
8000639c:	f4c42783          	lw	a5,-180(s0)
800063a0:	4017d79b          	sraw	a5,a5,0x1
800063a4:	f4f42623          	sw	a5,-180(s0)
800063a8:	f4c42783          	lw	a5,-180(s0)
800063ac:	0007879b          	sext.w	a5,a5
800063b0:	04078a63          	beqz	a5,80006404 <__pow5mult+0x208>
800063b4:	fc04278f          	lq	a5,-64(s0)
800063b8:	0007a78f          	lq	a5,0(a5)
800063bc:	faf44823          	sq	a5,-80(s0)
800063c0:	fb04278f          	lq	a5,-80(s0)
800063c4:	02079a63          	bnez	a5,800063f8 <__pow5mult+0x1fc>
800063c8:	fc04260f          	lq	a2,-64(s0)
800063cc:	fc04258f          	lq	a1,-64(s0)
800063d0:	f604250f          	lq	a0,-160(s0)
800063d4:	981ff0ef          	jal	80005d54 <_ebss+0xffe05044>
800063d8:	00050713          	mv	a4,a0
800063dc:	fc04278f          	lq	a5,-64(s0)
800063e0:	00e7c023          	sq	a4,0(a5)
800063e4:	fc04278f          	lq	a5,-64(s0)
800063e8:	0007a78f          	lq	a5,0(a5)
800063ec:	faf44823          	sq	a5,-80(s0)
800063f0:	fb04278f          	lq	a5,-80(s0)
800063f4:	0007c023          	sq	zero,0(a5)
800063f8:	fb04278f          	lq	a5,-80(s0)
800063fc:	fcf44023          	sq	a5,-64(s0)
80006400:	f65ff06f          	j	80006364 <_ebss+0xffe05654>
80006404:	00000013          	nop
80006408:	f504278f          	lq	a5,-176(s0)
8000640c:	00078513          	mv	a0,a5
80006410:	0b01208f          	lq	ra,176(sp)
80006414:	0a01240f          	lq	s0,160(sp)
80006418:	0901248f          	lq	s1,144(sp)
8000641c:	0c010113          	addi	sp,sp,192
80006420:	00008067          	ret

80006424 <__lshift>:
80006424:	f4010113          	addi	sp,sp,-192
80006428:	0a114823          	sq	ra,176(sp)
8000642c:	0a814023          	sq	s0,160(sp)
80006430:	0c010413          	addi	s0,sp,192
80006434:	f6a44023          	sq	a0,-160(s0)
80006438:	f4b44823          	sq	a1,-176(s0)
8000643c:	00060793          	mv	a5,a2
80006440:	f4f42623          	sw	a5,-180(s0)
80006444:	f4c42783          	lw	a5,-180(s0)
80006448:	4057d79b          	sraw	a5,a5,0x5
8000644c:	faf42423          	sw	a5,-88(s0)
80006450:	f504278f          	lq	a5,-176(s0)
80006454:	0107a783          	lw	a5,16(a5)
80006458:	fcf42c23          	sw	a5,-40(s0)
8000645c:	f504278f          	lq	a5,-176(s0)
80006460:	01c7a783          	lw	a5,28(a5)
80006464:	fa842703          	lw	a4,-88(s0)
80006468:	00f707bb          	addw	a5,a4,a5
8000646c:	0007879b          	sext.w	a5,a5
80006470:	0017879b          	addw	a5,a5,1
80006474:	fcf42a23          	sw	a5,-44(s0)
80006478:	f504278f          	lq	a5,-176(s0)
8000647c:	0147a783          	lw	a5,20(a5)
80006480:	fcf42e23          	sw	a5,-36(s0)
80006484:	01c0006f          	j	800064a0 <__lshift+0x7c>
80006488:	fd842783          	lw	a5,-40(s0)
8000648c:	0017879b          	addw	a5,a5,1
80006490:	fcf42c23          	sw	a5,-40(s0)
80006494:	fdc42783          	lw	a5,-36(s0)
80006498:	0017979b          	sllw	a5,a5,0x1
8000649c:	fcf42e23          	sw	a5,-36(s0)
800064a0:	fd442783          	lw	a5,-44(s0)
800064a4:	00078713          	mv	a4,a5
800064a8:	fdc42783          	lw	a5,-36(s0)
800064ac:	0007071b          	sext.w	a4,a4
800064b0:	0007879b          	sext.w	a5,a5
800064b4:	fce7cae3          	blt	a5,a4,80006488 <_ebss+0xffe05778>
800064b8:	fd842783          	lw	a5,-40(s0)
800064bc:	00078593          	mv	a1,a5
800064c0:	f604250f          	lq	a0,-160(s0)
800064c4:	ee9fe0ef          	jal	800053ac <_ebss+0xffe0469c>
800064c8:	f8a44823          	sq	a0,-112(s0)
800064cc:	f904278f          	lq	a5,-112(s0)
800064d0:	02079063          	bnez	a5,800064f0 <__lshift+0xcc>
800064d4:	00007697          	auipc	a3,0x7
800064d8:	01c68693          	addi	a3,a3,28 # 8000d4f0 <puts+0x39c>
800064dc:	00000613          	li	a2,0
800064e0:	1de00593          	li	a1,478
800064e4:	00007517          	auipc	a0,0x7
800064e8:	fdc50513          	addi	a0,a0,-36 # 8000d4c0 <puts+0x36c>
800064ec:	dfdfe0ef          	jal	800052e8 <_ebss+0xffe045d8>
800064f0:	f904278f          	lq	a5,-112(s0)
800064f4:	f8f44023          	sq	a5,-128(s0)
800064f8:	f804278f          	lq	a5,-128(s0)
800064fc:	02078793          	addi	a5,a5,32
80006500:	faf44823          	sq	a5,-80(s0)
80006504:	fc042e23          	sw	zero,-36(s0)
80006508:	0200006f          	j	80006528 <__lshift+0x104>
8000650c:	fb04278f          	lq	a5,-80(s0)
80006510:	00478713          	addi	a4,a5,4
80006514:	fae44823          	sq	a4,-80(s0)
80006518:	0007a023          	sw	zero,0(a5)
8000651c:	fdc42783          	lw	a5,-36(s0)
80006520:	0017879b          	addw	a5,a5,1
80006524:	fcf42e23          	sw	a5,-36(s0)
80006528:	fdc42783          	lw	a5,-36(s0)
8000652c:	00078713          	mv	a4,a5
80006530:	fa842783          	lw	a5,-88(s0)
80006534:	0007071b          	sext.w	a4,a4
80006538:	0007879b          	sext.w	a5,a5
8000653c:	fcf748e3          	blt	a4,a5,8000650c <_ebss+0xffe057fc>
80006540:	f504278f          	lq	a5,-176(s0)
80006544:	02078793          	addi	a5,a5,32
80006548:	fcf44023          	sq	a5,-64(s0)
8000654c:	f504278f          	lq	a5,-176(s0)
80006550:	01c7a783          	lw	a5,28(a5)
80006554:	00279793          	slli	a5,a5,0x2
80006558:	fc04270f          	lq	a4,-64(s0)
8000655c:	00f707b3          	add	a5,a4,a5
80006560:	f6f44823          	sq	a5,-144(s0)
80006564:	f4c42783          	lw	a5,-180(s0)
80006568:	01f7f793          	andi	a5,a5,31
8000656c:	f4f42623          	sw	a5,-180(s0)
80006570:	f4c42783          	lw	a5,-180(s0)
80006574:	0007879b          	sext.w	a5,a5
80006578:	0a078063          	beqz	a5,80006618 <__lshift+0x1f4>
8000657c:	02000793          	li	a5,32
80006580:	f4c42703          	lw	a4,-180(s0)
80006584:	40e787bb          	subw	a5,a5,a4
80006588:	fcf42c23          	sw	a5,-40(s0)
8000658c:	fa042623          	sw	zero,-84(s0)
80006590:	fc04278f          	lq	a5,-64(s0)
80006594:	0007a783          	lw	a5,0(a5)
80006598:	f4c42703          	lw	a4,-180(s0)
8000659c:	00e797bb          	sllw	a5,a5,a4
800065a0:	0007861b          	sext.w	a2,a5
800065a4:	fb04278f          	lq	a5,-80(s0)
800065a8:	00478713          	addi	a4,a5,4
800065ac:	fae44823          	sq	a4,-80(s0)
800065b0:	fac42703          	lw	a4,-84(s0)
800065b4:	00070693          	mv	a3,a4
800065b8:	00060713          	mv	a4,a2
800065bc:	00e6e733          	or	a4,a3,a4
800065c0:	0007071b          	sext.w	a4,a4
800065c4:	00e7a023          	sw	a4,0(a5)
800065c8:	fc04278f          	lq	a5,-64(s0)
800065cc:	00478713          	addi	a4,a5,4
800065d0:	fce44023          	sq	a4,-64(s0)
800065d4:	0007a783          	lw	a5,0(a5)
800065d8:	fd842703          	lw	a4,-40(s0)
800065dc:	00e7d7bb          	srlw	a5,a5,a4
800065e0:	faf42623          	sw	a5,-84(s0)
800065e4:	fc04270f          	lq	a4,-64(s0)
800065e8:	f704278f          	lq	a5,-144(s0)
800065ec:	faf762e3          	bltu	a4,a5,80006590 <_ebss+0xffe05880>
800065f0:	fb04278f          	lq	a5,-80(s0)
800065f4:	fac42703          	lw	a4,-84(s0)
800065f8:	00e7a023          	sw	a4,0(a5)
800065fc:	fb04278f          	lq	a5,-80(s0)
80006600:	0007a783          	lw	a5,0(a5)
80006604:	04078063          	beqz	a5,80006644 <__lshift+0x220>
80006608:	fd442783          	lw	a5,-44(s0)
8000660c:	0017879b          	addw	a5,a5,1
80006610:	fcf42a23          	sw	a5,-44(s0)
80006614:	0300006f          	j	80006644 <__lshift+0x220>
80006618:	fc04270f          	lq	a4,-64(s0)
8000661c:	00470793          	addi	a5,a4,4
80006620:	fcf44023          	sq	a5,-64(s0)
80006624:	fb04278f          	lq	a5,-80(s0)
80006628:	00478693          	addi	a3,a5,4
8000662c:	fad44823          	sq	a3,-80(s0)
80006630:	00072703          	lw	a4,0(a4)
80006634:	00e7a023          	sw	a4,0(a5)
80006638:	fc04270f          	lq	a4,-64(s0)
8000663c:	f704278f          	lq	a5,-144(s0)
80006640:	fcf76ce3          	bltu	a4,a5,80006618 <_ebss+0xffe05908>
80006644:	fd442783          	lw	a5,-44(s0)
80006648:	fff7879b          	addw	a5,a5,-1
8000664c:	0007871b          	sext.w	a4,a5
80006650:	f804278f          	lq	a5,-128(s0)
80006654:	00e7ae23          	sw	a4,28(a5)
80006658:	f504258f          	lq	a1,-176(s0)
8000665c:	f604250f          	lq	a0,-160(s0)
80006660:	f2dfe0ef          	jal	8000558c <_ebss+0xffe0487c>
80006664:	f804278f          	lq	a5,-128(s0)
80006668:	00078513          	mv	a0,a5
8000666c:	0b01208f          	lq	ra,176(sp)
80006670:	0a01240f          	lq	s0,160(sp)
80006674:	0c010113          	addi	sp,sp,192
80006678:	00008067          	ret

8000667c <__mcmp>:
8000667c:	f8010113          	addi	sp,sp,-128
80006680:	06814823          	sq	s0,112(sp)
80006684:	08010413          	addi	s0,sp,128
80006688:	f8a44823          	sq	a0,-112(s0)
8000668c:	f8b44023          	sq	a1,-128(s0)
80006690:	f904278f          	lq	a5,-112(s0)
80006694:	01c7a783          	lw	a5,28(a5)
80006698:	fcf42623          	sw	a5,-52(s0)
8000669c:	f804278f          	lq	a5,-128(s0)
800066a0:	01c7a783          	lw	a5,28(a5)
800066a4:	fcf42423          	sw	a5,-56(s0)
800066a8:	fcc42783          	lw	a5,-52(s0)
800066ac:	00078713          	mv	a4,a5
800066b0:	fc842783          	lw	a5,-56(s0)
800066b4:	40f707bb          	subw	a5,a4,a5
800066b8:	fcf42623          	sw	a5,-52(s0)
800066bc:	fcc42783          	lw	a5,-52(s0)
800066c0:	0007879b          	sext.w	a5,a5
800066c4:	00078663          	beqz	a5,800066d0 <__mcmp+0x54>
800066c8:	fcc42783          	lw	a5,-52(s0)
800066cc:	0ac0006f          	j	80006778 <__mcmp+0xfc>
800066d0:	f904278f          	lq	a5,-112(s0)
800066d4:	02078793          	addi	a5,a5,32
800066d8:	faf44823          	sq	a5,-80(s0)
800066dc:	fc842783          	lw	a5,-56(s0)
800066e0:	00279793          	slli	a5,a5,0x2
800066e4:	fb04270f          	lq	a4,-80(s0)
800066e8:	00f707b3          	add	a5,a4,a5
800066ec:	fef44023          	sq	a5,-32(s0)
800066f0:	f804278f          	lq	a5,-128(s0)
800066f4:	02078793          	addi	a5,a5,32
800066f8:	faf44023          	sq	a5,-96(s0)
800066fc:	fc842783          	lw	a5,-56(s0)
80006700:	00279793          	slli	a5,a5,0x2
80006704:	fa04270f          	lq	a4,-96(s0)
80006708:	00f707b3          	add	a5,a4,a5
8000670c:	fcf44823          	sq	a5,-48(s0)
80006710:	fe04278f          	lq	a5,-32(s0)
80006714:	ffc78793          	addi	a5,a5,-4
80006718:	fef44023          	sq	a5,-32(s0)
8000671c:	fe04278f          	lq	a5,-32(s0)
80006720:	0007a703          	lw	a4,0(a5)
80006724:	fd04278f          	lq	a5,-48(s0)
80006728:	ffc78793          	addi	a5,a5,-4
8000672c:	fcf44823          	sq	a5,-48(s0)
80006730:	fd04278f          	lq	a5,-48(s0)
80006734:	0007a783          	lw	a5,0(a5)
80006738:	02f70463          	beq	a4,a5,80006760 <__mcmp+0xe4>
8000673c:	fe04278f          	lq	a5,-32(s0)
80006740:	0007a703          	lw	a4,0(a5)
80006744:	fd04278f          	lq	a5,-48(s0)
80006748:	0007a783          	lw	a5,0(a5)
8000674c:	00f77663          	bgeu	a4,a5,80006758 <__mcmp+0xdc>
80006750:	fff00793          	li	a5,-1
80006754:	0240006f          	j	80006778 <__mcmp+0xfc>
80006758:	00100793          	li	a5,1
8000675c:	01c0006f          	j	80006778 <__mcmp+0xfc>
80006760:	fe04270f          	lq	a4,-32(s0)
80006764:	fb04278f          	lq	a5,-80(s0)
80006768:	00e7f463          	bgeu	a5,a4,80006770 <__mcmp+0xf4>
8000676c:	fa5ff06f          	j	80006710 <_ebss+0xffe05a00>
80006770:	00000013          	nop
80006774:	00000793          	li	a5,0
80006778:	00078513          	mv	a0,a5
8000677c:	0701240f          	lq	s0,112(sp)
80006780:	08010113          	addi	sp,sp,128
80006784:	00008067          	ret

80006788 <__mdiff>:
80006788:	f0010113          	addi	sp,sp,-256
8000678c:	0e114823          	sq	ra,240(sp)
80006790:	0e814023          	sq	s0,224(sp)
80006794:	10010413          	addi	s0,sp,256
80006798:	f2a44023          	sq	a0,-224(s0)
8000679c:	f0b44823          	sq	a1,-240(s0)
800067a0:	f0c44023          	sq	a2,-256(s0)
800067a4:	f004258f          	lq	a1,-256(s0)
800067a8:	f104250f          	lq	a0,-240(s0)
800067ac:	ed1ff0ef          	jal	8000667c <_ebss+0xffe0596c>
800067b0:	00050793          	mv	a5,a0
800067b4:	fcf42e23          	sw	a5,-36(s0)
800067b8:	fdc42783          	lw	a5,-36(s0)
800067bc:	0007879b          	sext.w	a5,a5
800067c0:	04079e63          	bnez	a5,8000681c <__mdiff+0x94>
800067c4:	00000593          	li	a1,0
800067c8:	f204250f          	lq	a0,-224(s0)
800067cc:	be1fe0ef          	jal	800053ac <_ebss+0xffe0469c>
800067d0:	f2a44823          	sq	a0,-208(s0)
800067d4:	f304278f          	lq	a5,-208(s0)
800067d8:	02079063          	bnez	a5,800067f8 <__mdiff+0x70>
800067dc:	00007697          	auipc	a3,0x7
800067e0:	d1468693          	addi	a3,a3,-748 # 8000d4f0 <puts+0x39c>
800067e4:	00000613          	li	a2,0
800067e8:	23700593          	li	a1,567
800067ec:	00007517          	auipc	a0,0x7
800067f0:	cd450513          	addi	a0,a0,-812 # 8000d4c0 <puts+0x36c>
800067f4:	af5fe0ef          	jal	800052e8 <_ebss+0xffe045d8>
800067f8:	f304278f          	lq	a5,-208(s0)
800067fc:	f8f44823          	sq	a5,-112(s0)
80006800:	f904278f          	lq	a5,-112(s0)
80006804:	00100713          	li	a4,1
80006808:	00e7ae23          	sw	a4,28(a5)
8000680c:	f904278f          	lq	a5,-112(s0)
80006810:	0207a023          	sw	zero,32(a5)
80006814:	f904278f          	lq	a5,-112(s0)
80006818:	2e00006f          	j	80006af8 <__mdiff+0x370>
8000681c:	fdc42783          	lw	a5,-36(s0)
80006820:	0007879b          	sext.w	a5,a5
80006824:	0207d463          	bgez	a5,8000684c <__mdiff+0xc4>
80006828:	f104278f          	lq	a5,-240(s0)
8000682c:	f8f44823          	sq	a5,-112(s0)
80006830:	f004278f          	lq	a5,-256(s0)
80006834:	f0f44823          	sq	a5,-240(s0)
80006838:	f904278f          	lq	a5,-112(s0)
8000683c:	f0f44023          	sq	a5,-256(s0)
80006840:	00100793          	li	a5,1
80006844:	fcf42e23          	sw	a5,-36(s0)
80006848:	0080006f          	j	80006850 <__mdiff+0xc8>
8000684c:	fc042e23          	sw	zero,-36(s0)
80006850:	f104278f          	lq	a5,-240(s0)
80006854:	0107a783          	lw	a5,16(a5)
80006858:	00078593          	mv	a1,a5
8000685c:	f204250f          	lq	a0,-224(s0)
80006860:	b4dfe0ef          	jal	800053ac <_ebss+0xffe0469c>
80006864:	f8a44023          	sq	a0,-128(s0)
80006868:	f804278f          	lq	a5,-128(s0)
8000686c:	02079063          	bnez	a5,8000688c <__mdiff+0x104>
80006870:	00007697          	auipc	a3,0x7
80006874:	c8068693          	addi	a3,a3,-896 # 8000d4f0 <puts+0x39c>
80006878:	00000613          	li	a2,0
8000687c:	24500593          	li	a1,581
80006880:	00007517          	auipc	a0,0x7
80006884:	c4050513          	addi	a0,a0,-960 # 8000d4c0 <puts+0x36c>
80006888:	a61fe0ef          	jal	800052e8 <_ebss+0xffe045d8>
8000688c:	f804278f          	lq	a5,-128(s0)
80006890:	f8f44823          	sq	a5,-112(s0)
80006894:	f904278f          	lq	a5,-112(s0)
80006898:	fdc42703          	lw	a4,-36(s0)
8000689c:	00e7ac23          	sw	a4,24(a5)
800068a0:	f104278f          	lq	a5,-240(s0)
800068a4:	01c7a783          	lw	a5,28(a5)
800068a8:	fcf42c23          	sw	a5,-40(s0)
800068ac:	f104278f          	lq	a5,-240(s0)
800068b0:	02078793          	addi	a5,a5,32
800068b4:	fcf44023          	sq	a5,-64(s0)
800068b8:	fd842783          	lw	a5,-40(s0)
800068bc:	00279793          	slli	a5,a5,0x2
800068c0:	fc04270f          	lq	a4,-64(s0)
800068c4:	00f707b3          	add	a5,a4,a5
800068c8:	f6f44823          	sq	a5,-144(s0)
800068cc:	f004278f          	lq	a5,-256(s0)
800068d0:	01c7a783          	lw	a5,28(a5)
800068d4:	f6f42623          	sw	a5,-148(s0)
800068d8:	f004278f          	lq	a5,-256(s0)
800068dc:	02078793          	addi	a5,a5,32
800068e0:	faf44823          	sq	a5,-80(s0)
800068e4:	f6c42783          	lw	a5,-148(s0)
800068e8:	00279793          	slli	a5,a5,0x2
800068ec:	fb04270f          	lq	a4,-80(s0)
800068f0:	00f707b3          	add	a5,a4,a5
800068f4:	f4f44823          	sq	a5,-176(s0)
800068f8:	f904278f          	lq	a5,-112(s0)
800068fc:	02078793          	addi	a5,a5,32
80006900:	faf44023          	sq	a5,-96(s0)
80006904:	fc042a23          	sw	zero,-44(s0)
80006908:	fc04278f          	lq	a5,-64(s0)
8000690c:	0007a783          	lw	a5,0(a5)
80006910:	00078713          	mv	a4,a5
80006914:	000107b7          	lui	a5,0x10
80006918:	fff78793          	addi	a5,a5,-1 # ffff <UART_BASE-0xfff0001>
8000691c:	00f777b3          	and	a5,a4,a5
80006920:	0007871b          	sext.w	a4,a5
80006924:	fb04278f          	lq	a5,-80(s0)
80006928:	0007a783          	lw	a5,0(a5)
8000692c:	00078693          	mv	a3,a5
80006930:	000107b7          	lui	a5,0x10
80006934:	fff78793          	addi	a5,a5,-1 # ffff <UART_BASE-0xfff0001>
80006938:	00f6f7b3          	and	a5,a3,a5
8000693c:	0007879b          	sext.w	a5,a5
80006940:	40f707bb          	subw	a5,a4,a5
80006944:	0007871b          	sext.w	a4,a5
80006948:	fd442783          	lw	a5,-44(s0)
8000694c:	00f707bb          	addw	a5,a4,a5
80006950:	0007879b          	sext.w	a5,a5
80006954:	f4f42623          	sw	a5,-180(s0)
80006958:	f4c42783          	lw	a5,-180(s0)
8000695c:	4107d79b          	sraw	a5,a5,0x10
80006960:	fcf42a23          	sw	a5,-44(s0)
80006964:	fc04278f          	lq	a5,-64(s0)
80006968:	00478713          	addi	a4,a5,4
8000696c:	fce44023          	sq	a4,-64(s0)
80006970:	0007a783          	lw	a5,0(a5)
80006974:	0107d79b          	srlw	a5,a5,0x10
80006978:	0007871b          	sext.w	a4,a5
8000697c:	fb04278f          	lq	a5,-80(s0)
80006980:	00478693          	addi	a3,a5,4
80006984:	fad44823          	sq	a3,-80(s0)
80006988:	0007a783          	lw	a5,0(a5)
8000698c:	0107d79b          	srlw	a5,a5,0x10
80006990:	0007879b          	sext.w	a5,a5
80006994:	40f707bb          	subw	a5,a4,a5
80006998:	0007871b          	sext.w	a4,a5
8000699c:	fd442783          	lw	a5,-44(s0)
800069a0:	00f707bb          	addw	a5,a4,a5
800069a4:	0007879b          	sext.w	a5,a5
800069a8:	f4f42423          	sw	a5,-184(s0)
800069ac:	f4842783          	lw	a5,-184(s0)
800069b0:	4107d79b          	sraw	a5,a5,0x10
800069b4:	fcf42a23          	sw	a5,-44(s0)
800069b8:	f4842783          	lw	a5,-184(s0)
800069bc:	0107979b          	sllw	a5,a5,0x10
800069c0:	0007871b          	sext.w	a4,a5
800069c4:	f4c42783          	lw	a5,-180(s0)
800069c8:	00078693          	mv	a3,a5
800069cc:	000107b7          	lui	a5,0x10
800069d0:	fff78793          	addi	a5,a5,-1 # ffff <UART_BASE-0xfff0001>
800069d4:	00f6f7b3          	and	a5,a3,a5
800069d8:	0007879b          	sext.w	a5,a5
800069dc:	00f767b3          	or	a5,a4,a5
800069e0:	0007869b          	sext.w	a3,a5
800069e4:	fa04278f          	lq	a5,-96(s0)
800069e8:	00478713          	addi	a4,a5,4
800069ec:	fae44023          	sq	a4,-96(s0)
800069f0:	0006871b          	sext.w	a4,a3
800069f4:	00e7a023          	sw	a4,0(a5)
800069f8:	fb04270f          	lq	a4,-80(s0)
800069fc:	f504278f          	lq	a5,-176(s0)
80006a00:	f0f764e3          	bltu	a4,a5,80006908 <_ebss+0xffe05bf8>
80006a04:	0b00006f          	j	80006ab4 <__mdiff+0x32c>
80006a08:	fc04278f          	lq	a5,-64(s0)
80006a0c:	0007a783          	lw	a5,0(a5)
80006a10:	00078713          	mv	a4,a5
80006a14:	000107b7          	lui	a5,0x10
80006a18:	fff78793          	addi	a5,a5,-1 # ffff <UART_BASE-0xfff0001>
80006a1c:	00f777b3          	and	a5,a4,a5
80006a20:	0007871b          	sext.w	a4,a5
80006a24:	fd442783          	lw	a5,-44(s0)
80006a28:	00f707bb          	addw	a5,a4,a5
80006a2c:	0007879b          	sext.w	a5,a5
80006a30:	f4f42623          	sw	a5,-180(s0)
80006a34:	f4c42783          	lw	a5,-180(s0)
80006a38:	4107d79b          	sraw	a5,a5,0x10
80006a3c:	fcf42a23          	sw	a5,-44(s0)
80006a40:	fc04278f          	lq	a5,-64(s0)
80006a44:	00478713          	addi	a4,a5,4
80006a48:	fce44023          	sq	a4,-64(s0)
80006a4c:	0007a783          	lw	a5,0(a5)
80006a50:	0107d79b          	srlw	a5,a5,0x10
80006a54:	0007871b          	sext.w	a4,a5
80006a58:	fd442783          	lw	a5,-44(s0)
80006a5c:	00f707bb          	addw	a5,a4,a5
80006a60:	0007879b          	sext.w	a5,a5
80006a64:	f4f42423          	sw	a5,-184(s0)
80006a68:	f4842783          	lw	a5,-184(s0)
80006a6c:	4107d79b          	sraw	a5,a5,0x10
80006a70:	fcf42a23          	sw	a5,-44(s0)
80006a74:	f4842783          	lw	a5,-184(s0)
80006a78:	0107979b          	sllw	a5,a5,0x10
80006a7c:	0007871b          	sext.w	a4,a5
80006a80:	f4c42783          	lw	a5,-180(s0)
80006a84:	00078693          	mv	a3,a5
80006a88:	000107b7          	lui	a5,0x10
80006a8c:	fff78793          	addi	a5,a5,-1 # ffff <UART_BASE-0xfff0001>
80006a90:	00f6f7b3          	and	a5,a3,a5
80006a94:	0007879b          	sext.w	a5,a5
80006a98:	00f767b3          	or	a5,a4,a5
80006a9c:	0007869b          	sext.w	a3,a5
80006aa0:	fa04278f          	lq	a5,-96(s0)
80006aa4:	00478713          	addi	a4,a5,4
80006aa8:	fae44023          	sq	a4,-96(s0)
80006aac:	0006871b          	sext.w	a4,a3
80006ab0:	00e7a023          	sw	a4,0(a5)
80006ab4:	fc04270f          	lq	a4,-64(s0)
80006ab8:	f704278f          	lq	a5,-144(s0)
80006abc:	f4f766e3          	bltu	a4,a5,80006a08 <_ebss+0xffe05cf8>
80006ac0:	0100006f          	j	80006ad0 <__mdiff+0x348>
80006ac4:	fd842783          	lw	a5,-40(s0)
80006ac8:	fff7879b          	addw	a5,a5,-1
80006acc:	fcf42c23          	sw	a5,-40(s0)
80006ad0:	fa04278f          	lq	a5,-96(s0)
80006ad4:	ffc78793          	addi	a5,a5,-4
80006ad8:	faf44023          	sq	a5,-96(s0)
80006adc:	fa04278f          	lq	a5,-96(s0)
80006ae0:	0007a783          	lw	a5,0(a5)
80006ae4:	fe0780e3          	beqz	a5,80006ac4 <_ebss+0xffe05db4>
80006ae8:	f904278f          	lq	a5,-112(s0)
80006aec:	fd842703          	lw	a4,-40(s0)
80006af0:	00e7ae23          	sw	a4,28(a5)
80006af4:	f904278f          	lq	a5,-112(s0)
80006af8:	00078513          	mv	a0,a5
80006afc:	0f01208f          	lq	ra,240(sp)
80006b00:	0e01240f          	lq	s0,224(sp)
80006b04:	10010113          	addi	sp,sp,256
80006b08:	00008067          	ret

80006b0c <__ulp>:
80006b0c:	fb010113          	addi	sp,sp,-80
80006b10:	04814023          	sq	s0,64(sp)
80006b14:	02914823          	sq	s1,48(sp)
80006b18:	05010413          	addi	s0,sp,80
80006b1c:	faa43c23          	sd	a0,-72(s0)
80006b20:	fb843783          	ld	a5,-72(s0)
80006b24:	fcf43823          	sd	a5,-48(s0)
80006b28:	fd442783          	lw	a5,-44(s0)
80006b2c:	00078713          	mv	a4,a5
80006b30:	7ff007b7          	lui	a5,0x7ff00
80006b34:	00f777b3          	and	a5,a4,a5
80006b38:	0007871b          	sext.w	a4,a5
80006b3c:	fcc007b7          	lui	a5,0xfcc00
80006b40:	00f707bb          	addw	a5,a4,a5
80006b44:	0007879b          	sext.w	a5,a5
80006b48:	0007849b          	sext.w	s1,a5
80006b4c:	00048793          	mv	a5,s1
80006b50:	00f05a63          	blez	a5,80006b64 <__ulp+0x58>
80006b54:	0004879b          	sext.w	a5,s1
80006b58:	fcf42223          	sw	a5,-60(s0)
80006b5c:	fc042023          	sw	zero,-64(s0)
80006b60:	0700006f          	j	80006bd0 <__ulp+0xc4>
80006b64:	409007bb          	negw	a5,s1
80006b68:	0007879b          	sext.w	a5,a5
80006b6c:	4147d79b          	sraw	a5,a5,0x14
80006b70:	0007849b          	sext.w	s1,a5
80006b74:	00048713          	mv	a4,s1
80006b78:	01300793          	li	a5,19
80006b7c:	02e7c063          	blt	a5,a4,80006b9c <__ulp+0x90>
80006b80:	000807b7          	lui	a5,0x80
80006b84:	4097d7bb          	sraw	a5,a5,s1
80006b88:	0007879b          	sext.w	a5,a5
80006b8c:	0007879b          	sext.w	a5,a5
80006b90:	fcf42223          	sw	a5,-60(s0)
80006b94:	fc042023          	sw	zero,-64(s0)
80006b98:	0380006f          	j	80006bd0 <__ulp+0xc4>
80006b9c:	fc042223          	sw	zero,-60(s0)
80006ba0:	fec4879b          	addw	a5,s1,-20
80006ba4:	0007849b          	sext.w	s1,a5
80006ba8:	00048713          	mv	a4,s1
80006bac:	01e00793          	li	a5,30
80006bb0:	00e7cc63          	blt	a5,a4,80006bc8 <__ulp+0xbc>
80006bb4:	00048713          	mv	a4,s1
80006bb8:	800007b7          	lui	a5,0x80000
80006bbc:	00e7d7bb          	srlw	a5,a5,a4
80006bc0:	0007879b          	sext.w	a5,a5
80006bc4:	0080006f          	j	80006bcc <__ulp+0xc0>
80006bc8:	00100793          	li	a5,1
80006bcc:	fcf42023          	sw	a5,-64(s0)
80006bd0:	fc043783          	ld	a5,-64(s0)
80006bd4:	00078513          	mv	a0,a5
80006bd8:	0401240f          	lq	s0,64(sp)
80006bdc:	0301248f          	lq	s1,48(sp)
80006be0:	05010113          	addi	sp,sp,80
80006be4:	00008067          	ret

80006be8 <__b2d>:
80006be8:	f8010113          	addi	sp,sp,-128
80006bec:	06114823          	sq	ra,112(sp)
80006bf0:	06814023          	sq	s0,96(sp)
80006bf4:	08010413          	addi	s0,sp,128
80006bf8:	f8a44823          	sq	a0,-112(s0)
80006bfc:	f8b44023          	sq	a1,-128(s0)
80006c00:	f904278f          	lq	a5,-112(s0)
80006c04:	02078793          	addi	a5,a5,32 # 80000020 <_ebss+0xffdff310>
80006c08:	fcf44023          	sq	a5,-64(s0)
80006c0c:	f904278f          	lq	a5,-112(s0)
80006c10:	01c7a783          	lw	a5,28(a5)
80006c14:	00279793          	slli	a5,a5,0x2
80006c18:	fc04270f          	lq	a4,-64(s0)
80006c1c:	00f707b3          	add	a5,a4,a5
80006c20:	fcf44823          	sq	a5,-48(s0)
80006c24:	fd04278f          	lq	a5,-48(s0)
80006c28:	ffc78793          	addi	a5,a5,-4
80006c2c:	fcf44823          	sq	a5,-48(s0)
80006c30:	fd04278f          	lq	a5,-48(s0)
80006c34:	0007a783          	lw	a5,0(a5)
80006c38:	faf42e23          	sw	a5,-68(s0)
80006c3c:	fbc42783          	lw	a5,-68(s0)
80006c40:	00078513          	mv	a0,a5
80006c44:	e61fe0ef          	jal	80005aa4 <_ebss+0xffe04d94>
80006c48:	00050793          	mv	a5,a0
80006c4c:	faf42c23          	sw	a5,-72(s0)
80006c50:	02000793          	li	a5,32
80006c54:	fb842703          	lw	a4,-72(s0)
80006c58:	40e787bb          	subw	a5,a5,a4
80006c5c:	0007871b          	sext.w	a4,a5
80006c60:	f804278f          	lq	a5,-128(s0)
80006c64:	00e7a023          	sw	a4,0(a5)
80006c68:	fb842783          	lw	a5,-72(s0)
80006c6c:	0007871b          	sext.w	a4,a5
80006c70:	00a00793          	li	a5,10
80006c74:	0ae7c263          	blt	a5,a4,80006d18 <__b2d+0x130>
80006c78:	00b00793          	li	a5,11
80006c7c:	fb842703          	lw	a4,-72(s0)
80006c80:	40e787bb          	subw	a5,a5,a4
80006c84:	0007879b          	sext.w	a5,a5
80006c88:	fbc42703          	lw	a4,-68(s0)
80006c8c:	00f757bb          	srlw	a5,a4,a5
80006c90:	0007879b          	sext.w	a5,a5
80006c94:	00078713          	mv	a4,a5
80006c98:	3ff007b7          	lui	a5,0x3ff00
80006c9c:	00f767b3          	or	a5,a4,a5
80006ca0:	0007879b          	sext.w	a5,a5
80006ca4:	faf42223          	sw	a5,-92(s0)
80006ca8:	fd04270f          	lq	a4,-48(s0)
80006cac:	fc04278f          	lq	a5,-64(s0)
80006cb0:	00e7fe63          	bgeu	a5,a4,80006ccc <__b2d+0xe4>
80006cb4:	fd04278f          	lq	a5,-48(s0)
80006cb8:	ffc78793          	addi	a5,a5,-4 # 3feffffc <UART_BASE+0x2feffffc>
80006cbc:	fcf44823          	sq	a5,-48(s0)
80006cc0:	fd04278f          	lq	a5,-48(s0)
80006cc4:	0007a783          	lw	a5,0(a5)
80006cc8:	0080006f          	j	80006cd0 <__b2d+0xe8>
80006ccc:	00000793          	li	a5,0
80006cd0:	faf42823          	sw	a5,-80(s0)
80006cd4:	fb842783          	lw	a5,-72(s0)
80006cd8:	0157879b          	addw	a5,a5,21
80006cdc:	0007879b          	sext.w	a5,a5
80006ce0:	fbc42703          	lw	a4,-68(s0)
80006ce4:	00f717bb          	sllw	a5,a4,a5
80006ce8:	0007871b          	sext.w	a4,a5
80006cec:	00b00793          	li	a5,11
80006cf0:	fb842683          	lw	a3,-72(s0)
80006cf4:	40d787bb          	subw	a5,a5,a3
80006cf8:	0007879b          	sext.w	a5,a5
80006cfc:	fb042683          	lw	a3,-80(s0)
80006d00:	00f6d7bb          	srlw	a5,a3,a5
80006d04:	0007879b          	sext.w	a5,a5
80006d08:	00f767b3          	or	a5,a4,a5
80006d0c:	0007879b          	sext.w	a5,a5
80006d10:	faf42023          	sw	a5,-96(s0)
80006d14:	1180006f          	j	80006e2c <__b2d+0x244>
80006d18:	fd04270f          	lq	a4,-48(s0)
80006d1c:	fc04278f          	lq	a5,-64(s0)
80006d20:	00e7fe63          	bgeu	a5,a4,80006d3c <__b2d+0x154>
80006d24:	fd04278f          	lq	a5,-48(s0)
80006d28:	ffc78793          	addi	a5,a5,-4
80006d2c:	fcf44823          	sq	a5,-48(s0)
80006d30:	fd04278f          	lq	a5,-48(s0)
80006d34:	0007a783          	lw	a5,0(a5)
80006d38:	0080006f          	j	80006d40 <__b2d+0x158>
80006d3c:	00000793          	li	a5,0
80006d40:	faf42a23          	sw	a5,-76(s0)
80006d44:	fb842783          	lw	a5,-72(s0)
80006d48:	ff57879b          	addw	a5,a5,-11
80006d4c:	faf42c23          	sw	a5,-72(s0)
80006d50:	fb842783          	lw	a5,-72(s0)
80006d54:	0007879b          	sext.w	a5,a5
80006d58:	0a078a63          	beqz	a5,80006e0c <__b2d+0x224>
80006d5c:	fb842783          	lw	a5,-72(s0)
80006d60:	fbc42703          	lw	a4,-68(s0)
80006d64:	00f717bb          	sllw	a5,a4,a5
80006d68:	0007871b          	sext.w	a4,a5
80006d6c:	02000793          	li	a5,32
80006d70:	fb842683          	lw	a3,-72(s0)
80006d74:	40d787bb          	subw	a5,a5,a3
80006d78:	0007879b          	sext.w	a5,a5
80006d7c:	fb442683          	lw	a3,-76(s0)
80006d80:	00f6d7bb          	srlw	a5,a3,a5
80006d84:	0007879b          	sext.w	a5,a5
80006d88:	00f767b3          	or	a5,a4,a5
80006d8c:	0007879b          	sext.w	a5,a5
80006d90:	00078713          	mv	a4,a5
80006d94:	3ff007b7          	lui	a5,0x3ff00
80006d98:	00f767b3          	or	a5,a4,a5
80006d9c:	0007879b          	sext.w	a5,a5
80006da0:	faf42223          	sw	a5,-92(s0)
80006da4:	fd04270f          	lq	a4,-48(s0)
80006da8:	fc04278f          	lq	a5,-64(s0)
80006dac:	00e7fe63          	bgeu	a5,a4,80006dc8 <__b2d+0x1e0>
80006db0:	fd04278f          	lq	a5,-48(s0)
80006db4:	ffc78793          	addi	a5,a5,-4 # 3feffffc <UART_BASE+0x2feffffc>
80006db8:	fcf44823          	sq	a5,-48(s0)
80006dbc:	fd04278f          	lq	a5,-48(s0)
80006dc0:	0007a783          	lw	a5,0(a5)
80006dc4:	0080006f          	j	80006dcc <__b2d+0x1e4>
80006dc8:	00000793          	li	a5,0
80006dcc:	faf42e23          	sw	a5,-68(s0)
80006dd0:	fb842783          	lw	a5,-72(s0)
80006dd4:	fb442703          	lw	a4,-76(s0)
80006dd8:	00f717bb          	sllw	a5,a4,a5
80006ddc:	0007871b          	sext.w	a4,a5
80006de0:	02000793          	li	a5,32
80006de4:	fb842683          	lw	a3,-72(s0)
80006de8:	40d787bb          	subw	a5,a5,a3
80006dec:	0007879b          	sext.w	a5,a5
80006df0:	fbc42683          	lw	a3,-68(s0)
80006df4:	00f6d7bb          	srlw	a5,a3,a5
80006df8:	0007879b          	sext.w	a5,a5
80006dfc:	00f767b3          	or	a5,a4,a5
80006e00:	0007879b          	sext.w	a5,a5
80006e04:	faf42023          	sw	a5,-96(s0)
80006e08:	0240006f          	j	80006e2c <__b2d+0x244>
80006e0c:	fbc42783          	lw	a5,-68(s0)
80006e10:	00078713          	mv	a4,a5
80006e14:	3ff007b7          	lui	a5,0x3ff00
80006e18:	00f767b3          	or	a5,a4,a5
80006e1c:	0007879b          	sext.w	a5,a5
80006e20:	faf42223          	sw	a5,-92(s0)
80006e24:	fb442783          	lw	a5,-76(s0)
80006e28:	faf42023          	sw	a5,-96(s0)
80006e2c:	fa043783          	ld	a5,-96(s0)
80006e30:	00078513          	mv	a0,a5
80006e34:	0701208f          	lq	ra,112(sp)
80006e38:	0601240f          	lq	s0,96(sp)
80006e3c:	08010113          	addi	sp,sp,128
80006e40:	00008067          	ret

80006e44 <__d2b>:
80006e44:	f3010113          	addi	sp,sp,-208
80006e48:	0c114023          	sq	ra,192(sp)
80006e4c:	0a814823          	sq	s0,176(sp)
80006e50:	0a914023          	sq	s1,160(sp)
80006e54:	0d010413          	addi	s0,sp,208
80006e58:	f6a44023          	sq	a0,-160(s0)
80006e5c:	f4b43c23          	sd	a1,-168(s0)
80006e60:	f4c44023          	sq	a2,-192(s0)
80006e64:	f2d44823          	sq	a3,-208(s0)
80006e68:	f5843783          	ld	a5,-168(s0)
80006e6c:	f8f43023          	sd	a5,-128(s0)
80006e70:	f5843783          	ld	a5,-168(s0)
80006e74:	f8f43023          	sd	a5,-128(s0)
80006e78:	00100593          	li	a1,1
80006e7c:	f604250f          	lq	a0,-160(s0)
80006e80:	d2cfe0ef          	jal	800053ac <_ebss+0xffe0469c>
80006e84:	faa44823          	sq	a0,-80(s0)
80006e88:	fb04278f          	lq	a5,-80(s0)
80006e8c:	02079063          	bnez	a5,80006eac <__d2b+0x68>
80006e90:	00006697          	auipc	a3,0x6
80006e94:	66068693          	addi	a3,a3,1632 # 8000d4f0 <puts+0x39c>
80006e98:	00000613          	li	a2,0
80006e9c:	30f00593          	li	a1,783
80006ea0:	00006517          	auipc	a0,0x6
80006ea4:	62050513          	addi	a0,a0,1568 # 8000d4c0 <puts+0x36c>
80006ea8:	c40fe0ef          	jal	800052e8 <_ebss+0xffe045d8>
80006eac:	fb04278f          	lq	a5,-80(s0)
80006eb0:	faf44023          	sq	a5,-96(s0)
80006eb4:	fa04278f          	lq	a5,-96(s0)
80006eb8:	02078793          	addi	a5,a5,32 # 3ff00020 <UART_BASE+0x2ff00020>
80006ebc:	f8f44823          	sq	a5,-112(s0)
80006ec0:	f8442783          	lw	a5,-124(s0)
80006ec4:	00078713          	mv	a4,a5
80006ec8:	001007b7          	lui	a5,0x100
80006ecc:	fff78793          	addi	a5,a5,-1 # fffff <UART_BASE-0xff00001>
80006ed0:	00f777b3          	and	a5,a4,a5
80006ed4:	0007879b          	sext.w	a5,a5
80006ed8:	f6f42c23          	sw	a5,-136(s0)
80006edc:	f8442783          	lw	a5,-124(s0)
80006ee0:	00078713          	mv	a4,a5
80006ee4:	800007b7          	lui	a5,0x80000
80006ee8:	fff7c793          	not	a5,a5
80006eec:	00f777b3          	and	a5,a4,a5
80006ef0:	0007879b          	sext.w	a5,a5
80006ef4:	f8f42223          	sw	a5,-124(s0)
80006ef8:	f8442783          	lw	a5,-124(s0)
80006efc:	0147d79b          	srlw	a5,a5,0x14
80006f00:	0007879b          	sext.w	a5,a5
80006f04:	f8f42623          	sw	a5,-116(s0)
80006f08:	f8c42783          	lw	a5,-116(s0)
80006f0c:	0007879b          	sext.w	a5,a5
80006f10:	00078e63          	beqz	a5,80006f2c <__d2b+0xe8>
80006f14:	f7842783          	lw	a5,-136(s0)
80006f18:	00078713          	mv	a4,a5
80006f1c:	001007b7          	lui	a5,0x100
80006f20:	00f767b3          	or	a5,a4,a5
80006f24:	0007879b          	sext.w	a5,a5
80006f28:	f6f42c23          	sw	a5,-136(s0)
80006f2c:	f8042783          	lw	a5,-128(s0)
80006f30:	0a078e63          	beqz	a5,80006fec <__d2b+0x1a8>
80006f34:	f8042783          	lw	a5,-128(s0)
80006f38:	f6f42e23          	sw	a5,-132(s0)
80006f3c:	f7c40793          	addi	a5,s0,-132
80006f40:	00078513          	mv	a0,a5
80006f44:	c29fe0ef          	jal	80005b6c <_ebss+0xffe04e5c>
80006f48:	00050793          	mv	a5,a0
80006f4c:	fcf42423          	sw	a5,-56(s0)
80006f50:	fc842783          	lw	a5,-56(s0)
80006f54:	0007879b          	sext.w	a5,a5
80006f58:	04078663          	beqz	a5,80006fa4 <__d2b+0x160>
80006f5c:	f7842783          	lw	a5,-136(s0)
80006f60:	02000713          	li	a4,32
80006f64:	fc842683          	lw	a3,-56(s0)
80006f68:	40d7073b          	subw	a4,a4,a3
80006f6c:	0007071b          	sext.w	a4,a4
80006f70:	00e797bb          	sllw	a5,a5,a4
80006f74:	0007871b          	sext.w	a4,a5
80006f78:	f7c42783          	lw	a5,-132(s0)
80006f7c:	00f767b3          	or	a5,a4,a5
80006f80:	0007871b          	sext.w	a4,a5
80006f84:	f904278f          	lq	a5,-112(s0)
80006f88:	00e7a023          	sw	a4,0(a5) # 100000 <UART_BASE-0xff00000>
80006f8c:	f7842783          	lw	a5,-136(s0)
80006f90:	fc842703          	lw	a4,-56(s0)
80006f94:	00e7d7bb          	srlw	a5,a5,a4
80006f98:	0007879b          	sext.w	a5,a5
80006f9c:	f6f42c23          	sw	a5,-136(s0)
80006fa0:	0100006f          	j	80006fb0 <__d2b+0x16c>
80006fa4:	f7c42703          	lw	a4,-132(s0)
80006fa8:	f904278f          	lq	a5,-112(s0)
80006fac:	00e7a023          	sw	a4,0(a5)
80006fb0:	f904278f          	lq	a5,-112(s0)
80006fb4:	00478793          	addi	a5,a5,4
80006fb8:	f7842703          	lw	a4,-136(s0)
80006fbc:	00e7a023          	sw	a4,0(a5)
80006fc0:	0007a783          	lw	a5,0(a5)
80006fc4:	00078663          	beqz	a5,80006fd0 <__d2b+0x18c>
80006fc8:	00200793          	li	a5,2
80006fcc:	0080006f          	j	80006fd4 <__d2b+0x190>
80006fd0:	00100793          	li	a5,1
80006fd4:	fa04270f          	lq	a4,-96(s0)
80006fd8:	00f72e23          	sw	a5,28(a4)
80006fdc:	fa04278f          	lq	a5,-96(s0)
80006fe0:	01c7a783          	lw	a5,28(a5)
80006fe4:	fcf42623          	sw	a5,-52(s0)
80006fe8:	0480006f          	j	80007030 <__d2b+0x1ec>
80006fec:	f7840793          	addi	a5,s0,-136
80006ff0:	00078513          	mv	a0,a5
80006ff4:	b79fe0ef          	jal	80005b6c <_ebss+0xffe04e5c>
80006ff8:	00050793          	mv	a5,a0
80006ffc:	fcf42423          	sw	a5,-56(s0)
80007000:	f7842703          	lw	a4,-136(s0)
80007004:	f904278f          	lq	a5,-112(s0)
80007008:	00e7a023          	sw	a4,0(a5)
8000700c:	fa04278f          	lq	a5,-96(s0)
80007010:	00100713          	li	a4,1
80007014:	00e7ae23          	sw	a4,28(a5)
80007018:	fa04278f          	lq	a5,-96(s0)
8000701c:	01c7a783          	lw	a5,28(a5)
80007020:	fcf42623          	sw	a5,-52(s0)
80007024:	fc842783          	lw	a5,-56(s0)
80007028:	0207879b          	addw	a5,a5,32
8000702c:	fcf42423          	sw	a5,-56(s0)
80007030:	f8c42783          	lw	a5,-116(s0)
80007034:	0007879b          	sext.w	a5,a5
80007038:	04078063          	beqz	a5,80007078 <__d2b+0x234>
8000703c:	f8c42783          	lw	a5,-116(s0)
80007040:	bcd7879b          	addw	a5,a5,-1075
80007044:	0007879b          	sext.w	a5,a5
80007048:	fc842703          	lw	a4,-56(s0)
8000704c:	00f707bb          	addw	a5,a4,a5
80007050:	0007871b          	sext.w	a4,a5
80007054:	f404278f          	lq	a5,-192(s0)
80007058:	00e7a023          	sw	a4,0(a5)
8000705c:	03500793          	li	a5,53
80007060:	fc842703          	lw	a4,-56(s0)
80007064:	40e787bb          	subw	a5,a5,a4
80007068:	0007871b          	sext.w	a4,a5
8000706c:	f304278f          	lq	a5,-208(s0)
80007070:	00e7a023          	sw	a4,0(a5)
80007074:	0640006f          	j	800070d8 <__d2b+0x294>
80007078:	f8c42783          	lw	a5,-116(s0)
8000707c:	bce7879b          	addw	a5,a5,-1074
80007080:	0007879b          	sext.w	a5,a5
80007084:	fc842703          	lw	a4,-56(s0)
80007088:	00f707bb          	addw	a5,a4,a5
8000708c:	0007871b          	sext.w	a4,a5
80007090:	f404278f          	lq	a5,-192(s0)
80007094:	00e7a023          	sw	a4,0(a5)
80007098:	fcc42783          	lw	a5,-52(s0)
8000709c:	0057979b          	sllw	a5,a5,0x5
800070a0:	0007849b          	sext.w	s1,a5
800070a4:	fcc42783          	lw	a5,-52(s0)
800070a8:	00279793          	slli	a5,a5,0x2
800070ac:	ffc78793          	addi	a5,a5,-4
800070b0:	f904270f          	lq	a4,-112(s0)
800070b4:	00f707b3          	add	a5,a4,a5
800070b8:	0007a783          	lw	a5,0(a5)
800070bc:	00078513          	mv	a0,a5
800070c0:	9e5fe0ef          	jal	80005aa4 <_ebss+0xffe04d94>
800070c4:	00050793          	mv	a5,a0
800070c8:	40f487bb          	subw	a5,s1,a5
800070cc:	0007871b          	sext.w	a4,a5
800070d0:	f304278f          	lq	a5,-208(s0)
800070d4:	00e7a023          	sw	a4,0(a5)
800070d8:	fa04278f          	lq	a5,-96(s0)
800070dc:	00078513          	mv	a0,a5
800070e0:	0c01208f          	lq	ra,192(sp)
800070e4:	0b01240f          	lq	s0,176(sp)
800070e8:	0a01248f          	lq	s1,160(sp)
800070ec:	0d010113          	addi	sp,sp,208
800070f0:	00008067          	ret

800070f4 <__ratio>:
800070f4:	f9010113          	addi	sp,sp,-112
800070f8:	06114023          	sq	ra,96(sp)
800070fc:	04814823          	sq	s0,80(sp)
80007100:	07010413          	addi	s0,sp,112
80007104:	faa44023          	sq	a0,-96(s0)
80007108:	f8b44823          	sq	a1,-112(s0)
8000710c:	fbc40793          	addi	a5,s0,-68
80007110:	00078593          	mv	a1,a5
80007114:	fa04250f          	lq	a0,-96(s0)
80007118:	ad1ff0ef          	jal	80006be8 <_ebss+0xffe05ed8>
8000711c:	00050793          	mv	a5,a0
80007120:	fcf43823          	sd	a5,-48(s0)
80007124:	fb840793          	addi	a5,s0,-72
80007128:	00078593          	mv	a1,a5
8000712c:	f904250f          	lq	a0,-112(s0)
80007130:	ab9ff0ef          	jal	80006be8 <_ebss+0xffe05ed8>
80007134:	00050793          	mv	a5,a0
80007138:	fcf43023          	sd	a5,-64(s0)
8000713c:	fbc42703          	lw	a4,-68(s0)
80007140:	fb842783          	lw	a5,-72(s0)
80007144:	40f707bb          	subw	a5,a4,a5
80007148:	0007871b          	sext.w	a4,a5
8000714c:	fa04278f          	lq	a5,-96(s0)
80007150:	01c7a683          	lw	a3,28(a5)
80007154:	f904278f          	lq	a5,-112(s0)
80007158:	01c7a783          	lw	a5,28(a5)
8000715c:	40f687bb          	subw	a5,a3,a5
80007160:	0007879b          	sext.w	a5,a5
80007164:	0057979b          	sllw	a5,a5,0x5
80007168:	0007879b          	sext.w	a5,a5
8000716c:	00f707bb          	addw	a5,a4,a5
80007170:	fcf42e23          	sw	a5,-36(s0)
80007174:	fdc42783          	lw	a5,-36(s0)
80007178:	0007879b          	sext.w	a5,a5
8000717c:	02f05263          	blez	a5,800071a0 <__ratio+0xac>
80007180:	fd442703          	lw	a4,-44(s0)
80007184:	fdc42783          	lw	a5,-36(s0)
80007188:	0147979b          	sllw	a5,a5,0x14
8000718c:	0007879b          	sext.w	a5,a5
80007190:	00f707bb          	addw	a5,a4,a5
80007194:	0007879b          	sext.w	a5,a5
80007198:	fcf42a23          	sw	a5,-44(s0)
8000719c:	02c0006f          	j	800071c8 <__ratio+0xd4>
800071a0:	fdc42783          	lw	a5,-36(s0)
800071a4:	40f007bb          	negw	a5,a5
800071a8:	fcf42e23          	sw	a5,-36(s0)
800071ac:	fc442703          	lw	a4,-60(s0)
800071b0:	fdc42783          	lw	a5,-36(s0)
800071b4:	0147979b          	sllw	a5,a5,0x14
800071b8:	0007879b          	sext.w	a5,a5
800071bc:	00f707bb          	addw	a5,a4,a5
800071c0:	0007879b          	sext.w	a5,a5
800071c4:	fcf42223          	sw	a5,-60(s0)
800071c8:	fd043783          	ld	a5,-48(s0)
800071cc:	fc043703          	ld	a4,-64(s0)
800071d0:	00070593          	mv	a1,a4
800071d4:	00078513          	mv	a0,a5
800071d8:	50d030ef          	jal	8000aee4 <__divdf3>
800071dc:	00050793          	mv	a5,a0
800071e0:	00078513          	mv	a0,a5
800071e4:	0601208f          	lq	ra,96(sp)
800071e8:	0501240f          	lq	s0,80(sp)
800071ec:	07010113          	addi	sp,sp,112
800071f0:	00008067          	ret

800071f4 <_mprec_log10>:
800071f4:	fc010113          	addi	sp,sp,-64
800071f8:	02114823          	sq	ra,48(sp)
800071fc:	02814023          	sq	s0,32(sp)
80007200:	04010413          	addi	s0,sp,64
80007204:	00050793          	mv	a5,a0
80007208:	fcf42623          	sw	a5,-52(s0)
8000720c:	00006797          	auipc	a5,0x6
80007210:	44478793          	addi	a5,a5,1092 # 8000d650 <p05.0+0x10>
80007214:	0007b783          	ld	a5,0(a5)
80007218:	fcf43c23          	sd	a5,-40(s0)
8000721c:	fcc42783          	lw	a5,-52(s0)
80007220:	0007871b          	sext.w	a4,a5
80007224:	01700793          	li	a5,23
80007228:	04e7c463          	blt	a5,a4,80007270 <_mprec_log10+0x7c>
8000722c:	00006717          	auipc	a4,0x6
80007230:	2e470713          	addi	a4,a4,740 # 8000d510 <__mprec_tens>
80007234:	fcc42783          	lw	a5,-52(s0)
80007238:	00379793          	slli	a5,a5,0x3
8000723c:	00f707b3          	add	a5,a4,a5
80007240:	0007b783          	ld	a5,0(a5)
80007244:	03c0006f          	j	80007280 <_mprec_log10+0x8c>
80007248:	00006797          	auipc	a5,0x6
8000724c:	41078793          	addi	a5,a5,1040 # 8000d658 <p05.0+0x18>
80007250:	0007b583          	ld	a1,0(a5)
80007254:	fd843503          	ld	a0,-40(s0)
80007258:	3f8040ef          	jal	8000b650 <__muldf3>
8000725c:	00050793          	mv	a5,a0
80007260:	fcf43c23          	sd	a5,-40(s0)
80007264:	fcc42783          	lw	a5,-52(s0)
80007268:	fff7879b          	addw	a5,a5,-1
8000726c:	fcf42623          	sw	a5,-52(s0)
80007270:	fcc42783          	lw	a5,-52(s0)
80007274:	0007879b          	sext.w	a5,a5
80007278:	fcf048e3          	bgtz	a5,80007248 <_ebss+0xffe06538>
8000727c:	fd843783          	ld	a5,-40(s0)
80007280:	00078513          	mv	a0,a5
80007284:	0301208f          	lq	ra,48(sp)
80007288:	0201240f          	lq	s0,32(sp)
8000728c:	04010113          	addi	sp,sp,64
80007290:	00008067          	ret

80007294 <__copybits>:
80007294:	f9010113          	addi	sp,sp,-112
80007298:	06814023          	sq	s0,96(sp)
8000729c:	07010413          	addi	s0,sp,112
800072a0:	faa44823          	sq	a0,-80(s0)
800072a4:	00058793          	mv	a5,a1
800072a8:	f8c44823          	sq	a2,-112(s0)
800072ac:	faf42623          	sw	a5,-84(s0)
800072b0:	fac42783          	lw	a5,-84(s0)
800072b4:	fff7879b          	addw	a5,a5,-1
800072b8:	0007879b          	sext.w	a5,a5
800072bc:	4057d79b          	sraw	a5,a5,0x5
800072c0:	0007879b          	sext.w	a5,a5
800072c4:	00178793          	addi	a5,a5,1
800072c8:	00279793          	slli	a5,a5,0x2
800072cc:	fb04270f          	lq	a4,-80(s0)
800072d0:	00f707b3          	add	a5,a4,a5
800072d4:	fcf44823          	sq	a5,-48(s0)
800072d8:	f904278f          	lq	a5,-112(s0)
800072dc:	02078793          	addi	a5,a5,32
800072e0:	fef44023          	sq	a5,-32(s0)
800072e4:	f904278f          	lq	a5,-112(s0)
800072e8:	01c7a783          	lw	a5,28(a5)
800072ec:	00279793          	slli	a5,a5,0x2
800072f0:	fe04270f          	lq	a4,-32(s0)
800072f4:	00f707b3          	add	a5,a4,a5
800072f8:	fcf44023          	sq	a5,-64(s0)
800072fc:	0240006f          	j	80007320 <__copybits+0x8c>
80007300:	fe04270f          	lq	a4,-32(s0)
80007304:	00470793          	addi	a5,a4,4
80007308:	fef44023          	sq	a5,-32(s0)
8000730c:	fb04278f          	lq	a5,-80(s0)
80007310:	00478693          	addi	a3,a5,4
80007314:	fad44823          	sq	a3,-80(s0)
80007318:	00072703          	lw	a4,0(a4)
8000731c:	00e7a023          	sw	a4,0(a5)
80007320:	fe04270f          	lq	a4,-32(s0)
80007324:	fc04278f          	lq	a5,-64(s0)
80007328:	fcf76ce3          	bltu	a4,a5,80007300 <_ebss+0xffe065f0>
8000732c:	0140006f          	j	80007340 <__copybits+0xac>
80007330:	fb04278f          	lq	a5,-80(s0)
80007334:	00478713          	addi	a4,a5,4
80007338:	fae44823          	sq	a4,-80(s0)
8000733c:	0007a023          	sw	zero,0(a5)
80007340:	fb04270f          	lq	a4,-80(s0)
80007344:	fd04278f          	lq	a5,-48(s0)
80007348:	fef764e3          	bltu	a4,a5,80007330 <_ebss+0xffe06620>
8000734c:	00000013          	nop
80007350:	00000013          	nop
80007354:	0601240f          	lq	s0,96(sp)
80007358:	07010113          	addi	sp,sp,112
8000735c:	00008067          	ret

80007360 <__any_on>:
80007360:	f9010113          	addi	sp,sp,-112
80007364:	06814023          	sq	s0,96(sp)
80007368:	07010413          	addi	s0,sp,112
8000736c:	faa44023          	sq	a0,-96(s0)
80007370:	00058793          	mv	a5,a1
80007374:	f8f42e23          	sw	a5,-100(s0)
80007378:	fa04278f          	lq	a5,-96(s0)
8000737c:	02078793          	addi	a5,a5,32
80007380:	fcf44823          	sq	a5,-48(s0)
80007384:	fa04278f          	lq	a5,-96(s0)
80007388:	01c7a783          	lw	a5,28(a5)
8000738c:	fcf42623          	sw	a5,-52(s0)
80007390:	f9c42783          	lw	a5,-100(s0)
80007394:	4057d79b          	sraw	a5,a5,0x5
80007398:	fef42623          	sw	a5,-20(s0)
8000739c:	fec42783          	lw	a5,-20(s0)
800073a0:	00078713          	mv	a4,a5
800073a4:	fcc42783          	lw	a5,-52(s0)
800073a8:	0007071b          	sext.w	a4,a4
800073ac:	0007879b          	sext.w	a5,a5
800073b0:	00e7d863          	bge	a5,a4,800073c0 <__any_on+0x60>
800073b4:	fcc42783          	lw	a5,-52(s0)
800073b8:	fef42623          	sw	a5,-20(s0)
800073bc:	0940006f          	j	80007450 <__any_on+0xf0>
800073c0:	fec42783          	lw	a5,-20(s0)
800073c4:	00078713          	mv	a4,a5
800073c8:	fcc42783          	lw	a5,-52(s0)
800073cc:	0007071b          	sext.w	a4,a4
800073d0:	0007879b          	sext.w	a5,a5
800073d4:	06f75e63          	bge	a4,a5,80007450 <__any_on+0xf0>
800073d8:	f9c42783          	lw	a5,-100(s0)
800073dc:	01f7f793          	andi	a5,a5,31
800073e0:	f8f42e23          	sw	a5,-100(s0)
800073e4:	f9c42783          	lw	a5,-100(s0)
800073e8:	0007879b          	sext.w	a5,a5
800073ec:	06078263          	beqz	a5,80007450 <__any_on+0xf0>
800073f0:	fec42783          	lw	a5,-20(s0)
800073f4:	00279793          	slli	a5,a5,0x2
800073f8:	fd04270f          	lq	a4,-48(s0)
800073fc:	00f707b3          	add	a5,a4,a5
80007400:	0007a783          	lw	a5,0(a5)
80007404:	fcf42423          	sw	a5,-56(s0)
80007408:	fc842783          	lw	a5,-56(s0)
8000740c:	fcf42223          	sw	a5,-60(s0)
80007410:	f9c42783          	lw	a5,-100(s0)
80007414:	fc442703          	lw	a4,-60(s0)
80007418:	00f757bb          	srlw	a5,a4,a5
8000741c:	fcf42223          	sw	a5,-60(s0)
80007420:	f9c42783          	lw	a5,-100(s0)
80007424:	fc442703          	lw	a4,-60(s0)
80007428:	00f717bb          	sllw	a5,a4,a5
8000742c:	fcf42223          	sw	a5,-60(s0)
80007430:	fc442783          	lw	a5,-60(s0)
80007434:	00078713          	mv	a4,a5
80007438:	fc842783          	lw	a5,-56(s0)
8000743c:	0007071b          	sext.w	a4,a4
80007440:	0007879b          	sext.w	a5,a5
80007444:	00f70663          	beq	a4,a5,80007450 <__any_on+0xf0>
80007448:	00100793          	li	a5,1
8000744c:	0540006f          	j	800074a0 <__any_on+0x140>
80007450:	fd04278f          	lq	a5,-48(s0)
80007454:	faf44823          	sq	a5,-80(s0)
80007458:	fec42783          	lw	a5,-20(s0)
8000745c:	00279793          	slli	a5,a5,0x2
80007460:	fd04270f          	lq	a4,-48(s0)
80007464:	00f707b3          	add	a5,a4,a5
80007468:	fcf44823          	sq	a5,-48(s0)
8000746c:	0240006f          	j	80007490 <__any_on+0x130>
80007470:	fd04278f          	lq	a5,-48(s0)
80007474:	ffc78793          	addi	a5,a5,-4
80007478:	fcf44823          	sq	a5,-48(s0)
8000747c:	fd04278f          	lq	a5,-48(s0)
80007480:	0007a783          	lw	a5,0(a5)
80007484:	00078663          	beqz	a5,80007490 <__any_on+0x130>
80007488:	00100793          	li	a5,1
8000748c:	0140006f          	j	800074a0 <__any_on+0x140>
80007490:	fd04270f          	lq	a4,-48(s0)
80007494:	fb04278f          	lq	a5,-80(s0)
80007498:	fce7ece3          	bltu	a5,a4,80007470 <_ebss+0xffe06760>
8000749c:	00000793          	li	a5,0
800074a0:	00078513          	mv	a0,a5
800074a4:	0601240f          	lq	s0,96(sp)
800074a8:	07010113          	addi	sp,sp,112
800074ac:	00008067          	ret

800074b0 <_sbrk_r>:
800074b0:	fb010113          	addi	sp,sp,-80
800074b4:	04114023          	sq	ra,64(sp)
800074b8:	02814823          	sq	s0,48(sp)
800074bc:	05010413          	addi	s0,sp,80
800074c0:	fca44023          	sq	a0,-64(s0)
800074c4:	fab44823          	sq	a1,-80(s0)
800074c8:	001f9797          	auipc	a5,0x1f9
800074cc:	2b878793          	addi	a5,a5,696 # 80200780 <errno>
800074d0:	0007a023          	sw	zero,0(a5)
800074d4:	fb04250f          	lq	a0,-80(s0)
800074d8:	034050ef          	jal	8000c50c <_sbrk>
800074dc:	fca44823          	sq	a0,-48(s0)
800074e0:	fd04270f          	lq	a4,-48(s0)
800074e4:	fff00793          	li	a5,-1
800074e8:	02f71463          	bne	a4,a5,80007510 <_sbrk_r+0x60>
800074ec:	001f9797          	auipc	a5,0x1f9
800074f0:	29478793          	addi	a5,a5,660 # 80200780 <errno>
800074f4:	0007a783          	lw	a5,0(a5)
800074f8:	00078c63          	beqz	a5,80007510 <_sbrk_r+0x60>
800074fc:	001f9797          	auipc	a5,0x1f9
80007500:	28478793          	addi	a5,a5,644 # 80200780 <errno>
80007504:	0007a703          	lw	a4,0(a5)
80007508:	fc04278f          	lq	a5,-64(s0)
8000750c:	00e7a023          	sw	a4,0(a5)
80007510:	fd04278f          	lq	a5,-48(s0)
80007514:	00078513          	mv	a0,a5
80007518:	0401208f          	lq	ra,64(sp)
8000751c:	0301240f          	lq	s0,48(sp)
80007520:	05010113          	addi	sp,sp,80
80007524:	00008067          	ret

80007528 <__sfvwrite_r>:
80007528:	f2010113          	addi	sp,sp,-224
8000752c:	0c114823          	sq	ra,208(sp)
80007530:	0c814023          	sq	s0,192(sp)
80007534:	0a914823          	sq	s1,176(sp)
80007538:	0b214023          	sq	s2,160(sp)
8000753c:	09314823          	sq	s3,144(sp)
80007540:	09414023          	sq	s4,128(sp)
80007544:	07514823          	sq	s5,112(sp)
80007548:	07614023          	sq	s6,96(sp)
8000754c:	0e010413          	addi	s0,sp,224
80007550:	f2a44023          	sq	a0,-224(s0)
80007554:	00058493          	mv	s1,a1
80007558:	00060b13          	mv	s6,a2
8000755c:	00000a13          	li	s4,0
80007560:	020b290f          	lq	s2,32(s6)
80007564:	00091663          	bnez	s2,80007570 <__sfvwrite_r+0x48>
80007568:	00000793          	li	a5,0
8000756c:	6500006f          	j	80007bbc <__sfvwrite_r+0x694>
80007570:	01849783          	lh	a5,24(s1)
80007574:	07079793          	slli	a5,a5,0x70
80007578:	0707d793          	srli	a5,a5,0x70
8000757c:	0007879b          	sext.w	a5,a5
80007580:	0087f793          	andi	a5,a5,8
80007584:	0007879b          	sext.w	a5,a5
80007588:	00078663          	beqz	a5,80007594 <__sfvwrite_r+0x6c>
8000758c:	0204a78f          	lq	a5,32(s1)
80007590:	02079063          	bnez	a5,800075b0 <__sfvwrite_r+0x88>
80007594:	00048593          	mv	a1,s1
80007598:	f204250f          	lq	a0,-224(s0)
8000759c:	3a4010ef          	jal	80008940 <__swsetup_r>
800075a0:	00050793          	mv	a5,a0
800075a4:	00078663          	beqz	a5,800075b0 <__sfvwrite_r+0x88>
800075a8:	fff00793          	li	a5,-1
800075ac:	6100006f          	j	80007bbc <__sfvwrite_r+0x694>
800075b0:	000b2a8f          	lq	s5,0(s6)
800075b4:	00000913          	li	s2,0
800075b8:	01849783          	lh	a5,24(s1)
800075bc:	07079793          	slli	a5,a5,0x70
800075c0:	0707d793          	srli	a5,a5,0x70
800075c4:	0007879b          	sext.w	a5,a5
800075c8:	0027f793          	andi	a5,a5,2
800075cc:	0007879b          	sext.w	a5,a5
800075d0:	08078063          	beqz	a5,80007650 <__sfvwrite_r+0x128>
800075d4:	0100006f          	j	800075e4 <__sfvwrite_r+0xbc>
800075d8:	000aaa0f          	lq	s4,0(s5)
800075dc:	010aa90f          	lq	s2,16(s5)
800075e0:	020a8a93          	addi	s5,s5,32
800075e4:	fe090ae3          	beqz	s2,800075d8 <_ebss+0xffe068c8>
800075e8:	0804a70f          	lq	a4,128(s1)
800075ec:	0604a58f          	lq	a1,96(s1)
800075f0:	00090793          	mv	a5,s2
800075f4:	800006b7          	lui	a3,0x80000
800075f8:	c006c693          	xor	a3,a3,-1024
800075fc:	00f6f663          	bgeu	a3,a5,80007608 <__sfvwrite_r+0xe0>
80007600:	800007b7          	lui	a5,0x80000
80007604:	c007c793          	xor	a5,a5,-1024
80007608:	0007879b          	sext.w	a5,a5
8000760c:	00078693          	mv	a3,a5
80007610:	000a0613          	mv	a2,s4
80007614:	f204250f          	lq	a0,-224(s0)
80007618:	000700e7          	jalr	a4
8000761c:	00050993          	mv	s3,a0
80007620:	57305863          	blez	s3,80007b90 <__sfvwrite_r+0x668>
80007624:	00098793          	mv	a5,s3
80007628:	00fa0a33          	add	s4,s4,a5
8000762c:	00098793          	mv	a5,s3
80007630:	40f90933          	sub	s2,s2,a5
80007634:	020b278f          	lq	a5,32(s6)
80007638:	00098713          	mv	a4,s3
8000763c:	40e787b3          	sub	a5,a5,a4
80007640:	02fb4023          	sq	a5,32(s6)
80007644:	020b278f          	lq	a5,32(s6)
80007648:	f8079ee3          	bnez	a5,800075e4 <_ebss+0xffe068d4>
8000764c:	53c0006f          	j	80007b88 <__sfvwrite_r+0x660>
80007650:	01849783          	lh	a5,24(s1)
80007654:	07079793          	slli	a5,a5,0x70
80007658:	0707d793          	srli	a5,a5,0x70
8000765c:	0007879b          	sext.w	a5,a5
80007660:	0017f793          	andi	a5,a5,1
80007664:	0007879b          	sext.w	a5,a5
80007668:	34079a63          	bnez	a5,800079bc <__sfvwrite_r+0x494>
8000766c:	0100006f          	j	8000767c <__sfvwrite_r+0x154>
80007670:	000aaa0f          	lq	s4,0(s5)
80007674:	010aa90f          	lq	s2,16(s5)
80007678:	020a8a93          	addi	s5,s5,32
8000767c:	fe090ae3          	beqz	s2,80007670 <_ebss+0xffe06960>
80007680:	0144a783          	lw	a5,20(s1)
80007684:	00078993          	mv	s3,a5
80007688:	01849783          	lh	a5,24(s1)
8000768c:	07079793          	slli	a5,a5,0x70
80007690:	0707d793          	srli	a5,a5,0x70
80007694:	0007879b          	sext.w	a5,a5
80007698:	2007f793          	andi	a5,a5,512
8000769c:	0007879b          	sext.w	a5,a5
800076a0:	20078063          	beqz	a5,800078a0 <__sfvwrite_r+0x378>
800076a4:	00098793          	mv	a5,s3
800076a8:	1af96063          	bltu	s2,a5,80007848 <__sfvwrite_r+0x320>
800076ac:	01849783          	lh	a5,24(s1)
800076b0:	07079793          	slli	a5,a5,0x70
800076b4:	0707d793          	srli	a5,a5,0x70
800076b8:	0007879b          	sext.w	a5,a5
800076bc:	4807f793          	andi	a5,a5,1152
800076c0:	0007879b          	sext.w	a5,a5
800076c4:	18078263          	beqz	a5,80007848 <__sfvwrite_r+0x320>
800076c8:	0004a70f          	lq	a4,0(s1)
800076cc:	0204a78f          	lq	a5,32(s1)
800076d0:	40f707b3          	sub	a5,a4,a5
800076d4:	f2f42e23          	sw	a5,-196(s0)
800076d8:	0304a783          	lw	a5,48(s1)
800076dc:	00078713          	mv	a4,a5
800076e0:	00070793          	mv	a5,a4
800076e4:	0017979b          	sllw	a5,a5,0x1
800076e8:	00e787bb          	addw	a5,a5,a4
800076ec:	0007879b          	sext.w	a5,a5
800076f0:	01f7d71b          	srlw	a4,a5,0x1f
800076f4:	00f707bb          	addw	a5,a4,a5
800076f8:	4017d79b          	sraw	a5,a5,0x1
800076fc:	f4f42e23          	sw	a5,-164(s0)
80007700:	f5c42703          	lw	a4,-164(s0)
80007704:	f3c42783          	lw	a5,-196(s0)
80007708:	00f907b3          	add	a5,s2,a5
8000770c:	00178793          	addi	a5,a5,1 # 80000001 <_ebss+0xffdff2f1>
80007710:	02f77063          	bgeu	a4,a5,80007730 <__sfvwrite_r+0x208>
80007714:	0009071b          	sext.w	a4,s2
80007718:	f3c42783          	lw	a5,-196(s0)
8000771c:	00f707bb          	addw	a5,a4,a5
80007720:	0007879b          	sext.w	a5,a5
80007724:	0017879b          	addw	a5,a5,1
80007728:	0007879b          	sext.w	a5,a5
8000772c:	f4f42e23          	sw	a5,-164(s0)
80007730:	01849783          	lh	a5,24(s1)
80007734:	07079793          	slli	a5,a5,0x70
80007738:	0707d793          	srli	a5,a5,0x70
8000773c:	0007879b          	sext.w	a5,a5
80007740:	4007f793          	andi	a5,a5,1024
80007744:	0007879b          	sext.w	a5,a5
80007748:	06078663          	beqz	a5,800077b4 <__sfvwrite_r+0x28c>
8000774c:	f5c42783          	lw	a5,-164(s0)
80007750:	00078593          	mv	a1,a5
80007754:	f204250f          	lq	a0,-224(s0)
80007758:	880fa0ef          	jal	800017d8 <_ebss+0xffe00ac8>
8000775c:	f6a44023          	sq	a0,-160(s0)
80007760:	f604278f          	lq	a5,-160(s0)
80007764:	00079a63          	bnez	a5,80007778 <__sfvwrite_r+0x250>
80007768:	f204278f          	lq	a5,-224(s0)
8000776c:	00c00713          	li	a4,12
80007770:	00e7a023          	sw	a4,0(a5)
80007774:	4300006f          	j	80007ba4 <__sfvwrite_r+0x67c>
80007778:	0204a78f          	lq	a5,32(s1)
8000777c:	f3c42703          	lw	a4,-196(s0)
80007780:	00070613          	mv	a2,a4
80007784:	00078593          	mv	a1,a5
80007788:	f604250f          	lq	a0,-160(s0)
8000778c:	22d000ef          	jal	800081b8 <memcpy>
80007790:	01849783          	lh	a5,24(s1)
80007794:	b7f7f793          	andi	a5,a5,-1153
80007798:	0107979b          	sllw	a5,a5,0x10
8000779c:	4107d79b          	sraw	a5,a5,0x10
800077a0:	0807e793          	ori	a5,a5,128
800077a4:	0107979b          	sllw	a5,a5,0x10
800077a8:	4107d79b          	sraw	a5,a5,0x10
800077ac:	00f49c23          	sh	a5,24(s1)
800077b0:	05c0006f          	j	8000780c <__sfvwrite_r+0x2e4>
800077b4:	0204a78f          	lq	a5,32(s1)
800077b8:	f5c42703          	lw	a4,-164(s0)
800077bc:	00070613          	mv	a2,a4
800077c0:	00078593          	mv	a1,a5
800077c4:	f204250f          	lq	a0,-224(s0)
800077c8:	6a5010ef          	jal	8000966c <_realloc_r>
800077cc:	f6a44023          	sq	a0,-160(s0)
800077d0:	f604278f          	lq	a5,-160(s0)
800077d4:	02079c63          	bnez	a5,8000780c <__sfvwrite_r+0x2e4>
800077d8:	0204a78f          	lq	a5,32(s1)
800077dc:	00078593          	mv	a1,a5
800077e0:	f204250f          	lq	a0,-224(s0)
800077e4:	3d4010ef          	jal	80008bb8 <_free_r>
800077e8:	01849783          	lh	a5,24(s1)
800077ec:	f7f7f793          	andi	a5,a5,-129
800077f0:	0107979b          	sllw	a5,a5,0x10
800077f4:	4107d79b          	sraw	a5,a5,0x10
800077f8:	00f49c23          	sh	a5,24(s1)
800077fc:	f204278f          	lq	a5,-224(s0)
80007800:	00c00713          	li	a4,12
80007804:	00e7a023          	sw	a4,0(a5)
80007808:	39c0006f          	j	80007ba4 <__sfvwrite_r+0x67c>
8000780c:	f604278f          	lq	a5,-160(s0)
80007810:	02f4c023          	sq	a5,32(s1)
80007814:	f3c42783          	lw	a5,-196(s0)
80007818:	f604270f          	lq	a4,-160(s0)
8000781c:	00f707b3          	add	a5,a4,a5
80007820:	00f4c023          	sq	a5,0(s1)
80007824:	f5c42783          	lw	a5,-164(s0)
80007828:	02f4a823          	sw	a5,48(s1)
8000782c:	00090993          	mv	s3,s2
80007830:	f5c42783          	lw	a5,-164(s0)
80007834:	00078713          	mv	a4,a5
80007838:	f3c42783          	lw	a5,-196(s0)
8000783c:	40f707bb          	subw	a5,a4,a5
80007840:	0007879b          	sext.w	a5,a5
80007844:	00f4aa23          	sw	a5,20(s1)
80007848:	00098793          	mv	a5,s3
8000784c:	00f97463          	bgeu	s2,a5,80007854 <__sfvwrite_r+0x32c>
80007850:	00090993          	mv	s3,s2
80007854:	0004a78f          	lq	a5,0(s1)
80007858:	00098713          	mv	a4,s3
8000785c:	00070613          	mv	a2,a4
80007860:	000a0593          	mv	a1,s4
80007864:	00078513          	mv	a0,a5
80007868:	620020ef          	jal	80009e88 <memmove>
8000786c:	0144a783          	lw	a5,20(s1)
80007870:	0007871b          	sext.w	a4,a5
80007874:	0009879b          	sext.w	a5,s3
80007878:	40f707bb          	subw	a5,a4,a5
8000787c:	0007879b          	sext.w	a5,a5
80007880:	0007879b          	sext.w	a5,a5
80007884:	00f4aa23          	sw	a5,20(s1)
80007888:	0004a78f          	lq	a5,0(s1)
8000788c:	00098713          	mv	a4,s3
80007890:	00e787b3          	add	a5,a5,a4
80007894:	00f4c023          	sq	a5,0(s1)
80007898:	00090993          	mv	s3,s2
8000789c:	0f40006f          	j	80007990 <__sfvwrite_r+0x468>
800078a0:	0004a70f          	lq	a4,0(s1)
800078a4:	0204a78f          	lq	a5,32(s1)
800078a8:	00e7e663          	bltu	a5,a4,800078b4 <__sfvwrite_r+0x38c>
800078ac:	0304a783          	lw	a5,48(s1)
800078b0:	06f97e63          	bgeu	s2,a5,8000792c <__sfvwrite_r+0x404>
800078b4:	00098713          	mv	a4,s3
800078b8:	00090793          	mv	a5,s2
800078bc:	00f77463          	bgeu	a4,a5,800078c4 <__sfvwrite_r+0x39c>
800078c0:	00070793          	mv	a5,a4
800078c4:	00078993          	mv	s3,a5
800078c8:	0004a78f          	lq	a5,0(s1)
800078cc:	00098713          	mv	a4,s3
800078d0:	00070613          	mv	a2,a4
800078d4:	000a0593          	mv	a1,s4
800078d8:	00078513          	mv	a0,a5
800078dc:	5ac020ef          	jal	80009e88 <memmove>
800078e0:	0144a783          	lw	a5,20(s1)
800078e4:	0007871b          	sext.w	a4,a5
800078e8:	0009879b          	sext.w	a5,s3
800078ec:	40f707bb          	subw	a5,a4,a5
800078f0:	0007879b          	sext.w	a5,a5
800078f4:	0007879b          	sext.w	a5,a5
800078f8:	00f4aa23          	sw	a5,20(s1)
800078fc:	0004a78f          	lq	a5,0(s1)
80007900:	00098713          	mv	a4,s3
80007904:	00e787b3          	add	a5,a5,a4
80007908:	00f4c023          	sq	a5,0(s1)
8000790c:	0144a783          	lw	a5,20(s1)
80007910:	06079e63          	bnez	a5,8000798c <__sfvwrite_r+0x464>
80007914:	00048593          	mv	a1,s1
80007918:	f204250f          	lq	a0,-224(s0)
8000791c:	729000ef          	jal	80008844 <_fflush_r>
80007920:	00050793          	mv	a5,a0
80007924:	06078463          	beqz	a5,8000798c <__sfvwrite_r+0x464>
80007928:	27c0006f          	j	80007ba4 <__sfvwrite_r+0x67c>
8000792c:	800007b7          	lui	a5,0x80000
80007930:	ffe7c793          	xor	a5,a5,-2
80007934:	0127e663          	bltu	a5,s2,80007940 <__sfvwrite_r+0x418>
80007938:	0009079b          	sext.w	a5,s2
8000793c:	00c0006f          	j	80007948 <__sfvwrite_r+0x420>
80007940:	800007b7          	lui	a5,0x80000
80007944:	fff7c793          	not	a5,a5
80007948:	0304a703          	lw	a4,48(s1)
8000794c:	02e7c7bb          	divw	a5,a5,a4
80007950:	0007871b          	sext.w	a4,a5
80007954:	0304a783          	lw	a5,48(s1)
80007958:	02f707bb          	mulw	a5,a4,a5
8000795c:	0007879b          	sext.w	a5,a5
80007960:	00078993          	mv	s3,a5
80007964:	0804a78f          	lq	a5,128(s1)
80007968:	0604a70f          	lq	a4,96(s1)
8000796c:	0009869b          	sext.w	a3,s3
80007970:	000a0613          	mv	a2,s4
80007974:	00070593          	mv	a1,a4
80007978:	f204250f          	lq	a0,-224(s0)
8000797c:	000780e7          	jalr	a5 # 80000000 <_ebss+0xffdff2f0>
80007980:	00050993          	mv	s3,a0
80007984:	21305a63          	blez	s3,80007b98 <__sfvwrite_r+0x670>
80007988:	0080006f          	j	80007990 <__sfvwrite_r+0x468>
8000798c:	00000013          	nop
80007990:	00098793          	mv	a5,s3
80007994:	00fa0a33          	add	s4,s4,a5
80007998:	00098793          	mv	a5,s3
8000799c:	40f90933          	sub	s2,s2,a5
800079a0:	020b278f          	lq	a5,32(s6)
800079a4:	00098713          	mv	a4,s3
800079a8:	40e787b3          	sub	a5,a5,a4
800079ac:	02fb4023          	sq	a5,32(s6)
800079b0:	020b278f          	lq	a5,32(s6)
800079b4:	cc0794e3          	bnez	a5,8000767c <_ebss+0xffe0696c>
800079b8:	1d00006f          	j	80007b88 <__sfvwrite_r+0x660>
800079bc:	f6042e23          	sw	zero,-132(s0)
800079c0:	f6042c23          	sw	zero,-136(s0)
800079c4:	0140006f          	j	800079d8 <__sfvwrite_r+0x4b0>
800079c8:	f6042e23          	sw	zero,-132(s0)
800079cc:	000aaa0f          	lq	s4,0(s5)
800079d0:	010aa90f          	lq	s2,16(s5)
800079d4:	020a8a93          	addi	s5,s5,32
800079d8:	fe0908e3          	beqz	s2,800079c8 <_ebss+0xffe06cb8>
800079dc:	f7c42783          	lw	a5,-132(s0)
800079e0:	0007879b          	sext.w	a5,a5
800079e4:	04079863          	bnez	a5,80007a34 <__sfvwrite_r+0x50c>
800079e8:	00090613          	mv	a2,s2
800079ec:	00a00593          	li	a1,10
800079f0:	000a0513          	mv	a0,s4
800079f4:	201010ef          	jal	800093f4 <memchr>
800079f8:	f4a44023          	sq	a0,-192(s0)
800079fc:	f404278f          	lq	a5,-192(s0)
80007a00:	00078c63          	beqz	a5,80007a18 <__sfvwrite_r+0x4f0>
80007a04:	f404278f          	lq	a5,-192(s0)
80007a08:	00178793          	addi	a5,a5,1
80007a0c:	414787b3          	sub	a5,a5,s4
80007a10:	0007879b          	sext.w	a5,a5
80007a14:	0140006f          	j	80007a28 <__sfvwrite_r+0x500>
80007a18:	0009079b          	sext.w	a5,s2
80007a1c:	0017879b          	addw	a5,a5,1
80007a20:	0007879b          	sext.w	a5,a5
80007a24:	0007879b          	sext.w	a5,a5
80007a28:	f6f42c23          	sw	a5,-136(s0)
80007a2c:	00100793          	li	a5,1
80007a30:	f6f42e23          	sw	a5,-132(s0)
80007a34:	f7842703          	lw	a4,-136(s0)
80007a38:	00090793          	mv	a5,s2
80007a3c:	00f77463          	bgeu	a4,a5,80007a44 <__sfvwrite_r+0x51c>
80007a40:	00070793          	mv	a5,a4
80007a44:	00078093          	mv	ra,a5
80007a48:	0144a703          	lw	a4,20(s1)
80007a4c:	0304a783          	lw	a5,48(s1)
80007a50:	00f707bb          	addw	a5,a4,a5
80007a54:	0007879b          	sext.w	a5,a5
80007a58:	00078993          	mv	s3,a5
80007a5c:	0004a70f          	lq	a4,0(s1)
80007a60:	0204a78f          	lq	a5,32(s1)
80007a64:	04e7f463          	bgeu	a5,a4,80007aac <__sfvwrite_r+0x584>
80007a68:	0419d263          	bge	s3,ra,80007aac <__sfvwrite_r+0x584>
80007a6c:	0004a78f          	lq	a5,0(s1)
80007a70:	00098713          	mv	a4,s3
80007a74:	00070613          	mv	a2,a4
80007a78:	000a0593          	mv	a1,s4
80007a7c:	00078513          	mv	a0,a5
80007a80:	408020ef          	jal	80009e88 <memmove>
80007a84:	0004a78f          	lq	a5,0(s1)
80007a88:	00098713          	mv	a4,s3
80007a8c:	00e787b3          	add	a5,a5,a4
80007a90:	00f4c023          	sq	a5,0(s1)
80007a94:	00048593          	mv	a1,s1
80007a98:	f204250f          	lq	a0,-224(s0)
80007a9c:	5a9000ef          	jal	80008844 <_fflush_r>
80007aa0:	00050793          	mv	a5,a0
80007aa4:	08078263          	beqz	a5,80007b28 <__sfvwrite_r+0x600>
80007aa8:	0fc0006f          	j	80007ba4 <__sfvwrite_r+0x67c>
80007aac:	0304a783          	lw	a5,48(s1)
80007ab0:	00078993          	mv	s3,a5
80007ab4:	0330c663          	blt	ra,s3,80007ae0 <__sfvwrite_r+0x5b8>
80007ab8:	0804a78f          	lq	a5,128(s1)
80007abc:	0604a70f          	lq	a4,96(s1)
80007ac0:	0009869b          	sext.w	a3,s3
80007ac4:	000a0613          	mv	a2,s4
80007ac8:	00070593          	mv	a1,a4
80007acc:	f204250f          	lq	a0,-224(s0)
80007ad0:	000780e7          	jalr	a5
80007ad4:	00050993          	mv	s3,a0
80007ad8:	05304863          	bgtz	s3,80007b28 <__sfvwrite_r+0x600>
80007adc:	0c80006f          	j	80007ba4 <__sfvwrite_r+0x67c>
80007ae0:	00008993          	mv	s3,ra
80007ae4:	0004a78f          	lq	a5,0(s1)
80007ae8:	00098713          	mv	a4,s3
80007aec:	00070613          	mv	a2,a4
80007af0:	000a0593          	mv	a1,s4
80007af4:	00078513          	mv	a0,a5
80007af8:	390020ef          	jal	80009e88 <memmove>
80007afc:	0144a783          	lw	a5,20(s1)
80007b00:	0007871b          	sext.w	a4,a5
80007b04:	0009879b          	sext.w	a5,s3
80007b08:	40f707bb          	subw	a5,a4,a5
80007b0c:	0007879b          	sext.w	a5,a5
80007b10:	0007879b          	sext.w	a5,a5
80007b14:	00f4aa23          	sw	a5,20(s1)
80007b18:	0004a78f          	lq	a5,0(s1)
80007b1c:	00098713          	mv	a4,s3
80007b20:	00e787b3          	add	a5,a5,a4
80007b24:	00f4c023          	sq	a5,0(s1)
80007b28:	f7842703          	lw	a4,-136(s0)
80007b2c:	0009879b          	sext.w	a5,s3
80007b30:	40f707bb          	subw	a5,a4,a5
80007b34:	0007879b          	sext.w	a5,a5
80007b38:	f6f42c23          	sw	a5,-136(s0)
80007b3c:	f7842783          	lw	a5,-136(s0)
80007b40:	0007879b          	sext.w	a5,a5
80007b44:	00079e63          	bnez	a5,80007b60 <__sfvwrite_r+0x638>
80007b48:	00048593          	mv	a1,s1
80007b4c:	f204250f          	lq	a0,-224(s0)
80007b50:	4f5000ef          	jal	80008844 <_fflush_r>
80007b54:	00050793          	mv	a5,a0
80007b58:	04079463          	bnez	a5,80007ba0 <__sfvwrite_r+0x678>
80007b5c:	f6042e23          	sw	zero,-132(s0)
80007b60:	00098793          	mv	a5,s3
80007b64:	00fa0a33          	add	s4,s4,a5
80007b68:	00098793          	mv	a5,s3
80007b6c:	40f90933          	sub	s2,s2,a5
80007b70:	020b278f          	lq	a5,32(s6)
80007b74:	00098713          	mv	a4,s3
80007b78:	40e787b3          	sub	a5,a5,a4
80007b7c:	02fb4023          	sq	a5,32(s6)
80007b80:	020b278f          	lq	a5,32(s6)
80007b84:	e4079ae3          	bnez	a5,800079d8 <_ebss+0xffe06cc8>
80007b88:	00000793          	li	a5,0
80007b8c:	0300006f          	j	80007bbc <__sfvwrite_r+0x694>
80007b90:	00000013          	nop
80007b94:	0100006f          	j	80007ba4 <__sfvwrite_r+0x67c>
80007b98:	00000013          	nop
80007b9c:	0080006f          	j	80007ba4 <__sfvwrite_r+0x67c>
80007ba0:	00000013          	nop
80007ba4:	01849783          	lh	a5,24(s1)
80007ba8:	0407e793          	ori	a5,a5,64
80007bac:	0107979b          	sllw	a5,a5,0x10
80007bb0:	4107d79b          	sraw	a5,a5,0x10
80007bb4:	00f49c23          	sh	a5,24(s1)
80007bb8:	fff00793          	li	a5,-1
80007bbc:	00078513          	mv	a0,a5
80007bc0:	0d01208f          	lq	ra,208(sp)
80007bc4:	0c01240f          	lq	s0,192(sp)
80007bc8:	0b01248f          	lq	s1,176(sp)
80007bcc:	0a01290f          	lq	s2,160(sp)
80007bd0:	0901298f          	lq	s3,144(sp)
80007bd4:	08012a0f          	lq	s4,128(sp)
80007bd8:	07012a8f          	lq	s5,112(sp)
80007bdc:	06012b0f          	lq	s6,96(sp)
80007be0:	0e010113          	addi	sp,sp,224
80007be4:	00008067          	ret

80007be8 <std>:
80007be8:	fc010113          	addi	sp,sp,-64
80007bec:	02114823          	sq	ra,48(sp)
80007bf0:	02814023          	sq	s0,32(sp)
80007bf4:	04010413          	addi	s0,sp,64
80007bf8:	fca44823          	sq	a0,-48(s0)
80007bfc:	00058793          	mv	a5,a1
80007c00:	00060713          	mv	a4,a2
80007c04:	fcf42623          	sw	a5,-52(s0)
80007c08:	00070793          	mv	a5,a4
80007c0c:	fcf42423          	sw	a5,-56(s0)
80007c10:	fd04278f          	lq	a5,-48(s0)
80007c14:	0007c023          	sq	zero,0(a5)
80007c18:	fd04278f          	lq	a5,-48(s0)
80007c1c:	0007a823          	sw	zero,16(a5)
80007c20:	fd04278f          	lq	a5,-48(s0)
80007c24:	0007aa23          	sw	zero,20(a5)
80007c28:	fcc42783          	lw	a5,-52(s0)
80007c2c:	0107971b          	sllw	a4,a5,0x10
80007c30:	4107571b          	sraw	a4,a4,0x10
80007c34:	fd04278f          	lq	a5,-48(s0)
80007c38:	00e79c23          	sh	a4,24(a5)
80007c3c:	fd04278f          	lq	a5,-48(s0)
80007c40:	1207a423          	sw	zero,296(a5)
80007c44:	fc842783          	lw	a5,-56(s0)
80007c48:	0107971b          	sllw	a4,a5,0x10
80007c4c:	4107571b          	sraw	a4,a4,0x10
80007c50:	fd04278f          	lq	a5,-48(s0)
80007c54:	00e79d23          	sh	a4,26(a5)
80007c58:	fd04278f          	lq	a5,-48(s0)
80007c5c:	0207c023          	sq	zero,32(a5)
80007c60:	fd04278f          	lq	a5,-48(s0)
80007c64:	0207a823          	sw	zero,48(a5)
80007c68:	fd04278f          	lq	a5,-48(s0)
80007c6c:	0407a023          	sw	zero,64(a5)
80007c70:	fd04278f          	lq	a5,-48(s0)
80007c74:	12078793          	addi	a5,a5,288
80007c78:	00800613          	li	a2,8
80007c7c:	00000593          	li	a1,0
80007c80:	00078513          	mv	a0,a5
80007c84:	c01fc0ef          	jal	80004884 <_ebss+0xffe03b74>
80007c88:	fd04278f          	lq	a5,-48(s0)
80007c8c:	fd04270f          	lq	a4,-48(s0)
80007c90:	06e7c023          	sq	a4,96(a5)
80007c94:	fd04278f          	lq	a5,-48(s0)
80007c98:	00002717          	auipc	a4,0x2
80007c9c:	52470713          	addi	a4,a4,1316 # 8000a1bc <__sread>
80007ca0:	06e7c823          	sq	a4,112(a5)
80007ca4:	fd04278f          	lq	a5,-48(s0)
80007ca8:	00002717          	auipc	a4,0x2
80007cac:	60870713          	addi	a4,a4,1544 # 8000a2b0 <__swrite>
80007cb0:	08e7c023          	sq	a4,128(a5)
80007cb4:	fd04278f          	lq	a5,-48(s0)
80007cb8:	00002717          	auipc	a4,0x2
80007cbc:	6b470713          	addi	a4,a4,1716 # 8000a36c <__sseek>
80007cc0:	08e7c823          	sq	a4,144(a5)
80007cc4:	fd04278f          	lq	a5,-48(s0)
80007cc8:	00002717          	auipc	a4,0x2
80007ccc:	76c70713          	addi	a4,a4,1900 # 8000a434 <__sclose>
80007cd0:	0ae7c023          	sq	a4,160(a5)
80007cd4:	00000013          	nop
80007cd8:	0301208f          	lq	ra,48(sp)
80007cdc:	0201240f          	lq	s0,32(sp)
80007ce0:	04010113          	addi	sp,sp,64
80007ce4:	00008067          	ret

80007ce8 <stdin_init>:
80007ce8:	fd010113          	addi	sp,sp,-48
80007cec:	02114023          	sq	ra,32(sp)
80007cf0:	00814823          	sq	s0,16(sp)
80007cf4:	03010413          	addi	s0,sp,48
80007cf8:	fca44823          	sq	a0,-48(s0)
80007cfc:	00000613          	li	a2,0
80007d00:	00400593          	li	a1,4
80007d04:	fd04250f          	lq	a0,-48(s0)
80007d08:	ee1ff0ef          	jal	80007be8 <_ebss+0xffe06ed8>
80007d0c:	00000013          	nop
80007d10:	0201208f          	lq	ra,32(sp)
80007d14:	0101240f          	lq	s0,16(sp)
80007d18:	03010113          	addi	sp,sp,48
80007d1c:	00008067          	ret

80007d20 <stdout_init>:
80007d20:	fd010113          	addi	sp,sp,-48
80007d24:	02114023          	sq	ra,32(sp)
80007d28:	00814823          	sq	s0,16(sp)
80007d2c:	03010413          	addi	s0,sp,48
80007d30:	fca44823          	sq	a0,-48(s0)
80007d34:	00100613          	li	a2,1
80007d38:	00900593          	li	a1,9
80007d3c:	fd04250f          	lq	a0,-48(s0)
80007d40:	ea9ff0ef          	jal	80007be8 <_ebss+0xffe06ed8>
80007d44:	00000013          	nop
80007d48:	0201208f          	lq	ra,32(sp)
80007d4c:	0101240f          	lq	s0,16(sp)
80007d50:	03010113          	addi	sp,sp,48
80007d54:	00008067          	ret

80007d58 <stderr_init>:
80007d58:	fd010113          	addi	sp,sp,-48
80007d5c:	02114023          	sq	ra,32(sp)
80007d60:	00814823          	sq	s0,16(sp)
80007d64:	03010413          	addi	s0,sp,48
80007d68:	fca44823          	sq	a0,-48(s0)
80007d6c:	00200613          	li	a2,2
80007d70:	01200593          	li	a1,18
80007d74:	fd04250f          	lq	a0,-48(s0)
80007d78:	e71ff0ef          	jal	80007be8 <_ebss+0xffe06ed8>
80007d7c:	00000013          	nop
80007d80:	0201208f          	lq	ra,32(sp)
80007d84:	0101240f          	lq	s0,16(sp)
80007d88:	03010113          	addi	sp,sp,48
80007d8c:	00008067          	ret

80007d90 <sfmoreglue>:
80007d90:	fb010113          	addi	sp,sp,-80
80007d94:	04114023          	sq	ra,64(sp)
80007d98:	02814823          	sq	s0,48(sp)
80007d9c:	05010413          	addi	s0,sp,80
80007da0:	fca44023          	sq	a0,-64(s0)
80007da4:	00058793          	mv	a5,a1
80007da8:	faf42e23          	sw	a5,-68(s0)
80007dac:	fbc42783          	lw	a5,-68(s0)
80007db0:	fff7879b          	addw	a5,a5,-1
80007db4:	0007879b          	sext.w	a5,a5
80007db8:	00078713          	mv	a4,a5
80007dbc:	13000793          	li	a5,304
80007dc0:	02f707b3          	mul	a5,a4,a5
80007dc4:	16078793          	addi	a5,a5,352
80007dc8:	00078593          	mv	a1,a5
80007dcc:	fc04250f          	lq	a0,-64(s0)
80007dd0:	a09f90ef          	jal	800017d8 <_ebss+0xffe00ac8>
80007dd4:	fca44823          	sq	a0,-48(s0)
80007dd8:	fd04278f          	lq	a5,-48(s0)
80007ddc:	00079663          	bnez	a5,80007de8 <sfmoreglue+0x58>
80007de0:	00000793          	li	a5,0
80007de4:	0500006f          	j	80007e34 <sfmoreglue+0xa4>
80007de8:	fd04278f          	lq	a5,-48(s0)
80007dec:	0007c023          	sq	zero,0(a5)
80007df0:	fd04278f          	lq	a5,-48(s0)
80007df4:	fbc42703          	lw	a4,-68(s0)
80007df8:	00e7a823          	sw	a4,16(a5)
80007dfc:	fd04278f          	lq	a5,-48(s0)
80007e00:	03078713          	addi	a4,a5,48
80007e04:	fd04278f          	lq	a5,-48(s0)
80007e08:	02e7c023          	sq	a4,32(a5)
80007e0c:	fd04278f          	lq	a5,-48(s0)
80007e10:	03078693          	addi	a3,a5,48
80007e14:	fbc42703          	lw	a4,-68(s0)
80007e18:	13000793          	li	a5,304
80007e1c:	02f707b3          	mul	a5,a4,a5
80007e20:	00078613          	mv	a2,a5
80007e24:	00000593          	li	a1,0
80007e28:	00068513          	mv	a0,a3
80007e2c:	a59fc0ef          	jal	80004884 <_ebss+0xffe03b74>
80007e30:	fd04278f          	lq	a5,-48(s0)
80007e34:	00078513          	mv	a0,a5
80007e38:	0401208f          	lq	ra,64(sp)
80007e3c:	0301240f          	lq	s0,48(sp)
80007e40:	05010113          	addi	sp,sp,80
80007e44:	00008067          	ret

80007e48 <stdio_exit_handler>:
80007e48:	fe010113          	addi	sp,sp,-32
80007e4c:	00114823          	sq	ra,16(sp)
80007e50:	00814023          	sq	s0,0(sp)
80007e54:	02010413          	addi	s0,sp,32
80007e58:	001f8617          	auipc	a2,0x1f8
80007e5c:	2d860613          	addi	a2,a2,728 # 80200130 <__sglue>
80007e60:	00001597          	auipc	a1,0x1
80007e64:	9e458593          	addi	a1,a1,-1564 # 80008844 <_fflush_r>
80007e68:	001f8517          	auipc	a0,0x1f8
80007e6c:	19850513          	addi	a0,a0,408 # 80200000 <_impure_data>
80007e70:	1b8010ef          	jal	80009028 <_fwalk_sglue>
80007e74:	00000013          	nop
80007e78:	0101208f          	lq	ra,16(sp)
80007e7c:	0001240f          	lq	s0,0(sp)
80007e80:	02010113          	addi	sp,sp,32
80007e84:	00008067          	ret

80007e88 <global_stdio_init>:
80007e88:	fe010113          	addi	sp,sp,-32
80007e8c:	00114823          	sq	ra,16(sp)
80007e90:	00814023          	sq	s0,0(sp)
80007e94:	02010413          	addi	s0,sp,32
80007e98:	001f8797          	auipc	a5,0x1f8
80007e9c:	54878793          	addi	a5,a5,1352 # 802003e0 <__stdio_exit_handler>
80007ea0:	0007a78f          	lq	a5,0(a5)
80007ea4:	02079e63          	bnez	a5,80007ee0 <global_stdio_init+0x58>
80007ea8:	001f8797          	auipc	a5,0x1f8
80007eac:	53878793          	addi	a5,a5,1336 # 802003e0 <__stdio_exit_handler>
80007eb0:	00000717          	auipc	a4,0x0
80007eb4:	f9870713          	addi	a4,a4,-104 # 80007e48 <stdio_exit_handler>
80007eb8:	00e7c023          	sq	a4,0(a5)
80007ebc:	001f8517          	auipc	a0,0x1f8
80007ec0:	53450513          	addi	a0,a0,1332 # 802003f0 <__sf>
80007ec4:	e25ff0ef          	jal	80007ce8 <_ebss+0xffe06fd8>
80007ec8:	001f8517          	auipc	a0,0x1f8
80007ecc:	65850513          	addi	a0,a0,1624 # 80200520 <__sf+0x130>
80007ed0:	e51ff0ef          	jal	80007d20 <_ebss+0xffe07010>
80007ed4:	001f8517          	auipc	a0,0x1f8
80007ed8:	77c50513          	addi	a0,a0,1916 # 80200650 <__sf+0x260>
80007edc:	e7dff0ef          	jal	80007d58 <_ebss+0xffe07048>
80007ee0:	00000013          	nop
80007ee4:	0101208f          	lq	ra,16(sp)
80007ee8:	0001240f          	lq	s0,0(sp)
80007eec:	02010113          	addi	sp,sp,32
80007ef0:	00008067          	ret

80007ef4 <__sfp>:
80007ef4:	fa010113          	addi	sp,sp,-96
80007ef8:	04114823          	sq	ra,80(sp)
80007efc:	04814023          	sq	s0,64(sp)
80007f00:	06010413          	addi	s0,sp,96
80007f04:	faa44023          	sq	a0,-96(s0)
80007f08:	f81ff0ef          	jal	80007e88 <_ebss+0xffe07178>
80007f0c:	001f8797          	auipc	a5,0x1f8
80007f10:	22478793          	addi	a5,a5,548 # 80200130 <__sglue>
80007f14:	faf44823          	sq	a5,-80(s0)
80007f18:	fb04278f          	lq	a5,-80(s0)
80007f1c:	0207a78f          	lq	a5,32(a5)
80007f20:	fcf44823          	sq	a5,-48(s0)
80007f24:	fb04278f          	lq	a5,-80(s0)
80007f28:	0107a783          	lw	a5,16(a5)
80007f2c:	fcf42623          	sw	a5,-52(s0)
80007f30:	01c0006f          	j	80007f4c <__sfp+0x58>
80007f34:	fd04278f          	lq	a5,-48(s0)
80007f38:	01879783          	lh	a5,24(a5)
80007f3c:	08078063          	beqz	a5,80007fbc <__sfp+0xc8>
80007f40:	fd04278f          	lq	a5,-48(s0)
80007f44:	13078793          	addi	a5,a5,304
80007f48:	fcf44823          	sq	a5,-48(s0)
80007f4c:	fcc42783          	lw	a5,-52(s0)
80007f50:	fff7879b          	addw	a5,a5,-1
80007f54:	fcf42623          	sw	a5,-52(s0)
80007f58:	fcc42783          	lw	a5,-52(s0)
80007f5c:	0007879b          	sext.w	a5,a5
80007f60:	fc07dae3          	bgez	a5,80007f34 <_ebss+0xffe07224>
80007f64:	fb04278f          	lq	a5,-80(s0)
80007f68:	0007a78f          	lq	a5,0(a5)
80007f6c:	02079463          	bnez	a5,80007f94 <__sfp+0xa0>
80007f70:	00400593          	li	a1,4
80007f74:	fa04250f          	lq	a0,-96(s0)
80007f78:	e19ff0ef          	jal	80007d90 <_ebss+0xffe07080>
80007f7c:	00050713          	mv	a4,a0
80007f80:	fb04278f          	lq	a5,-80(s0)
80007f84:	00e7c023          	sq	a4,0(a5)
80007f88:	fb04278f          	lq	a5,-80(s0)
80007f8c:	0007a78f          	lq	a5,0(a5)
80007f90:	00078a63          	beqz	a5,80007fa4 <__sfp+0xb0>
80007f94:	fb04278f          	lq	a5,-80(s0)
80007f98:	0007a78f          	lq	a5,0(a5)
80007f9c:	faf44823          	sq	a5,-80(s0)
80007fa0:	f79ff06f          	j	80007f18 <_ebss+0xffe07208>
80007fa4:	00000013          	nop
80007fa8:	fa04278f          	lq	a5,-96(s0)
80007fac:	00c00713          	li	a4,12
80007fb0:	00e7a023          	sw	a4,0(a5)
80007fb4:	00000793          	li	a5,0
80007fb8:	0940006f          	j	8000804c <__sfp+0x158>
80007fbc:	00000013          	nop
80007fc0:	fd04278f          	lq	a5,-48(s0)
80007fc4:	fff00713          	li	a4,-1
80007fc8:	00e79d23          	sh	a4,26(a5)
80007fcc:	fd04278f          	lq	a5,-48(s0)
80007fd0:	00100713          	li	a4,1
80007fd4:	00e79c23          	sh	a4,24(a5)
80007fd8:	fd04278f          	lq	a5,-48(s0)
80007fdc:	1207a423          	sw	zero,296(a5)
80007fe0:	fd04278f          	lq	a5,-48(s0)
80007fe4:	0007c023          	sq	zero,0(a5)
80007fe8:	fd04278f          	lq	a5,-48(s0)
80007fec:	0007aa23          	sw	zero,20(a5)
80007ff0:	fd04278f          	lq	a5,-48(s0)
80007ff4:	0007a823          	sw	zero,16(a5)
80007ff8:	fd04278f          	lq	a5,-48(s0)
80007ffc:	0207c023          	sq	zero,32(a5)
80008000:	fd04278f          	lq	a5,-48(s0)
80008004:	0207a823          	sw	zero,48(a5)
80008008:	fd04278f          	lq	a5,-48(s0)
8000800c:	0407a023          	sw	zero,64(a5)
80008010:	fd04278f          	lq	a5,-48(s0)
80008014:	12078793          	addi	a5,a5,288
80008018:	00800613          	li	a2,8
8000801c:	00000593          	li	a1,0
80008020:	00078513          	mv	a0,a5
80008024:	861fc0ef          	jal	80004884 <_ebss+0xffe03b74>
80008028:	fd04278f          	lq	a5,-48(s0)
8000802c:	0a07c823          	sq	zero,176(a5)
80008030:	fd04278f          	lq	a5,-48(s0)
80008034:	0c07a023          	sw	zero,192(a5)
80008038:	fd04278f          	lq	a5,-48(s0)
8000803c:	0e07c823          	sq	zero,240(a5)
80008040:	fd04278f          	lq	a5,-48(s0)
80008044:	1007a023          	sw	zero,256(a5)
80008048:	fd04278f          	lq	a5,-48(s0)
8000804c:	00078513          	mv	a0,a5
80008050:	0501208f          	lq	ra,80(sp)
80008054:	0401240f          	lq	s0,64(sp)
80008058:	06010113          	addi	sp,sp,96
8000805c:	00008067          	ret

80008060 <cleanup_stdio>:
80008060:	fd010113          	addi	sp,sp,-48
80008064:	02114023          	sq	ra,32(sp)
80008068:	00814823          	sq	s0,16(sp)
8000806c:	03010413          	addi	s0,sp,48
80008070:	fca44823          	sq	a0,-48(s0)
80008074:	fd04278f          	lq	a5,-48(s0)
80008078:	0107a70f          	lq	a4,16(a5)
8000807c:	001f8797          	auipc	a5,0x1f8
80008080:	37478793          	addi	a5,a5,884 # 802003f0 <__sf>
80008084:	00f70c63          	beq	a4,a5,8000809c <cleanup_stdio+0x3c>
80008088:	fd04278f          	lq	a5,-48(s0)
8000808c:	0107a78f          	lq	a5,16(a5)
80008090:	00078593          	mv	a1,a5
80008094:	fd04250f          	lq	a0,-48(s0)
80008098:	7ac000ef          	jal	80008844 <_fflush_r>
8000809c:	fd04278f          	lq	a5,-48(s0)
800080a0:	0207a70f          	lq	a4,32(a5)
800080a4:	001f8797          	auipc	a5,0x1f8
800080a8:	47c78793          	addi	a5,a5,1148 # 80200520 <__sf+0x130>
800080ac:	00f70c63          	beq	a4,a5,800080c4 <cleanup_stdio+0x64>
800080b0:	fd04278f          	lq	a5,-48(s0)
800080b4:	0207a78f          	lq	a5,32(a5)
800080b8:	00078593          	mv	a1,a5
800080bc:	fd04250f          	lq	a0,-48(s0)
800080c0:	784000ef          	jal	80008844 <_fflush_r>
800080c4:	fd04278f          	lq	a5,-48(s0)
800080c8:	0307a70f          	lq	a4,48(a5)
800080cc:	001f8797          	auipc	a5,0x1f8
800080d0:	58478793          	addi	a5,a5,1412 # 80200650 <__sf+0x260>
800080d4:	00f70c63          	beq	a4,a5,800080ec <cleanup_stdio+0x8c>
800080d8:	fd04278f          	lq	a5,-48(s0)
800080dc:	0307a78f          	lq	a5,48(a5)
800080e0:	00078593          	mv	a1,a5
800080e4:	fd04250f          	lq	a0,-48(s0)
800080e8:	75c000ef          	jal	80008844 <_fflush_r>
800080ec:	00000013          	nop
800080f0:	0201208f          	lq	ra,32(sp)
800080f4:	0101240f          	lq	s0,16(sp)
800080f8:	03010113          	addi	sp,sp,48
800080fc:	00008067          	ret

80008100 <__sinit>:
80008100:	fd010113          	addi	sp,sp,-48
80008104:	02114023          	sq	ra,32(sp)
80008108:	00814823          	sq	s0,16(sp)
8000810c:	03010413          	addi	s0,sp,48
80008110:	fca44823          	sq	a0,-48(s0)
80008114:	fd04278f          	lq	a5,-48(s0)
80008118:	0807a78f          	lq	a5,128(a5)
8000811c:	00079e63          	bnez	a5,80008138 <__sinit+0x38>
80008120:	fd04278f          	lq	a5,-48(s0)
80008124:	00000717          	auipc	a4,0x0
80008128:	f3c70713          	addi	a4,a4,-196 # 80008060 <cleanup_stdio>
8000812c:	08e7c023          	sq	a4,128(a5)
80008130:	d59ff0ef          	jal	80007e88 <_ebss+0xffe07178>
80008134:	0080006f          	j	8000813c <__sinit+0x3c>
80008138:	00000013          	nop
8000813c:	0201208f          	lq	ra,32(sp)
80008140:	0101240f          	lq	s0,16(sp)
80008144:	03010113          	addi	sp,sp,48
80008148:	00008067          	ret

8000814c <__libc_memcpy_bytewise>:
8000814c:	fb010113          	addi	sp,sp,-80
80008150:	04814023          	sq	s0,64(sp)
80008154:	05010413          	addi	s0,sp,80
80008158:	fca44823          	sq	a0,-48(s0)
8000815c:	fcb44023          	sq	a1,-64(s0)
80008160:	fac44823          	sq	a2,-80(s0)
80008164:	fd04270f          	lq	a4,-48(s0)
80008168:	fb04278f          	lq	a5,-80(s0)
8000816c:	00f707b3          	add	a5,a4,a5
80008170:	fef44023          	sq	a5,-32(s0)
80008174:	0240006f          	j	80008198 <__libc_memcpy_bytewise+0x4c>
80008178:	fc04270f          	lq	a4,-64(s0)
8000817c:	00170793          	addi	a5,a4,1
80008180:	fcf44023          	sq	a5,-64(s0)
80008184:	fd04278f          	lq	a5,-48(s0)
80008188:	00178693          	addi	a3,a5,1
8000818c:	fcd44823          	sq	a3,-48(s0)
80008190:	00074703          	lbu	a4,0(a4)
80008194:	00e78023          	sb	a4,0(a5)
80008198:	fd04270f          	lq	a4,-48(s0)
8000819c:	fe04278f          	lq	a5,-32(s0)
800081a0:	fcf76ce3          	bltu	a4,a5,80008178 <_ebss+0xffe07468>
800081a4:	00000013          	nop
800081a8:	00000013          	nop
800081ac:	0401240f          	lq	s0,64(sp)
800081b0:	05010113          	addi	sp,sp,80
800081b4:	00008067          	ret

800081b8 <memcpy>:
800081b8:	ea010113          	addi	sp,sp,-352
800081bc:	14114823          	sq	ra,336(sp)
800081c0:	14814023          	sq	s0,320(sp)
800081c4:	16010413          	addi	s0,sp,352
800081c8:	eca44023          	sq	a0,-320(s0)
800081cc:	eab44823          	sq	a1,-336(s0)
800081d0:	eac44023          	sq	a2,-352(s0)
800081d4:	ec04278f          	lq	a5,-320(s0)
800081d8:	fcf44823          	sq	a5,-48(s0)
800081dc:	eb04278f          	lq	a5,-336(s0)
800081e0:	fcf44023          	sq	a5,-64(s0)
800081e4:	fd04270f          	lq	a4,-48(s0)
800081e8:	ea04278f          	lq	a5,-352(s0)
800081ec:	00f707b3          	add	a5,a4,a5
800081f0:	f8f44823          	sq	a5,-112(s0)
800081f4:	00f00793          	li	a5,15
800081f8:	f8f44023          	sq	a5,-128(s0)
800081fc:	ea04270f          	lq	a4,-352(s0)
80008200:	00f00793          	li	a5,15
80008204:	02e7ea63          	bltu	a5,a4,80008238 <memcpy+0x80>
80008208:	fd04270f          	lq	a4,-48(s0)
8000820c:	f904278f          	lq	a5,-112(s0)
80008210:	00f737b3          	sltu	a5,a4,a5
80008214:	0ff7f793          	zext.b	a5,a5
80008218:	000787db          	addid	a5,a5,0
8000821c:	00078a63          	beqz	a5,80008230 <memcpy+0x78>
80008220:	ea04260f          	lq	a2,-352(s0)
80008224:	fc04258f          	lq	a1,-64(s0)
80008228:	fd04250f          	lq	a0,-48(s0)
8000822c:	f21ff0ef          	jal	8000814c <_ebss+0xffe0743c>
80008230:	ec04278f          	lq	a5,-320(s0)
80008234:	2740006f          	j	800084a8 <memcpy+0x2f0>
80008238:	fd04270f          	lq	a4,-48(s0)
8000823c:	f804278f          	lq	a5,-128(s0)
80008240:	00f777b3          	and	a5,a4,a5
80008244:	00f037b3          	snez	a5,a5
80008248:	0ff7f793          	zext.b	a5,a5
8000824c:	000787db          	addid	a5,a5,0
80008250:	04078663          	beqz	a5,8000829c <memcpy+0xe4>
80008254:	fd04270f          	lq	a4,-48(s0)
80008258:	f804278f          	lq	a5,-128(s0)
8000825c:	00f777b3          	and	a5,a4,a5
80008260:	01000713          	li	a4,16
80008264:	40f707b3          	sub	a5,a4,a5
80008268:	f6f44823          	sq	a5,-144(s0)
8000826c:	f704260f          	lq	a2,-144(s0)
80008270:	fc04258f          	lq	a1,-64(s0)
80008274:	fd04250f          	lq	a0,-48(s0)
80008278:	ed5ff0ef          	jal	8000814c <_ebss+0xffe0743c>
8000827c:	fd04270f          	lq	a4,-48(s0)
80008280:	f704278f          	lq	a5,-144(s0)
80008284:	00f707b3          	add	a5,a4,a5
80008288:	fcf44823          	sq	a5,-48(s0)
8000828c:	fc04270f          	lq	a4,-64(s0)
80008290:	f704278f          	lq	a5,-144(s0)
80008294:	00f707b3          	add	a5,a4,a5
80008298:	fcf44023          	sq	a5,-64(s0)
8000829c:	fd04278f          	lq	a5,-48(s0)
800082a0:	faf44823          	sq	a5,-80(s0)
800082a4:	fc04278f          	lq	a5,-64(s0)
800082a8:	faf44023          	sq	a5,-96(s0)
800082ac:	f804278f          	lq	a5,-128(s0)
800082b0:	fff7c713          	not	a4,a5
800082b4:	f904278f          	lq	a5,-112(s0)
800082b8:	00f777b3          	and	a5,a4,a5
800082bc:	f6f44023          	sq	a5,-160(s0)
800082c0:	f604270f          	lq	a4,-160(s0)
800082c4:	fb04278f          	lq	a5,-80(s0)
800082c8:	40f707b3          	sub	a5,a4,a5
800082cc:	0817a793          	slti	a5,a5,129
800082d0:	0017c793          	xor	a5,a5,1
800082d4:	0ff7f793          	zext.b	a5,a5
800082d8:	000787db          	addid	a5,a5,0
800082dc:	18078263          	beqz	a5,80008460 <memcpy+0x2a8>
800082e0:	16c0006f          	j	8000844c <memcpy+0x294>
800082e4:	fa04278f          	lq	a5,-96(s0)
800082e8:	01078713          	addi	a4,a5,16
800082ec:	fae44023          	sq	a4,-96(s0)
800082f0:	0007a78f          	lq	a5,0(a5)
800082f4:	f4f44823          	sq	a5,-176(s0)
800082f8:	fa04278f          	lq	a5,-96(s0)
800082fc:	01078713          	addi	a4,a5,16
80008300:	fae44023          	sq	a4,-96(s0)
80008304:	0007a78f          	lq	a5,0(a5)
80008308:	f4f44023          	sq	a5,-192(s0)
8000830c:	fa04278f          	lq	a5,-96(s0)
80008310:	01078713          	addi	a4,a5,16
80008314:	fae44023          	sq	a4,-96(s0)
80008318:	0007a78f          	lq	a5,0(a5)
8000831c:	f2f44823          	sq	a5,-208(s0)
80008320:	fa04278f          	lq	a5,-96(s0)
80008324:	01078713          	addi	a4,a5,16
80008328:	fae44023          	sq	a4,-96(s0)
8000832c:	0007a78f          	lq	a5,0(a5)
80008330:	f2f44023          	sq	a5,-224(s0)
80008334:	fa04278f          	lq	a5,-96(s0)
80008338:	01078713          	addi	a4,a5,16
8000833c:	fae44023          	sq	a4,-96(s0)
80008340:	0007a78f          	lq	a5,0(a5)
80008344:	f0f44823          	sq	a5,-240(s0)
80008348:	fa04278f          	lq	a5,-96(s0)
8000834c:	01078713          	addi	a4,a5,16
80008350:	fae44023          	sq	a4,-96(s0)
80008354:	0007a78f          	lq	a5,0(a5)
80008358:	f0f44023          	sq	a5,-256(s0)
8000835c:	fa04278f          	lq	a5,-96(s0)
80008360:	01078713          	addi	a4,a5,16
80008364:	fae44023          	sq	a4,-96(s0)
80008368:	0007a78f          	lq	a5,0(a5)
8000836c:	eef44823          	sq	a5,-272(s0)
80008370:	fa04278f          	lq	a5,-96(s0)
80008374:	01078713          	addi	a4,a5,16
80008378:	fae44023          	sq	a4,-96(s0)
8000837c:	0007a78f          	lq	a5,0(a5)
80008380:	eef44023          	sq	a5,-288(s0)
80008384:	fa04278f          	lq	a5,-96(s0)
80008388:	01078713          	addi	a4,a5,16
8000838c:	fae44023          	sq	a4,-96(s0)
80008390:	0007a78f          	lq	a5,0(a5)
80008394:	ecf44823          	sq	a5,-304(s0)
80008398:	fb04278f          	lq	a5,-80(s0)
8000839c:	01078713          	addi	a4,a5,16
800083a0:	fae44823          	sq	a4,-80(s0)
800083a4:	f504270f          	lq	a4,-176(s0)
800083a8:	00e7c023          	sq	a4,0(a5)
800083ac:	fb04278f          	lq	a5,-80(s0)
800083b0:	01078713          	addi	a4,a5,16
800083b4:	fae44823          	sq	a4,-80(s0)
800083b8:	f404270f          	lq	a4,-192(s0)
800083bc:	00e7c023          	sq	a4,0(a5)
800083c0:	fb04278f          	lq	a5,-80(s0)
800083c4:	01078713          	addi	a4,a5,16
800083c8:	fae44823          	sq	a4,-80(s0)
800083cc:	f304270f          	lq	a4,-208(s0)
800083d0:	00e7c023          	sq	a4,0(a5)
800083d4:	fb04278f          	lq	a5,-80(s0)
800083d8:	01078713          	addi	a4,a5,16
800083dc:	fae44823          	sq	a4,-80(s0)
800083e0:	f204270f          	lq	a4,-224(s0)
800083e4:	00e7c023          	sq	a4,0(a5)
800083e8:	fb04278f          	lq	a5,-80(s0)
800083ec:	01078713          	addi	a4,a5,16
800083f0:	fae44823          	sq	a4,-80(s0)
800083f4:	f104270f          	lq	a4,-240(s0)
800083f8:	00e7c023          	sq	a4,0(a5)
800083fc:	fb04278f          	lq	a5,-80(s0)
80008400:	01078713          	addi	a4,a5,16
80008404:	fae44823          	sq	a4,-80(s0)
80008408:	f004270f          	lq	a4,-256(s0)
8000840c:	00e7c023          	sq	a4,0(a5)
80008410:	fb04278f          	lq	a5,-80(s0)
80008414:	01078713          	addi	a4,a5,16
80008418:	fae44823          	sq	a4,-80(s0)
8000841c:	ef04270f          	lq	a4,-272(s0)
80008420:	00e7c023          	sq	a4,0(a5)
80008424:	fb04278f          	lq	a5,-80(s0)
80008428:	01078713          	addi	a4,a5,16
8000842c:	fae44823          	sq	a4,-80(s0)
80008430:	ee04270f          	lq	a4,-288(s0)
80008434:	00e7c023          	sq	a4,0(a5)
80008438:	fb04278f          	lq	a5,-80(s0)
8000843c:	01078713          	addi	a4,a5,16
80008440:	fae44823          	sq	a4,-80(s0)
80008444:	ed04270f          	lq	a4,-304(s0)
80008448:	00e7c023          	sq	a4,0(a5)
8000844c:	f604270f          	lq	a4,-160(s0)
80008450:	fb04278f          	lq	a5,-80(s0)
80008454:	40f70733          	sub	a4,a4,a5
80008458:	08000793          	li	a5,128
8000845c:	e8e7c4e3          	blt	a5,a4,800082e4 <_ebss+0xffe075d4>
80008460:	fb04278f          	lq	a5,-80(s0)
80008464:	fcf44823          	sq	a5,-48(s0)
80008468:	fa04278f          	lq	a5,-96(s0)
8000846c:	fcf44023          	sq	a5,-64(s0)
80008470:	fd04270f          	lq	a4,-48(s0)
80008474:	f904278f          	lq	a5,-112(s0)
80008478:	00f737b3          	sltu	a5,a4,a5
8000847c:	0ff7f793          	zext.b	a5,a5
80008480:	000787db          	addid	a5,a5,0
80008484:	02078063          	beqz	a5,800084a4 <memcpy+0x2ec>
80008488:	f904270f          	lq	a4,-112(s0)
8000848c:	fd04278f          	lq	a5,-48(s0)
80008490:	40f707b3          	sub	a5,a4,a5
80008494:	00078613          	mv	a2,a5
80008498:	fc04258f          	lq	a1,-64(s0)
8000849c:	fd04250f          	lq	a0,-48(s0)
800084a0:	cadff0ef          	jal	8000814c <_ebss+0xffe0743c>
800084a4:	ec04278f          	lq	a5,-320(s0)
800084a8:	00078513          	mv	a0,a5
800084ac:	1501208f          	lq	ra,336(sp)
800084b0:	1401240f          	lq	s0,320(sp)
800084b4:	16010113          	addi	sp,sp,352
800084b8:	00008067          	ret

800084bc <abort>:
800084bc:	fe010113          	addi	sp,sp,-32
800084c0:	00114823          	sq	ra,16(sp)
800084c4:	00814023          	sq	s0,0(sp)
800084c8:	02010413          	addi	s0,sp,32
800084cc:	00600513          	li	a0,6
800084d0:	091010ef          	jal	80009d60 <raise>
800084d4:	00100513          	li	a0,1
800084d8:	090040ef          	jal	8000c568 <_exit>

800084dc <__sflush_r>:
800084dc:	f7010113          	addi	sp,sp,-144
800084e0:	08114023          	sq	ra,128(sp)
800084e4:	06814823          	sq	s0,112(sp)
800084e8:	06914023          	sq	s1,96(sp)
800084ec:	05214823          	sq	s2,80(sp)
800084f0:	05314023          	sq	s3,64(sp)
800084f4:	03414823          	sq	s4,48(sp)
800084f8:	09010413          	addi	s0,sp,144
800084fc:	f6a44823          	sq	a0,-144(s0)
80008500:	00058493          	mv	s1,a1
80008504:	0184d783          	lhu	a5,24(s1)
80008508:	f8f41923          	sh	a5,-110(s0)
8000850c:	f9245783          	lhu	a5,-110(s0)
80008510:	0007879b          	sext.w	a5,a5
80008514:	0087f793          	andi	a5,a5,8
80008518:	0007879b          	sext.w	a5,a5
8000851c:	24079a63          	bnez	a5,80008770 <__sflush_r+0x294>
80008520:	0104a783          	lw	a5,16(s1)
80008524:	00f04663          	bgtz	a5,80008530 <__sflush_r+0x54>
80008528:	0e04a783          	lw	a5,224(s1)
8000852c:	22f05e63          	blez	a5,80008768 <__sflush_r+0x28c>
80008530:	0904a78f          	lq	a5,144(s1)
80008534:	22078a63          	beqz	a5,80008768 <__sflush_r+0x28c>
80008538:	f704278f          	lq	a5,-144(s0)
8000853c:	0007a783          	lw	a5,0(a5)
80008540:	f8f42623          	sw	a5,-116(s0)
80008544:	f704278f          	lq	a5,-144(s0)
80008548:	0007a023          	sw	zero,0(a5)
8000854c:	01849783          	lh	a5,24(s1)
80008550:	07079793          	slli	a5,a5,0x70
80008554:	0707d793          	srli	a5,a5,0x70
80008558:	0007871b          	sext.w	a4,a5
8000855c:	000017b7          	lui	a5,0x1
80008560:	00f777b3          	and	a5,a4,a5
80008564:	0007879b          	sext.w	a5,a5
80008568:	00078863          	beqz	a5,80008578 <__sflush_r+0x9c>
8000856c:	1184b783          	ld	a5,280(s1)
80008570:	f8f43c23          	sd	a5,-104(s0)
80008574:	0a40006f          	j	80008618 <__sflush_r+0x13c>
80008578:	0904a78f          	lq	a5,144(s1)
8000857c:	0604a70f          	lq	a4,96(s1)
80008580:	00100693          	li	a3,1
80008584:	00000613          	li	a2,0
80008588:	00070593          	mv	a1,a4
8000858c:	f704250f          	lq	a0,-144(s0)
80008590:	000780e7          	jalr	a5 # 1000 <UART_BASE-0xffff000>
80008594:	00050793          	mv	a5,a0
80008598:	f8f43c23          	sd	a5,-104(s0)
8000859c:	f9843783          	ld	a5,-104(s0)
800085a0:	0007875b          	addid	a4,a5,0
800085a4:	fff00793          	li	a5,-1
800085a8:	06f71863          	bne	a4,a5,80008618 <__sflush_r+0x13c>
800085ac:	f704278f          	lq	a5,-144(s0)
800085b0:	0007a783          	lw	a5,0(a5)
800085b4:	06078263          	beqz	a5,80008618 <__sflush_r+0x13c>
800085b8:	fff00793          	li	a5,-1
800085bc:	f8f42a23          	sw	a5,-108(s0)
800085c0:	f704278f          	lq	a5,-144(s0)
800085c4:	0007a783          	lw	a5,0(a5)
800085c8:	00078713          	mv	a4,a5
800085cc:	01d00793          	li	a5,29
800085d0:	00f70c63          	beq	a4,a5,800085e8 <__sflush_r+0x10c>
800085d4:	f704278f          	lq	a5,-144(s0)
800085d8:	0007a783          	lw	a5,0(a5)
800085dc:	00078713          	mv	a4,a5
800085e0:	01600793          	li	a5,22
800085e4:	00f71c63          	bne	a4,a5,800085fc <__sflush_r+0x120>
800085e8:	f8042a23          	sw	zero,-108(s0)
800085ec:	f704278f          	lq	a5,-144(s0)
800085f0:	f8c42703          	lw	a4,-116(s0)
800085f4:	00e7a023          	sw	a4,0(a5)
800085f8:	0180006f          	j	80008610 <__sflush_r+0x134>
800085fc:	01849783          	lh	a5,24(s1)
80008600:	0407e793          	ori	a5,a5,64
80008604:	0107979b          	sllw	a5,a5,0x10
80008608:	4107d79b          	sraw	a5,a5,0x10
8000860c:	00f49c23          	sh	a5,24(s1)
80008610:	f9442783          	lw	a5,-108(s0)
80008614:	20c0006f          	j	80008820 <__sflush_r+0x344>
80008618:	01849783          	lh	a5,24(s1)
8000861c:	07079793          	slli	a5,a5,0x70
80008620:	0707d793          	srli	a5,a5,0x70
80008624:	0007879b          	sext.w	a5,a5
80008628:	0047f793          	andi	a5,a5,4
8000862c:	0007879b          	sext.w	a5,a5
80008630:	02078663          	beqz	a5,8000865c <__sflush_r+0x180>
80008634:	0104a783          	lw	a5,16(s1)
80008638:	f9843703          	ld	a4,-104(s0)
8000863c:	40f707fb          	subd	a5,a4,a5
80008640:	f8f43c23          	sd	a5,-104(s0)
80008644:	0b04a78f          	lq	a5,176(s1)
80008648:	00078a63          	beqz	a5,8000865c <__sflush_r+0x180>
8000864c:	0e04a783          	lw	a5,224(s1)
80008650:	f9843703          	ld	a4,-104(s0)
80008654:	40f707fb          	subd	a5,a4,a5
80008658:	f8f43c23          	sd	a5,-104(s0)
8000865c:	0904a78f          	lq	a5,144(s1)
80008660:	0604a70f          	lq	a4,96(s1)
80008664:	f9843603          	ld	a2,-104(s0)
80008668:	00000693          	li	a3,0
8000866c:	00070593          	mv	a1,a4
80008670:	f704250f          	lq	a0,-144(s0)
80008674:	000780e7          	jalr	a5
80008678:	00050793          	mv	a5,a0
8000867c:	f8f43c23          	sd	a5,-104(s0)
80008680:	f9843783          	ld	a5,-104(s0)
80008684:	0007875b          	addid	a4,a5,0
80008688:	fff00793          	li	a5,-1
8000868c:	02f71c63          	bne	a4,a5,800086c4 <__sflush_r+0x1e8>
80008690:	f704278f          	lq	a5,-144(s0)
80008694:	0007a783          	lw	a5,0(a5)
80008698:	02078663          	beqz	a5,800086c4 <__sflush_r+0x1e8>
8000869c:	f704278f          	lq	a5,-144(s0)
800086a0:	0007a783          	lw	a5,0(a5)
800086a4:	00078713          	mv	a4,a5
800086a8:	01d00793          	li	a5,29
800086ac:	00f70c63          	beq	a4,a5,800086c4 <__sflush_r+0x1e8>
800086b0:	f704278f          	lq	a5,-144(s0)
800086b4:	0007a783          	lw	a5,0(a5)
800086b8:	00078713          	mv	a4,a5
800086bc:	01600793          	li	a5,22
800086c0:	08f71663          	bne	a4,a5,8000874c <__sflush_r+0x270>
800086c4:	0004a823          	sw	zero,16(s1)
800086c8:	0204a78f          	lq	a5,32(s1)
800086cc:	00f4c023          	sq	a5,0(s1)
800086d0:	01849783          	lh	a5,24(s1)
800086d4:	07079793          	slli	a5,a5,0x70
800086d8:	0707d793          	srli	a5,a5,0x70
800086dc:	0007871b          	sext.w	a4,a5
800086e0:	000017b7          	lui	a5,0x1
800086e4:	00f777b3          	and	a5,a4,a5
800086e8:	0007879b          	sext.w	a5,a5
800086ec:	02078463          	beqz	a5,80008714 <__sflush_r+0x238>
800086f0:	f9843783          	ld	a5,-104(s0)
800086f4:	0007875b          	addid	a4,a5,0
800086f8:	fff00793          	li	a5,-1
800086fc:	00f71863          	bne	a4,a5,8000870c <__sflush_r+0x230>
80008700:	f704278f          	lq	a5,-144(s0)
80008704:	0007a783          	lw	a5,0(a5) # 1000 <UART_BASE-0xffff000>
80008708:	00079663          	bnez	a5,80008714 <__sflush_r+0x238>
8000870c:	f9843783          	ld	a5,-104(s0)
80008710:	10f4bc23          	sd	a5,280(s1)
80008714:	f704278f          	lq	a5,-144(s0)
80008718:	f8c42703          	lw	a4,-116(s0)
8000871c:	00e7a023          	sw	a4,0(a5)
80008720:	0b04a78f          	lq	a5,176(s1)
80008724:	04078263          	beqz	a5,80008768 <__sflush_r+0x28c>
80008728:	0b04a70f          	lq	a4,176(s1)
8000872c:	0e448793          	addi	a5,s1,228
80008730:	00f70a63          	beq	a4,a5,80008744 <__sflush_r+0x268>
80008734:	0b04a78f          	lq	a5,176(s1)
80008738:	00078593          	mv	a1,a5
8000873c:	f704250f          	lq	a0,-144(s0)
80008740:	478000ef          	jal	80008bb8 <_free_r>
80008744:	0a04c823          	sq	zero,176(s1)
80008748:	0200006f          	j	80008768 <__sflush_r+0x28c>
8000874c:	01849783          	lh	a5,24(s1)
80008750:	0407e793          	ori	a5,a5,64
80008754:	0107979b          	sllw	a5,a5,0x10
80008758:	4107d79b          	sraw	a5,a5,0x10
8000875c:	00f49c23          	sh	a5,24(s1)
80008760:	fff00793          	li	a5,-1
80008764:	0bc0006f          	j	80008820 <__sflush_r+0x344>
80008768:	00000793          	li	a5,0
8000876c:	0b40006f          	j	80008820 <__sflush_r+0x344>
80008770:	0204a90f          	lq	s2,32(s1)
80008774:	00091663          	bnez	s2,80008780 <__sflush_r+0x2a4>
80008778:	00000793          	li	a5,0
8000877c:	0a40006f          	j	80008820 <__sflush_r+0x344>
80008780:	0004a78f          	lq	a5,0(s1)
80008784:	412787b3          	sub	a5,a5,s2
80008788:	0007899b          	sext.w	s3,a5
8000878c:	0124c023          	sq	s2,0(s1)
80008790:	f9245783          	lhu	a5,-110(s0)
80008794:	0007879b          	sext.w	a5,a5
80008798:	0037f793          	andi	a5,a5,3
8000879c:	0007879b          	sext.w	a5,a5
800087a0:	00079663          	bnez	a5,800087ac <__sflush_r+0x2d0>
800087a4:	0304a783          	lw	a5,48(s1)
800087a8:	0080006f          	j	800087b0 <__sflush_r+0x2d4>
800087ac:	00000793          	li	a5,0
800087b0:	00f4aa23          	sw	a5,20(s1)
800087b4:	0600006f          	j	80008814 <__sflush_r+0x338>
800087b8:	0804a78f          	lq	a5,128(s1)
800087bc:	0604a70f          	lq	a4,96(s1)
800087c0:	00098693          	mv	a3,s3
800087c4:	00090613          	mv	a2,s2
800087c8:	00070593          	mv	a1,a4
800087cc:	f704250f          	lq	a0,-144(s0)
800087d0:	000780e7          	jalr	a5
800087d4:	00050a13          	mv	s4,a0
800087d8:	03404063          	bgtz	s4,800087f8 <__sflush_r+0x31c>
800087dc:	01849783          	lh	a5,24(s1)
800087e0:	0407e793          	ori	a5,a5,64
800087e4:	0107979b          	sllw	a5,a5,0x10
800087e8:	4107d79b          	sraw	a5,a5,0x10
800087ec:	00f49c23          	sh	a5,24(s1)
800087f0:	fff00793          	li	a5,-1
800087f4:	02c0006f          	j	80008820 <__sflush_r+0x344>
800087f8:	000a0793          	mv	a5,s4
800087fc:	00f90933          	add	s2,s2,a5
80008800:	0009871b          	sext.w	a4,s3
80008804:	000a079b          	sext.w	a5,s4
80008808:	40f707bb          	subw	a5,a4,a5
8000880c:	0007879b          	sext.w	a5,a5
80008810:	0007899b          	sext.w	s3,a5
80008814:	00098793          	mv	a5,s3
80008818:	faf040e3          	bgtz	a5,800087b8 <_ebss+0xffe07aa8>
8000881c:	00000793          	li	a5,0
80008820:	00078513          	mv	a0,a5
80008824:	0801208f          	lq	ra,128(sp)
80008828:	0701240f          	lq	s0,112(sp)
8000882c:	0601248f          	lq	s1,96(sp)
80008830:	0501290f          	lq	s2,80(sp)
80008834:	0401298f          	lq	s3,64(sp)
80008838:	03012a0f          	lq	s4,48(sp)
8000883c:	09010113          	addi	sp,sp,144
80008840:	00008067          	ret

80008844 <_fflush_r>:
80008844:	fa010113          	addi	sp,sp,-96
80008848:	04114823          	sq	ra,80(sp)
8000884c:	04814023          	sq	s0,64(sp)
80008850:	02914823          	sq	s1,48(sp)
80008854:	06010413          	addi	s0,sp,96
80008858:	faa44023          	sq	a0,-96(s0)
8000885c:	00058493          	mv	s1,a1
80008860:	0204a78f          	lq	a5,32(s1)
80008864:	00079663          	bnez	a5,80008870 <_fflush_r+0x2c>
80008868:	00000793          	li	a5,0
8000886c:	0500006f          	j	800088bc <_fflush_r+0x78>
80008870:	fa04278f          	lq	a5,-96(s0)
80008874:	fcf44023          	sq	a5,-64(s0)
80008878:	fc04278f          	lq	a5,-64(s0)
8000887c:	00078c63          	beqz	a5,80008894 <_fflush_r+0x50>
80008880:	fc04278f          	lq	a5,-64(s0)
80008884:	0807a78f          	lq	a5,128(a5)
80008888:	00079663          	bnez	a5,80008894 <_fflush_r+0x50>
8000888c:	fc04250f          	lq	a0,-64(s0)
80008890:	871ff0ef          	jal	80008100 <_ebss+0xffe073f0>
80008894:	01849783          	lh	a5,24(s1)
80008898:	00079663          	bnez	a5,800088a4 <_fflush_r+0x60>
8000889c:	00000793          	li	a5,0
800088a0:	01c0006f          	j	800088bc <_fflush_r+0x78>
800088a4:	00048593          	mv	a1,s1
800088a8:	fa04250f          	lq	a0,-96(s0)
800088ac:	c31ff0ef          	jal	800084dc <_ebss+0xffe077cc>
800088b0:	00050793          	mv	a5,a0
800088b4:	faf42e23          	sw	a5,-68(s0)
800088b8:	fbc42783          	lw	a5,-68(s0)
800088bc:	00078513          	mv	a0,a5
800088c0:	0501208f          	lq	ra,80(sp)
800088c4:	0401240f          	lq	s0,64(sp)
800088c8:	0301248f          	lq	s1,48(sp)
800088cc:	06010113          	addi	sp,sp,96
800088d0:	00008067          	ret

800088d4 <fflush>:
800088d4:	fe010113          	addi	sp,sp,-32
800088d8:	00114823          	sq	ra,16(sp)
800088dc:	00814023          	sq	s0,0(sp)
800088e0:	02010413          	addi	s0,sp,32
800088e4:	00050793          	mv	a5,a0
800088e8:	02079463          	bnez	a5,80008910 <fflush+0x3c>
800088ec:	001f8617          	auipc	a2,0x1f8
800088f0:	84460613          	addi	a2,a2,-1980 # 80200130 <__sglue>
800088f4:	00000597          	auipc	a1,0x0
800088f8:	f5058593          	addi	a1,a1,-176 # 80008844 <_fflush_r>
800088fc:	001f7517          	auipc	a0,0x1f7
80008900:	70450513          	addi	a0,a0,1796 # 80200000 <_impure_data>
80008904:	724000ef          	jal	80009028 <_fwalk_sglue>
80008908:	00050793          	mv	a5,a0
8000890c:	0200006f          	j	8000892c <fflush+0x58>
80008910:	001f8717          	auipc	a4,0x1f8
80008914:	81070713          	addi	a4,a4,-2032 # 80200120 <_impure_ptr>
80008918:	0007270f          	lq	a4,0(a4)
8000891c:	00078593          	mv	a1,a5
80008920:	00070513          	mv	a0,a4
80008924:	f21ff0ef          	jal	80008844 <_ebss+0xffe07b34>
80008928:	00050793          	mv	a5,a0
8000892c:	00078513          	mv	a0,a5
80008930:	0101208f          	lq	ra,16(sp)
80008934:	0001240f          	lq	s0,0(sp)
80008938:	02010113          	addi	sp,sp,32
8000893c:	00008067          	ret

80008940 <__swsetup_r>:
80008940:	fa010113          	addi	sp,sp,-96
80008944:	04114823          	sq	ra,80(sp)
80008948:	04814023          	sq	s0,64(sp)
8000894c:	02914823          	sq	s1,48(sp)
80008950:	06010413          	addi	s0,sp,96
80008954:	faa44023          	sq	a0,-96(s0)
80008958:	00058493          	mv	s1,a1
8000895c:	001f7797          	auipc	a5,0x1f7
80008960:	7c478793          	addi	a5,a5,1988 # 80200120 <_impure_ptr>
80008964:	0007a78f          	lq	a5,0(a5)
80008968:	fcf44023          	sq	a5,-64(s0)
8000896c:	fc04278f          	lq	a5,-64(s0)
80008970:	00078c63          	beqz	a5,80008988 <__swsetup_r+0x48>
80008974:	fc04278f          	lq	a5,-64(s0)
80008978:	0807a78f          	lq	a5,128(a5)
8000897c:	00079663          	bnez	a5,80008988 <__swsetup_r+0x48>
80008980:	fc04250f          	lq	a0,-64(s0)
80008984:	f7cff0ef          	jal	80008100 <_ebss+0xffe073f0>
80008988:	01849783          	lh	a5,24(s1)
8000898c:	faf42e23          	sw	a5,-68(s0)
80008990:	fbc42783          	lw	a5,-68(s0)
80008994:	0087f793          	andi	a5,a5,8
80008998:	0007879b          	sext.w	a5,a5
8000899c:	0c079063          	bnez	a5,80008a5c <__swsetup_r+0x11c>
800089a0:	01849783          	lh	a5,24(s1)
800089a4:	07079793          	slli	a5,a5,0x70
800089a8:	0707d793          	srli	a5,a5,0x70
800089ac:	0007879b          	sext.w	a5,a5
800089b0:	0107f793          	andi	a5,a5,16
800089b4:	0007879b          	sext.w	a5,a5
800089b8:	02079663          	bnez	a5,800089e4 <__swsetup_r+0xa4>
800089bc:	fa04278f          	lq	a5,-96(s0)
800089c0:	00900713          	li	a4,9
800089c4:	00e7a023          	sw	a4,0(a5)
800089c8:	01849783          	lh	a5,24(s1)
800089cc:	0407e793          	ori	a5,a5,64
800089d0:	0107979b          	sllw	a5,a5,0x10
800089d4:	4107d79b          	sraw	a5,a5,0x10
800089d8:	00f49c23          	sh	a5,24(s1)
800089dc:	fff00793          	li	a5,-1
800089e0:	16c0006f          	j	80008b4c <__swsetup_r+0x20c>
800089e4:	01849783          	lh	a5,24(s1)
800089e8:	07079793          	slli	a5,a5,0x70
800089ec:	0707d793          	srli	a5,a5,0x70
800089f0:	0007879b          	sext.w	a5,a5
800089f4:	0047f793          	andi	a5,a5,4
800089f8:	0007879b          	sext.w	a5,a5
800089fc:	04078663          	beqz	a5,80008a48 <__swsetup_r+0x108>
80008a00:	0b04a78f          	lq	a5,176(s1)
80008a04:	02078263          	beqz	a5,80008a28 <__swsetup_r+0xe8>
80008a08:	0b04a70f          	lq	a4,176(s1)
80008a0c:	0e448793          	addi	a5,s1,228
80008a10:	00f70a63          	beq	a4,a5,80008a24 <__swsetup_r+0xe4>
80008a14:	0b04a78f          	lq	a5,176(s1)
80008a18:	00078593          	mv	a1,a5
80008a1c:	fa04250f          	lq	a0,-96(s0)
80008a20:	198000ef          	jal	80008bb8 <_free_r>
80008a24:	0a04c823          	sq	zero,176(s1)
80008a28:	01849783          	lh	a5,24(s1)
80008a2c:	fdb7f793          	andi	a5,a5,-37
80008a30:	0107979b          	sllw	a5,a5,0x10
80008a34:	4107d79b          	sraw	a5,a5,0x10
80008a38:	00f49c23          	sh	a5,24(s1)
80008a3c:	0004a823          	sw	zero,16(s1)
80008a40:	0204a78f          	lq	a5,32(s1)
80008a44:	00f4c023          	sq	a5,0(s1)
80008a48:	01849783          	lh	a5,24(s1)
80008a4c:	0087e793          	ori	a5,a5,8
80008a50:	0107979b          	sllw	a5,a5,0x10
80008a54:	4107d79b          	sraw	a5,a5,0x10
80008a58:	00f49c23          	sh	a5,24(s1)
80008a5c:	0204a78f          	lq	a5,32(s1)
80008a60:	04079463          	bnez	a5,80008aa8 <__swsetup_r+0x168>
80008a64:	01849783          	lh	a5,24(s1)
80008a68:	07079793          	slli	a5,a5,0x70
80008a6c:	0707d793          	srli	a5,a5,0x70
80008a70:	0007879b          	sext.w	a5,a5
80008a74:	2007f793          	andi	a5,a5,512
80008a78:	0007879b          	sext.w	a5,a5
80008a7c:	02078063          	beqz	a5,80008a9c <__swsetup_r+0x15c>
80008a80:	01849783          	lh	a5,24(s1)
80008a84:	07079793          	slli	a5,a5,0x70
80008a88:	0707d793          	srli	a5,a5,0x70
80008a8c:	0007879b          	sext.w	a5,a5
80008a90:	0807f793          	andi	a5,a5,128
80008a94:	0007879b          	sext.w	a5,a5
80008a98:	00078863          	beqz	a5,80008aa8 <__swsetup_r+0x168>
80008a9c:	00048593          	mv	a1,s1
80008aa0:	fa04250f          	lq	a0,-96(s0)
80008aa4:	4b1000ef          	jal	80009754 <__smakebuf_r>
80008aa8:	01849783          	lh	a5,24(s1)
80008aac:	07079793          	slli	a5,a5,0x70
80008ab0:	0707d793          	srli	a5,a5,0x70
80008ab4:	0007879b          	sext.w	a5,a5
80008ab8:	0017f793          	andi	a5,a5,1
80008abc:	0007879b          	sext.w	a5,a5
80008ac0:	00078e63          	beqz	a5,80008adc <__swsetup_r+0x19c>
80008ac4:	0004aa23          	sw	zero,20(s1)
80008ac8:	0304a783          	lw	a5,48(s1)
80008acc:	40f007bb          	negw	a5,a5
80008ad0:	0007879b          	sext.w	a5,a5
80008ad4:	04f4a023          	sw	a5,64(s1)
80008ad8:	0300006f          	j	80008b08 <__swsetup_r+0x1c8>
80008adc:	01849783          	lh	a5,24(s1)
80008ae0:	07079793          	slli	a5,a5,0x70
80008ae4:	0707d793          	srli	a5,a5,0x70
80008ae8:	0007879b          	sext.w	a5,a5
80008aec:	0027f793          	andi	a5,a5,2
80008af0:	0007879b          	sext.w	a5,a5
80008af4:	00079663          	bnez	a5,80008b00 <__swsetup_r+0x1c0>
80008af8:	0304a783          	lw	a5,48(s1)
80008afc:	0080006f          	j	80008b04 <__swsetup_r+0x1c4>
80008b00:	00000793          	li	a5,0
80008b04:	00f4aa23          	sw	a5,20(s1)
80008b08:	0204a78f          	lq	a5,32(s1)
80008b0c:	02079e63          	bnez	a5,80008b48 <__swsetup_r+0x208>
80008b10:	01849783          	lh	a5,24(s1)
80008b14:	07079793          	slli	a5,a5,0x70
80008b18:	0707d793          	srli	a5,a5,0x70
80008b1c:	0007879b          	sext.w	a5,a5
80008b20:	0807f793          	andi	a5,a5,128
80008b24:	0007879b          	sext.w	a5,a5
80008b28:	02078063          	beqz	a5,80008b48 <__swsetup_r+0x208>
80008b2c:	01849783          	lh	a5,24(s1)
80008b30:	0407e793          	ori	a5,a5,64
80008b34:	0107979b          	sllw	a5,a5,0x10
80008b38:	4107d79b          	sraw	a5,a5,0x10
80008b3c:	00f49c23          	sh	a5,24(s1)
80008b40:	fff00793          	li	a5,-1
80008b44:	0080006f          	j	80008b4c <__swsetup_r+0x20c>
80008b48:	00000793          	li	a5,0
80008b4c:	00078513          	mv	a0,a5
80008b50:	0501208f          	lq	ra,80(sp)
80008b54:	0401240f          	lq	s0,64(sp)
80008b58:	0301248f          	lq	s1,48(sp)
80008b5c:	06010113          	addi	sp,sp,96
80008b60:	00008067          	ret

80008b64 <get_chunk_from_ptr>:
80008b64:	fd010113          	addi	sp,sp,-48
80008b68:	02814023          	sq	s0,32(sp)
80008b6c:	03010413          	addi	s0,sp,48
80008b70:	fca44823          	sq	a0,-48(s0)
80008b74:	fd04278f          	lq	a5,-48(s0)
80008b78:	ff078793          	addi	a5,a5,-16
80008b7c:	fef44023          	sq	a5,-32(s0)
80008b80:	fe04278f          	lq	a5,-32(s0)
80008b84:	0007b783          	ld	a5,0(a5)
80008b88:	0007de63          	bgez	a5,80008ba4 <get_chunk_from_ptr+0x40>
80008b8c:	fe04278f          	lq	a5,-32(s0)
80008b90:	0007b783          	ld	a5,0(a5)
80008b94:	00078713          	mv	a4,a5
80008b98:	fe04278f          	lq	a5,-32(s0)
80008b9c:	00e787b3          	add	a5,a5,a4
80008ba0:	fef44023          	sq	a5,-32(s0)
80008ba4:	fe04278f          	lq	a5,-32(s0)
80008ba8:	00078513          	mv	a0,a5
80008bac:	0201240f          	lq	s0,32(sp)
80008bb0:	03010113          	addi	sp,sp,48
80008bb4:	00008067          	ret

80008bb8 <_free_r>:
80008bb8:	f9010113          	addi	sp,sp,-112
80008bbc:	06114023          	sq	ra,96(sp)
80008bc0:	04814823          	sq	s0,80(sp)
80008bc4:	07010413          	addi	s0,sp,112
80008bc8:	faa44023          	sq	a0,-96(s0)
80008bcc:	f8b44823          	sq	a1,-112(s0)
80008bd0:	f904278f          	lq	a5,-112(s0)
80008bd4:	26078e63          	beqz	a5,80008e50 <_free_r+0x298>
80008bd8:	f904250f          	lq	a0,-112(s0)
80008bdc:	f89ff0ef          	jal	80008b64 <_ebss+0xffe07e54>
80008be0:	fca44023          	sq	a0,-64(s0)
80008be4:	fa04250f          	lq	a0,-96(s0)
80008be8:	e41fb0ef          	jal	80004a28 <_ebss+0xffe03d18>
80008bec:	001f7797          	auipc	a5,0x1f7
80008bf0:	7d478793          	addi	a5,a5,2004 # 802003c0 <__malloc_free_list>
80008bf4:	0007a78f          	lq	a5,0(a5)
80008bf8:	02079a63          	bnez	a5,80008c2c <_free_r+0x74>
80008bfc:	001f7797          	auipc	a5,0x1f7
80008c00:	7c478793          	addi	a5,a5,1988 # 802003c0 <__malloc_free_list>
80008c04:	0007a70f          	lq	a4,0(a5)
80008c08:	fc04278f          	lq	a5,-64(s0)
80008c0c:	00e7c823          	sq	a4,16(a5)
80008c10:	001f7797          	auipc	a5,0x1f7
80008c14:	7b078793          	addi	a5,a5,1968 # 802003c0 <__malloc_free_list>
80008c18:	fc04270f          	lq	a4,-64(s0)
80008c1c:	00e7c023          	sq	a4,0(a5)
80008c20:	fa04250f          	lq	a0,-96(s0)
80008c24:	e25fb0ef          	jal	80004a48 <_ebss+0xffe03d38>
80008c28:	22c0006f          	j	80008e54 <_free_r+0x29c>
80008c2c:	001f7797          	auipc	a5,0x1f7
80008c30:	79478793          	addi	a5,a5,1940 # 802003c0 <__malloc_free_list>
80008c34:	0007a78f          	lq	a5,0(a5)
80008c38:	fc04270f          	lq	a4,-64(s0)
80008c3c:	08f77e63          	bgeu	a4,a5,80008cd8 <_free_r+0x120>
80008c40:	fc04278f          	lq	a5,-64(s0)
80008c44:	0007b783          	ld	a5,0(a5)
80008c48:	00078713          	mv	a4,a5
80008c4c:	fc04278f          	lq	a5,-64(s0)
80008c50:	00e78733          	add	a4,a5,a4
80008c54:	001f7797          	auipc	a5,0x1f7
80008c58:	76c78793          	addi	a5,a5,1900 # 802003c0 <__malloc_free_list>
80008c5c:	0007a78f          	lq	a5,0(a5)
80008c60:	04f71463          	bne	a4,a5,80008ca8 <_free_r+0xf0>
80008c64:	fc04278f          	lq	a5,-64(s0)
80008c68:	0007b703          	ld	a4,0(a5)
80008c6c:	001f7797          	auipc	a5,0x1f7
80008c70:	75478793          	addi	a5,a5,1876 # 802003c0 <__malloc_free_list>
80008c74:	0007a78f          	lq	a5,0(a5)
80008c78:	0007b783          	ld	a5,0(a5)
80008c7c:	00f707fb          	addd	a5,a4,a5
80008c80:	0007875b          	addid	a4,a5,0
80008c84:	fc04278f          	lq	a5,-64(s0)
80008c88:	00e7b023          	sd	a4,0(a5)
80008c8c:	001f7797          	auipc	a5,0x1f7
80008c90:	73478793          	addi	a5,a5,1844 # 802003c0 <__malloc_free_list>
80008c94:	0007a78f          	lq	a5,0(a5)
80008c98:	0107a70f          	lq	a4,16(a5)
80008c9c:	fc04278f          	lq	a5,-64(s0)
80008ca0:	00e7c823          	sq	a4,16(a5)
80008ca4:	0180006f          	j	80008cbc <_free_r+0x104>
80008ca8:	001f7797          	auipc	a5,0x1f7
80008cac:	71878793          	addi	a5,a5,1816 # 802003c0 <__malloc_free_list>
80008cb0:	0007a70f          	lq	a4,0(a5)
80008cb4:	fc04278f          	lq	a5,-64(s0)
80008cb8:	00e7c823          	sq	a4,16(a5)
80008cbc:	001f7797          	auipc	a5,0x1f7
80008cc0:	70478793          	addi	a5,a5,1796 # 802003c0 <__malloc_free_list>
80008cc4:	fc04270f          	lq	a4,-64(s0)
80008cc8:	00e7c023          	sq	a4,0(a5)
80008ccc:	fa04250f          	lq	a0,-96(s0)
80008cd0:	d79fb0ef          	jal	80004a48 <_ebss+0xffe03d38>
80008cd4:	1800006f          	j	80008e54 <_free_r+0x29c>
80008cd8:	001f7797          	auipc	a5,0x1f7
80008cdc:	6e878793          	addi	a5,a5,1768 # 802003c0 <__malloc_free_list>
80008ce0:	0007a78f          	lq	a5,0(a5)
80008ce4:	fcf44823          	sq	a5,-48(s0)
80008ce8:	fd04278f          	lq	a5,-48(s0)
80008cec:	faf44823          	sq	a5,-80(s0)
80008cf0:	fd04278f          	lq	a5,-48(s0)
80008cf4:	0107a78f          	lq	a5,16(a5)
80008cf8:	fcf44823          	sq	a5,-48(s0)
80008cfc:	fd04278f          	lq	a5,-48(s0)
80008d00:	00078863          	beqz	a5,80008d10 <_free_r+0x158>
80008d04:	fd04270f          	lq	a4,-48(s0)
80008d08:	fc04278f          	lq	a5,-64(s0)
80008d0c:	fce7fee3          	bgeu	a5,a4,80008ce8 <_ebss+0xffe07fd8>
80008d10:	fb04278f          	lq	a5,-80(s0)
80008d14:	0007b783          	ld	a5,0(a5)
80008d18:	00078713          	mv	a4,a5
80008d1c:	fb04278f          	lq	a5,-80(s0)
80008d20:	00e787b3          	add	a5,a5,a4
80008d24:	fc04270f          	lq	a4,-64(s0)
80008d28:	06f71a63          	bne	a4,a5,80008d9c <_free_r+0x1e4>
80008d2c:	fb04278f          	lq	a5,-80(s0)
80008d30:	0007b703          	ld	a4,0(a5)
80008d34:	fc04278f          	lq	a5,-64(s0)
80008d38:	0007b783          	ld	a5,0(a5)
80008d3c:	00f707fb          	addd	a5,a4,a5
80008d40:	0007875b          	addid	a4,a5,0
80008d44:	fb04278f          	lq	a5,-80(s0)
80008d48:	00e7b023          	sd	a4,0(a5)
80008d4c:	fb04278f          	lq	a5,-80(s0)
80008d50:	0007b783          	ld	a5,0(a5)
80008d54:	00078713          	mv	a4,a5
80008d58:	fb04278f          	lq	a5,-80(s0)
80008d5c:	00e787b3          	add	a5,a5,a4
80008d60:	fd04270f          	lq	a4,-48(s0)
80008d64:	0ef71063          	bne	a4,a5,80008e44 <_free_r+0x28c>
80008d68:	fb04278f          	lq	a5,-80(s0)
80008d6c:	0007b703          	ld	a4,0(a5)
80008d70:	fd04278f          	lq	a5,-48(s0)
80008d74:	0007b783          	ld	a5,0(a5)
80008d78:	00f707fb          	addd	a5,a4,a5
80008d7c:	0007875b          	addid	a4,a5,0
80008d80:	fb04278f          	lq	a5,-80(s0)
80008d84:	00e7b023          	sd	a4,0(a5)
80008d88:	fd04278f          	lq	a5,-48(s0)
80008d8c:	0107a70f          	lq	a4,16(a5)
80008d90:	fb04278f          	lq	a5,-80(s0)
80008d94:	00e7c823          	sq	a4,16(a5)
80008d98:	0ac0006f          	j	80008e44 <_free_r+0x28c>
80008d9c:	fb04278f          	lq	a5,-80(s0)
80008da0:	0007b783          	ld	a5,0(a5)
80008da4:	00078713          	mv	a4,a5
80008da8:	fb04278f          	lq	a5,-80(s0)
80008dac:	00e787b3          	add	a5,a5,a4
80008db0:	fc04270f          	lq	a4,-64(s0)
80008db4:	00f77e63          	bgeu	a4,a5,80008dd0 <_free_r+0x218>
80008db8:	fa04278f          	lq	a5,-96(s0)
80008dbc:	00c00713          	li	a4,12
80008dc0:	00e7a023          	sw	a4,0(a5)
80008dc4:	fa04250f          	lq	a0,-96(s0)
80008dc8:	c81fb0ef          	jal	80004a48 <_ebss+0xffe03d38>
80008dcc:	0880006f          	j	80008e54 <_free_r+0x29c>
80008dd0:	fc04278f          	lq	a5,-64(s0)
80008dd4:	0007b783          	ld	a5,0(a5)
80008dd8:	00078713          	mv	a4,a5
80008ddc:	fc04278f          	lq	a5,-64(s0)
80008de0:	00e787b3          	add	a5,a5,a4
80008de4:	fd04270f          	lq	a4,-48(s0)
80008de8:	04f71263          	bne	a4,a5,80008e2c <_free_r+0x274>
80008dec:	fc04278f          	lq	a5,-64(s0)
80008df0:	0007b703          	ld	a4,0(a5)
80008df4:	fd04278f          	lq	a5,-48(s0)
80008df8:	0007b783          	ld	a5,0(a5)
80008dfc:	00f707fb          	addd	a5,a4,a5
80008e00:	0007875b          	addid	a4,a5,0
80008e04:	fc04278f          	lq	a5,-64(s0)
80008e08:	00e7b023          	sd	a4,0(a5)
80008e0c:	fd04278f          	lq	a5,-48(s0)
80008e10:	0107a70f          	lq	a4,16(a5)
80008e14:	fc04278f          	lq	a5,-64(s0)
80008e18:	00e7c823          	sq	a4,16(a5)
80008e1c:	fb04278f          	lq	a5,-80(s0)
80008e20:	fc04270f          	lq	a4,-64(s0)
80008e24:	00e7c823          	sq	a4,16(a5)
80008e28:	01c0006f          	j	80008e44 <_free_r+0x28c>
80008e2c:	fc04278f          	lq	a5,-64(s0)
80008e30:	fd04270f          	lq	a4,-48(s0)
80008e34:	00e7c823          	sq	a4,16(a5)
80008e38:	fb04278f          	lq	a5,-80(s0)
80008e3c:	fc04270f          	lq	a4,-64(s0)
80008e40:	00e7c823          	sq	a4,16(a5)
80008e44:	fa04250f          	lq	a0,-96(s0)
80008e48:	c01fb0ef          	jal	80004a48 <_ebss+0xffe03d38>
80008e4c:	0080006f          	j	80008e54 <_free_r+0x29c>
80008e50:	00000013          	nop
80008e54:	0601208f          	lq	ra,96(sp)
80008e58:	0501240f          	lq	s0,80(sp)
80008e5c:	07010113          	addi	sp,sp,112
80008e60:	00008067          	ret

80008e64 <__swbuf_r>:
80008e64:	f9010113          	addi	sp,sp,-112
80008e68:	06114023          	sq	ra,96(sp)
80008e6c:	04814823          	sq	s0,80(sp)
80008e70:	04914023          	sq	s1,64(sp)
80008e74:	03214823          	sq	s2,48(sp)
80008e78:	03314023          	sq	s3,32(sp)
80008e7c:	07010413          	addi	s0,sp,112
80008e80:	f8a44823          	sq	a0,-112(s0)
80008e84:	00058993          	mv	s3,a1
80008e88:	00060493          	mv	s1,a2
80008e8c:	f904278f          	lq	a5,-112(s0)
80008e90:	faf44023          	sq	a5,-96(s0)
80008e94:	fa04278f          	lq	a5,-96(s0)
80008e98:	00078c63          	beqz	a5,80008eb0 <__swbuf_r+0x4c>
80008e9c:	fa04278f          	lq	a5,-96(s0)
80008ea0:	0807a78f          	lq	a5,128(a5)
80008ea4:	00079663          	bnez	a5,80008eb0 <__swbuf_r+0x4c>
80008ea8:	fa04250f          	lq	a0,-96(s0)
80008eac:	a54ff0ef          	jal	80008100 <_ebss+0xffe073f0>
80008eb0:	0404a783          	lw	a5,64(s1)
80008eb4:	00f4aa23          	sw	a5,20(s1)
80008eb8:	01849783          	lh	a5,24(s1)
80008ebc:	07079793          	slli	a5,a5,0x70
80008ec0:	0707d793          	srli	a5,a5,0x70
80008ec4:	0007879b          	sext.w	a5,a5
80008ec8:	0087f793          	andi	a5,a5,8
80008ecc:	0007879b          	sext.w	a5,a5
80008ed0:	00078663          	beqz	a5,80008edc <__swbuf_r+0x78>
80008ed4:	0204a78f          	lq	a5,32(s1)
80008ed8:	02079063          	bnez	a5,80008ef8 <__swbuf_r+0x94>
80008edc:	00048593          	mv	a1,s1
80008ee0:	f904250f          	lq	a0,-112(s0)
80008ee4:	a5dff0ef          	jal	80008940 <_ebss+0xffe07c30>
80008ee8:	00050793          	mv	a5,a0
80008eec:	00078663          	beqz	a5,80008ef8 <__swbuf_r+0x94>
80008ef0:	fff00793          	li	a5,-1
80008ef4:	0c80006f          	j	80008fbc <__swbuf_r+0x158>
80008ef8:	0ff9f793          	zext.b	a5,s3
80008efc:	0007899b          	sext.w	s3,a5
80008f00:	0004a70f          	lq	a4,0(s1)
80008f04:	0204a78f          	lq	a5,32(s1)
80008f08:	40f707b3          	sub	a5,a4,a5
80008f0c:	0007891b          	sext.w	s2,a5
80008f10:	0304a783          	lw	a5,48(s1)
80008f14:	00090713          	mv	a4,s2
80008f18:	02f74263          	blt	a4,a5,80008f3c <__swbuf_r+0xd8>
80008f1c:	00048593          	mv	a1,s1
80008f20:	f904250f          	lq	a0,-112(s0)
80008f24:	921ff0ef          	jal	80008844 <_ebss+0xffe07b34>
80008f28:	00050793          	mv	a5,a0
80008f2c:	00078663          	beqz	a5,80008f38 <__swbuf_r+0xd4>
80008f30:	fff00793          	li	a5,-1
80008f34:	0880006f          	j	80008fbc <__swbuf_r+0x158>
80008f38:	00000913          	li	s2,0
80008f3c:	0144a783          	lw	a5,20(s1)
80008f40:	fff7879b          	addw	a5,a5,-1
80008f44:	0007879b          	sext.w	a5,a5
80008f48:	00f4aa23          	sw	a5,20(s1)
80008f4c:	0004a78f          	lq	a5,0(s1)
80008f50:	00178713          	addi	a4,a5,1
80008f54:	00e4c023          	sq	a4,0(s1)
80008f58:	0ff9f713          	zext.b	a4,s3
80008f5c:	00e78023          	sb	a4,0(a5)
80008f60:	0019079b          	addw	a5,s2,1
80008f64:	0007891b          	sext.w	s2,a5
80008f68:	0304a783          	lw	a5,48(s1)
80008f6c:	00090713          	mv	a4,s2
80008f70:	02f70663          	beq	a4,a5,80008f9c <__swbuf_r+0x138>
80008f74:	01849783          	lh	a5,24(s1)
80008f78:	07079793          	slli	a5,a5,0x70
80008f7c:	0707d793          	srli	a5,a5,0x70
80008f80:	0007879b          	sext.w	a5,a5
80008f84:	0017f793          	andi	a5,a5,1
80008f88:	0007879b          	sext.w	a5,a5
80008f8c:	02078663          	beqz	a5,80008fb8 <__swbuf_r+0x154>
80008f90:	00098713          	mv	a4,s3
80008f94:	00a00793          	li	a5,10
80008f98:	02f71063          	bne	a4,a5,80008fb8 <__swbuf_r+0x154>
80008f9c:	00048593          	mv	a1,s1
80008fa0:	f904250f          	lq	a0,-112(s0)
80008fa4:	8a1ff0ef          	jal	80008844 <_ebss+0xffe07b34>
80008fa8:	00050793          	mv	a5,a0
80008fac:	00078663          	beqz	a5,80008fb8 <__swbuf_r+0x154>
80008fb0:	fff00793          	li	a5,-1
80008fb4:	0080006f          	j	80008fbc <__swbuf_r+0x158>
80008fb8:	00098793          	mv	a5,s3
80008fbc:	00078513          	mv	a0,a5
80008fc0:	0601208f          	lq	ra,96(sp)
80008fc4:	0501240f          	lq	s0,80(sp)
80008fc8:	0401248f          	lq	s1,64(sp)
80008fcc:	0301290f          	lq	s2,48(sp)
80008fd0:	0201298f          	lq	s3,32(sp)
80008fd4:	07010113          	addi	sp,sp,112
80008fd8:	00008067          	ret

80008fdc <__swbuf>:
80008fdc:	fe010113          	addi	sp,sp,-32
80008fe0:	00114823          	sq	ra,16(sp)
80008fe4:	00814023          	sq	s0,0(sp)
80008fe8:	02010413          	addi	s0,sp,32
80008fec:	00050713          	mv	a4,a0
80008ff0:	00058693          	mv	a3,a1
80008ff4:	001f7797          	auipc	a5,0x1f7
80008ff8:	12c78793          	addi	a5,a5,300 # 80200120 <_impure_ptr>
80008ffc:	0007a78f          	lq	a5,0(a5)
80009000:	00068613          	mv	a2,a3
80009004:	00070593          	mv	a1,a4
80009008:	00078513          	mv	a0,a5
8000900c:	e59ff0ef          	jal	80008e64 <_ebss+0xffe08154>
80009010:	00050793          	mv	a5,a0
80009014:	00078513          	mv	a0,a5
80009018:	0101208f          	lq	ra,16(sp)
8000901c:	0001240f          	lq	s0,0(sp)
80009020:	02010113          	addi	sp,sp,32
80009024:	00008067          	ret

80009028 <_fwalk_sglue>:
80009028:	f9010113          	addi	sp,sp,-112
8000902c:	06114023          	sq	ra,96(sp)
80009030:	04814823          	sq	s0,80(sp)
80009034:	07010413          	addi	s0,sp,112
80009038:	faa44823          	sq	a0,-80(s0)
8000903c:	fab44023          	sq	a1,-96(s0)
80009040:	f8c44823          	sq	a2,-112(s0)
80009044:	fc042423          	sw	zero,-56(s0)
80009048:	f904278f          	lq	a5,-112(s0)
8000904c:	0207a78f          	lq	a5,32(a5)
80009050:	fcf44823          	sq	a5,-48(s0)
80009054:	f904278f          	lq	a5,-112(s0)
80009058:	0107a783          	lw	a5,16(a5)
8000905c:	fcf42623          	sw	a5,-52(s0)
80009060:	0680006f          	j	800090c8 <_fwalk_sglue+0xa0>
80009064:	fd04278f          	lq	a5,-48(s0)
80009068:	01879783          	lh	a5,24(a5)
8000906c:	04078863          	beqz	a5,800090bc <_fwalk_sglue+0x94>
80009070:	fd04278f          	lq	a5,-48(s0)
80009074:	01879783          	lh	a5,24(a5)
80009078:	00078713          	mv	a4,a5
8000907c:	00100793          	li	a5,1
80009080:	02f70e63          	beq	a4,a5,800090bc <_fwalk_sglue+0x94>
80009084:	fd04278f          	lq	a5,-48(s0)
80009088:	01a79783          	lh	a5,26(a5)
8000908c:	00078713          	mv	a4,a5
80009090:	fff00793          	li	a5,-1
80009094:	02f70463          	beq	a4,a5,800090bc <_fwalk_sglue+0x94>
80009098:	fa04278f          	lq	a5,-96(s0)
8000909c:	fd04258f          	lq	a1,-48(s0)
800090a0:	fb04250f          	lq	a0,-80(s0)
800090a4:	000780e7          	jalr	a5
800090a8:	00050793          	mv	a5,a0
800090ac:	00078713          	mv	a4,a5
800090b0:	fc842783          	lw	a5,-56(s0)
800090b4:	00f767b3          	or	a5,a4,a5
800090b8:	fcf42423          	sw	a5,-56(s0)
800090bc:	fd04278f          	lq	a5,-48(s0)
800090c0:	13078793          	addi	a5,a5,304
800090c4:	fcf44823          	sq	a5,-48(s0)
800090c8:	fcc42783          	lw	a5,-52(s0)
800090cc:	fff7879b          	addw	a5,a5,-1
800090d0:	fcf42623          	sw	a5,-52(s0)
800090d4:	fcc42783          	lw	a5,-52(s0)
800090d8:	0007879b          	sext.w	a5,a5
800090dc:	f807d4e3          	bgez	a5,80009064 <_ebss+0xffe08354>
800090e0:	f904278f          	lq	a5,-112(s0)
800090e4:	0007a78f          	lq	a5,0(a5)
800090e8:	f8f44823          	sq	a5,-112(s0)
800090ec:	f904278f          	lq	a5,-112(s0)
800090f0:	f4079ce3          	bnez	a5,80009048 <_ebss+0xffe08338>
800090f4:	fc842783          	lw	a5,-56(s0)
800090f8:	00078513          	mv	a0,a5
800090fc:	0601208f          	lq	ra,96(sp)
80009100:	0501240f          	lq	s0,80(sp)
80009104:	07010113          	addi	sp,sp,112
80009108:	00008067          	ret

8000910c <__get_global_locale>:
8000910c:	ff010113          	addi	sp,sp,-16
80009110:	00814023          	sq	s0,0(sp)
80009114:	01010413          	addi	s0,sp,16
80009118:	001f7797          	auipc	a5,0x1f7
8000911c:	04878793          	addi	a5,a5,72 # 80200160 <__global_locale>
80009120:	00078513          	mv	a0,a5
80009124:	0001240f          	lq	s0,0(sp)
80009128:	01010113          	addi	sp,sp,16
8000912c:	00008067          	ret

80009130 <__get_current_locale>:
80009130:	fe010113          	addi	sp,sp,-32
80009134:	00114823          	sq	ra,16(sp)
80009138:	00814023          	sq	s0,0(sp)
8000913c:	02010413          	addi	s0,sp,32
80009140:	fcdff0ef          	jal	8000910c <_ebss+0xffe083fc>
80009144:	00050793          	mv	a5,a0
80009148:	00078513          	mv	a0,a5
8000914c:	0101208f          	lq	ra,16(sp)
80009150:	0001240f          	lq	s0,0(sp)
80009154:	02010113          	addi	sp,sp,32
80009158:	00008067          	ret

8000915c <_wctomb_r>:
8000915c:	fa010113          	addi	sp,sp,-96
80009160:	04114823          	sq	ra,80(sp)
80009164:	04814023          	sq	s0,64(sp)
80009168:	06010413          	addi	s0,sp,96
8000916c:	fca44823          	sq	a0,-48(s0)
80009170:	fcb44023          	sq	a1,-64(s0)
80009174:	00060793          	mv	a5,a2
80009178:	fad44023          	sq	a3,-96(s0)
8000917c:	faf42e23          	sw	a5,-68(s0)
80009180:	fb1ff0ef          	jal	80009130 <_ebss+0xffe08420>
80009184:	00050793          	mv	a5,a0
80009188:	0e07a78f          	lq	a5,224(a5)
8000918c:	fbc42703          	lw	a4,-68(s0)
80009190:	fa04268f          	lq	a3,-96(s0)
80009194:	00070613          	mv	a2,a4
80009198:	fc04258f          	lq	a1,-64(s0)
8000919c:	fd04250f          	lq	a0,-48(s0)
800091a0:	000780e7          	jalr	a5
800091a4:	00050793          	mv	a5,a0
800091a8:	00078513          	mv	a0,a5
800091ac:	0501208f          	lq	ra,80(sp)
800091b0:	0401240f          	lq	s0,64(sp)
800091b4:	06010113          	addi	sp,sp,96
800091b8:	00008067          	ret

800091bc <__ascii_wctomb>:
800091bc:	fa010113          	addi	sp,sp,-96
800091c0:	04814823          	sq	s0,80(sp)
800091c4:	06010413          	addi	s0,sp,96
800091c8:	fca44823          	sq	a0,-48(s0)
800091cc:	fcb44023          	sq	a1,-64(s0)
800091d0:	00060793          	mv	a5,a2
800091d4:	fad44023          	sq	a3,-96(s0)
800091d8:	faf42e23          	sw	a5,-68(s0)
800091dc:	fbc42783          	lw	a5,-68(s0)
800091e0:	fef42623          	sw	a5,-20(s0)
800091e4:	fc04278f          	lq	a5,-64(s0)
800091e8:	00079663          	bnez	a5,800091f4 <__ascii_wctomb+0x38>
800091ec:	00000793          	li	a5,0
800091f0:	03c0006f          	j	8000922c <__ascii_wctomb+0x70>
800091f4:	fec42783          	lw	a5,-20(s0)
800091f8:	0007871b          	sext.w	a4,a5
800091fc:	0ff00793          	li	a5,255
80009200:	00e7fc63          	bgeu	a5,a4,80009218 <__ascii_wctomb+0x5c>
80009204:	fd04278f          	lq	a5,-48(s0)
80009208:	08a00713          	li	a4,138
8000920c:	00e7a023          	sw	a4,0(a5)
80009210:	fff00793          	li	a5,-1
80009214:	0180006f          	j	8000922c <__ascii_wctomb+0x70>
80009218:	fec42783          	lw	a5,-20(s0)
8000921c:	0ff7f713          	zext.b	a4,a5
80009220:	fc04278f          	lq	a5,-64(s0)
80009224:	00e78023          	sb	a4,0(a5)
80009228:	00100793          	li	a5,1
8000922c:	00078513          	mv	a0,a5
80009230:	0501240f          	lq	s0,80(sp)
80009234:	06010113          	addi	sp,sp,96
80009238:	00008067          	ret

8000923c <_fiprintf_r>:
8000923c:	f3010113          	addi	sp,sp,-208
80009240:	06114823          	sq	ra,112(sp)
80009244:	06814023          	sq	s0,96(sp)
80009248:	08010413          	addi	s0,sp,128
8000924c:	faa44823          	sq	a0,-80(s0)
80009250:	fab44023          	sq	a1,-96(s0)
80009254:	f8c44823          	sq	a2,-112(s0)
80009258:	00d44023          	sq	a3,0(s0)
8000925c:	00e44823          	sq	a4,16(s0)
80009260:	02f44023          	sq	a5,32(s0)
80009264:	03044823          	sq	a6,48(s0)
80009268:	05144023          	sq	a7,64(s0)
8000926c:	05040793          	addi	a5,s0,80
80009270:	f8f44023          	sq	a5,-128(s0)
80009274:	f804278f          	lq	a5,-128(s0)
80009278:	fb078793          	addi	a5,a5,-80
8000927c:	fcf44023          	sq	a5,-64(s0)
80009280:	fc04278f          	lq	a5,-64(s0)
80009284:	00078693          	mv	a3,a5
80009288:	f904260f          	lq	a2,-112(s0)
8000928c:	fa04258f          	lq	a1,-96(s0)
80009290:	fb04250f          	lq	a0,-80(s0)
80009294:	b7dfb0ef          	jal	80004e10 <_ebss+0xffe04100>
80009298:	00050793          	mv	a5,a0
8000929c:	fcf42e23          	sw	a5,-36(s0)
800092a0:	fdc42783          	lw	a5,-36(s0)
800092a4:	00078513          	mv	a0,a5
800092a8:	0701208f          	lq	ra,112(sp)
800092ac:	0601240f          	lq	s0,96(sp)
800092b0:	0d010113          	addi	sp,sp,208
800092b4:	00008067          	ret

800092b8 <fiprintf>:
800092b8:	f3010113          	addi	sp,sp,-208
800092bc:	06114023          	sq	ra,96(sp)
800092c0:	04814823          	sq	s0,80(sp)
800092c4:	07010413          	addi	s0,sp,112
800092c8:	faa44823          	sq	a0,-80(s0)
800092cc:	fab44023          	sq	a1,-96(s0)
800092d0:	00c44023          	sq	a2,0(s0)
800092d4:	00d44823          	sq	a3,16(s0)
800092d8:	02e44023          	sq	a4,32(s0)
800092dc:	02f44823          	sq	a5,48(s0)
800092e0:	05044023          	sq	a6,64(s0)
800092e4:	05144823          	sq	a7,80(s0)
800092e8:	06040793          	addi	a5,s0,96
800092ec:	f8f44823          	sq	a5,-112(s0)
800092f0:	f904278f          	lq	a5,-112(s0)
800092f4:	fa078793          	addi	a5,a5,-96
800092f8:	fcf44023          	sq	a5,-64(s0)
800092fc:	001f7797          	auipc	a5,0x1f7
80009300:	e2478793          	addi	a5,a5,-476 # 80200120 <_impure_ptr>
80009304:	0007a78f          	lq	a5,0(a5)
80009308:	fc04270f          	lq	a4,-64(s0)
8000930c:	00070693          	mv	a3,a4
80009310:	fa04260f          	lq	a2,-96(s0)
80009314:	fb04258f          	lq	a1,-80(s0)
80009318:	00078513          	mv	a0,a5
8000931c:	af5fb0ef          	jal	80004e10 <_ebss+0xffe04100>
80009320:	00050793          	mv	a5,a0
80009324:	fcf42e23          	sw	a5,-36(s0)
80009328:	fdc42783          	lw	a5,-36(s0)
8000932c:	00078513          	mv	a0,a5
80009330:	0601208f          	lq	ra,96(sp)
80009334:	0501240f          	lq	s0,80(sp)
80009338:	0d010113          	addi	sp,sp,208
8000933c:	00008067          	ret

80009340 <__libc_detect_null>:
80009340:	fd010113          	addi	sp,sp,-48
80009344:	02814023          	sq	s0,32(sp)
80009348:	03010413          	addi	s0,sp,48
8000934c:	fca44823          	sq	a0,-48(s0)
80009350:	7f7f87b7          	lui	a5,0x7f7f8
80009354:	f7f78793          	addi	a5,a5,-129 # 7f7f7f7f <UART_BASE+0x6f7f7f7f>
80009358:	fef44023          	sq	a5,-32(s0)
8000935c:	fd04270f          	lq	a4,-48(s0)
80009360:	fe04278f          	lq	a5,-32(s0)
80009364:	00f77733          	and	a4,a4,a5
80009368:	fe04278f          	lq	a5,-32(s0)
8000936c:	00f70733          	add	a4,a4,a5
80009370:	fd04278f          	lq	a5,-48(s0)
80009374:	00f76733          	or	a4,a4,a5
80009378:	fe04278f          	lq	a5,-32(s0)
8000937c:	00f767b3          	or	a5,a4,a5
80009380:	fff7c793          	not	a5,a5
80009384:	00078513          	mv	a0,a5
80009388:	0201240f          	lq	s0,32(sp)
8000938c:	03010113          	addi	sp,sp,48
80009390:	00008067          	ret

80009394 <__libc_splat_byte>:
80009394:	fd010113          	addi	sp,sp,-48
80009398:	02814023          	sq	s0,32(sp)
8000939c:	03010413          	addi	s0,sp,48
800093a0:	00050793          	mv	a5,a0
800093a4:	fcf40fa3          	sb	a5,-33(s0)
800093a8:	fdf44783          	lbu	a5,-33(s0)
800093ac:	0007879b          	sext.w	a5,a5
800093b0:	00078713          	mv	a4,a5
800093b4:	00070793          	mv	a5,a4
800093b8:	0087979b          	sllw	a5,a5,0x8
800093bc:	00e787bb          	addw	a5,a5,a4
800093c0:	0007879b          	sext.w	a5,a5
800093c4:	0007879b          	sext.w	a5,a5
800093c8:	fef44023          	sq	a5,-32(s0)
800093cc:	fe04278f          	lq	a5,-32(s0)
800093d0:	01079793          	slli	a5,a5,0x10
800093d4:	fe04270f          	lq	a4,-32(s0)
800093d8:	00f767b3          	or	a5,a4,a5
800093dc:	fef44023          	sq	a5,-32(s0)
800093e0:	fe04278f          	lq	a5,-32(s0)
800093e4:	00078513          	mv	a0,a5
800093e8:	0201240f          	lq	s0,32(sp)
800093ec:	03010113          	addi	sp,sp,48
800093f0:	00008067          	ret

800093f4 <memchr>:
800093f4:	f4010113          	addi	sp,sp,-192
800093f8:	0a114823          	sq	ra,176(sp)
800093fc:	0a814023          	sq	s0,160(sp)
80009400:	0c010413          	addi	s0,sp,192
80009404:	f6a44023          	sq	a0,-160(s0)
80009408:	00058793          	mv	a5,a1
8000940c:	f4c44023          	sq	a2,-192(s0)
80009410:	f4f42e23          	sw	a5,-164(s0)
80009414:	f604278f          	lq	a5,-160(s0)
80009418:	fcf44823          	sq	a5,-48(s0)
8000941c:	f5c42783          	lw	a5,-164(s0)
80009420:	faf40fa3          	sb	a5,-65(s0)
80009424:	fd04278f          	lq	a5,-48(s0)
80009428:	00f7f793          	andi	a5,a5,15
8000942c:	fcf44023          	sq	a5,-64(s0)
80009430:	fc04278f          	lq	a5,-64(s0)
80009434:	0e078263          	beqz	a5,80009518 <memchr+0x124>
80009438:	01000713          	li	a4,16
8000943c:	fc04278f          	lq	a5,-64(s0)
80009440:	40f707b3          	sub	a5,a4,a5
80009444:	fcf44023          	sq	a5,-64(s0)
80009448:	f404270f          	lq	a4,-192(s0)
8000944c:	fc04278f          	lq	a5,-64(s0)
80009450:	00f77663          	bgeu	a4,a5,8000945c <memchr+0x68>
80009454:	f404278f          	lq	a5,-192(s0)
80009458:	fcf44023          	sq	a5,-64(s0)
8000945c:	fc04270f          	lq	a4,-64(s0)
80009460:	00300793          	li	a5,3
80009464:	02f70663          	beq	a4,a5,80009490 <memchr+0x9c>
80009468:	fc04270f          	lq	a4,-64(s0)
8000946c:	00300793          	li	a5,3
80009470:	08e7ec63          	bltu	a5,a4,80009508 <memchr+0x114>
80009474:	fc04270f          	lq	a4,-64(s0)
80009478:	00100793          	li	a5,1
8000947c:	06f70263          	beq	a4,a5,800094e0 <memchr+0xec>
80009480:	fc04270f          	lq	a4,-64(s0)
80009484:	00200793          	li	a5,2
80009488:	02f70863          	beq	a4,a5,800094b8 <memchr+0xc4>
8000948c:	07c0006f          	j	80009508 <memchr+0x114>
80009490:	fd04278f          	lq	a5,-48(s0)
80009494:	00178713          	addi	a4,a5,1
80009498:	fce44823          	sq	a4,-48(s0)
8000949c:	0007c703          	lbu	a4,0(a5)
800094a0:	fbf44783          	lbu	a5,-65(s0)
800094a4:	0ff7f793          	zext.b	a5,a5
800094a8:	00e79863          	bne	a5,a4,800094b8 <memchr+0xc4>
800094ac:	fd04278f          	lq	a5,-48(s0)
800094b0:	fff78793          	addi	a5,a5,-1
800094b4:	1a40006f          	j	80009658 <memchr+0x264>
800094b8:	fd04278f          	lq	a5,-48(s0)
800094bc:	00178713          	addi	a4,a5,1
800094c0:	fce44823          	sq	a4,-48(s0)
800094c4:	0007c703          	lbu	a4,0(a5)
800094c8:	fbf44783          	lbu	a5,-65(s0)
800094cc:	0ff7f793          	zext.b	a5,a5
800094d0:	00e79863          	bne	a5,a4,800094e0 <memchr+0xec>
800094d4:	fd04278f          	lq	a5,-48(s0)
800094d8:	fff78793          	addi	a5,a5,-1
800094dc:	17c0006f          	j	80009658 <memchr+0x264>
800094e0:	fd04278f          	lq	a5,-48(s0)
800094e4:	00178713          	addi	a4,a5,1
800094e8:	fce44823          	sq	a4,-48(s0)
800094ec:	0007c703          	lbu	a4,0(a5)
800094f0:	fbf44783          	lbu	a5,-65(s0)
800094f4:	0ff7f793          	zext.b	a5,a5
800094f8:	00e79863          	bne	a5,a4,80009508 <memchr+0x114>
800094fc:	fd04278f          	lq	a5,-48(s0)
80009500:	fff78793          	addi	a5,a5,-1
80009504:	1540006f          	j	80009658 <memchr+0x264>
80009508:	f404270f          	lq	a4,-192(s0)
8000950c:	fc04278f          	lq	a5,-64(s0)
80009510:	40f707b3          	sub	a5,a4,a5
80009514:	f4f44023          	sq	a5,-192(s0)
80009518:	f404278f          	lq	a5,-192(s0)
8000951c:	ff07f793          	andi	a5,a5,-16
80009520:	fd04270f          	lq	a4,-48(s0)
80009524:	00f707b3          	add	a5,a4,a5
80009528:	faf44023          	sq	a5,-96(s0)
8000952c:	fd04270f          	lq	a4,-48(s0)
80009530:	fa04278f          	lq	a5,-96(s0)
80009534:	10f77863          	bgeu	a4,a5,80009644 <memchr+0x250>
80009538:	fbf44783          	lbu	a5,-65(s0)
8000953c:	00078513          	mv	a0,a5
80009540:	e55ff0ef          	jal	80009394 <_ebss+0xffe08684>
80009544:	f8a44823          	sq	a0,-112(s0)
80009548:	fd04278f          	lq	a5,-48(s0)
8000954c:	0007a78f          	lq	a5,0(a5)
80009550:	f8f44023          	sq	a5,-128(s0)
80009554:	f804270f          	lq	a4,-128(s0)
80009558:	f904278f          	lq	a5,-112(s0)
8000955c:	00f747b3          	xor	a5,a4,a5
80009560:	f6f44823          	sq	a5,-144(s0)
80009564:	f704250f          	lq	a0,-144(s0)
80009568:	dd9ff0ef          	jal	80009340 <_ebss+0xffe08630>
8000956c:	00050793          	mv	a5,a0
80009570:	08078263          	beqz	a5,800095f4 <memchr+0x200>
80009574:	fd04278f          	lq	a5,-48(s0)
80009578:	00178713          	addi	a4,a5,1
8000957c:	fce44823          	sq	a4,-48(s0)
80009580:	0007c703          	lbu	a4,0(a5)
80009584:	fbf44783          	lbu	a5,-65(s0)
80009588:	0ff7f793          	zext.b	a5,a5
8000958c:	00e79863          	bne	a5,a4,8000959c <memchr+0x1a8>
80009590:	fd04278f          	lq	a5,-48(s0)
80009594:	fff78793          	addi	a5,a5,-1
80009598:	0c00006f          	j	80009658 <memchr+0x264>
8000959c:	fd04278f          	lq	a5,-48(s0)
800095a0:	00178713          	addi	a4,a5,1
800095a4:	fce44823          	sq	a4,-48(s0)
800095a8:	0007c703          	lbu	a4,0(a5)
800095ac:	fbf44783          	lbu	a5,-65(s0)
800095b0:	0ff7f793          	zext.b	a5,a5
800095b4:	00e79863          	bne	a5,a4,800095c4 <memchr+0x1d0>
800095b8:	fd04278f          	lq	a5,-48(s0)
800095bc:	fff78793          	addi	a5,a5,-1
800095c0:	0980006f          	j	80009658 <memchr+0x264>
800095c4:	fd04278f          	lq	a5,-48(s0)
800095c8:	00178713          	addi	a4,a5,1
800095cc:	fce44823          	sq	a4,-48(s0)
800095d0:	0007c703          	lbu	a4,0(a5)
800095d4:	fbf44783          	lbu	a5,-65(s0)
800095d8:	0ff7f793          	zext.b	a5,a5
800095dc:	00e79863          	bne	a5,a4,800095ec <memchr+0x1f8>
800095e0:	fd04278f          	lq	a5,-48(s0)
800095e4:	fff78793          	addi	a5,a5,-1
800095e8:	0700006f          	j	80009658 <memchr+0x264>
800095ec:	fd04278f          	lq	a5,-48(s0)
800095f0:	0680006f          	j	80009658 <memchr+0x264>
800095f4:	fd04278f          	lq	a5,-48(s0)
800095f8:	01078793          	addi	a5,a5,16
800095fc:	fcf44823          	sq	a5,-48(s0)
80009600:	fd04270f          	lq	a4,-48(s0)
80009604:	fa04278f          	lq	a5,-96(s0)
80009608:	f4f760e3          	bltu	a4,a5,80009548 <_ebss+0xffe08838>
8000960c:	f404278f          	lq	a5,-192(s0)
80009610:	00f7f793          	andi	a5,a5,15
80009614:	f4f44023          	sq	a5,-192(s0)
80009618:	02c0006f          	j	80009644 <memchr+0x250>
8000961c:	fd04278f          	lq	a5,-48(s0)
80009620:	0007c703          	lbu	a4,0(a5)
80009624:	fbf44783          	lbu	a5,-65(s0)
80009628:	0ff7f793          	zext.b	a5,a5
8000962c:	00e79663          	bne	a5,a4,80009638 <memchr+0x244>
80009630:	fd04278f          	lq	a5,-48(s0)
80009634:	0240006f          	j	80009658 <memchr+0x264>
80009638:	fd04278f          	lq	a5,-48(s0)
8000963c:	00178793          	addi	a5,a5,1
80009640:	fcf44823          	sq	a5,-48(s0)
80009644:	f404278f          	lq	a5,-192(s0)
80009648:	fff78713          	addi	a4,a5,-1
8000964c:	f4e44023          	sq	a4,-192(s0)
80009650:	fc0796e3          	bnez	a5,8000961c <_ebss+0xffe0890c>
80009654:	00000793          	li	a5,0
80009658:	00078513          	mv	a0,a5
8000965c:	0b01208f          	lq	ra,176(sp)
80009660:	0a01240f          	lq	s0,160(sp)
80009664:	0c010113          	addi	sp,sp,192
80009668:	00008067          	ret

8000966c <_realloc_r>:
8000966c:	f9010113          	addi	sp,sp,-112
80009670:	06114023          	sq	ra,96(sp)
80009674:	04814823          	sq	s0,80(sp)
80009678:	07010413          	addi	s0,sp,112
8000967c:	faa44823          	sq	a0,-80(s0)
80009680:	fab44023          	sq	a1,-96(s0)
80009684:	f8c44823          	sq	a2,-112(s0)
80009688:	fa04278f          	lq	a5,-96(s0)
8000968c:	00079c63          	bnez	a5,800096a4 <_realloc_r+0x38>
80009690:	f904258f          	lq	a1,-112(s0)
80009694:	fb04250f          	lq	a0,-80(s0)
80009698:	940f80ef          	jal	800017d8 <_ebss+0xffe00ac8>
8000969c:	00050793          	mv	a5,a0
800096a0:	0a00006f          	j	80009740 <_realloc_r+0xd4>
800096a4:	f904278f          	lq	a5,-112(s0)
800096a8:	00079c63          	bnez	a5,800096c0 <_realloc_r+0x54>
800096ac:	fa04258f          	lq	a1,-96(s0)
800096b0:	fb04250f          	lq	a0,-80(s0)
800096b4:	d04ff0ef          	jal	80008bb8 <_ebss+0xffe07ea8>
800096b8:	00000793          	li	a5,0
800096bc:	0840006f          	j	80009740 <_realloc_r+0xd4>
800096c0:	fa04258f          	lq	a1,-96(s0)
800096c4:	fb04250f          	lq	a0,-80(s0)
800096c8:	5b9000ef          	jal	8000a480 <_malloc_usable_size_r>
800096cc:	fca44823          	sq	a0,-48(s0)
800096d0:	f904270f          	lq	a4,-112(s0)
800096d4:	fd04278f          	lq	a5,-48(s0)
800096d8:	00e7ee63          	bltu	a5,a4,800096f4 <_realloc_r+0x88>
800096dc:	fd04278f          	lq	a5,-48(s0)
800096e0:	0017d793          	srli	a5,a5,0x1
800096e4:	f904270f          	lq	a4,-112(s0)
800096e8:	00e7f663          	bgeu	a5,a4,800096f4 <_realloc_r+0x88>
800096ec:	fa04278f          	lq	a5,-96(s0)
800096f0:	0500006f          	j	80009740 <_realloc_r+0xd4>
800096f4:	f904258f          	lq	a1,-112(s0)
800096f8:	fb04250f          	lq	a0,-80(s0)
800096fc:	8dcf80ef          	jal	800017d8 <_ebss+0xffe00ac8>
80009700:	fca44023          	sq	a0,-64(s0)
80009704:	fc04278f          	lq	a5,-64(s0)
80009708:	02078a63          	beqz	a5,8000973c <_realloc_r+0xd0>
8000970c:	fd04270f          	lq	a4,-48(s0)
80009710:	f904278f          	lq	a5,-112(s0)
80009714:	00e7f663          	bgeu	a5,a4,80009720 <_realloc_r+0xb4>
80009718:	f904278f          	lq	a5,-112(s0)
8000971c:	fcf44823          	sq	a5,-48(s0)
80009720:	fd04260f          	lq	a2,-48(s0)
80009724:	fa04258f          	lq	a1,-96(s0)
80009728:	fc04250f          	lq	a0,-64(s0)
8000972c:	a8dfe0ef          	jal	800081b8 <_ebss+0xffe074a8>
80009730:	fa04258f          	lq	a1,-96(s0)
80009734:	fb04250f          	lq	a0,-80(s0)
80009738:	c80ff0ef          	jal	80008bb8 <_ebss+0xffe07ea8>
8000973c:	fc04278f          	lq	a5,-64(s0)
80009740:	00078513          	mv	a0,a5
80009744:	0601208f          	lq	ra,96(sp)
80009748:	0501240f          	lq	s0,80(sp)
8000974c:	07010113          	addi	sp,sp,112
80009750:	00008067          	ret

80009754 <__smakebuf_r>:
80009754:	f8010113          	addi	sp,sp,-128
80009758:	06114823          	sq	ra,112(sp)
8000975c:	06814023          	sq	s0,96(sp)
80009760:	04914823          	sq	s1,80(sp)
80009764:	05214023          	sq	s2,64(sp)
80009768:	08010413          	addi	s0,sp,128
8000976c:	f8a44023          	sq	a0,-128(s0)
80009770:	00058493          	mv	s1,a1
80009774:	01849783          	lh	a5,24(s1)
80009778:	07079793          	slli	a5,a5,0x70
8000977c:	0707d793          	srli	a5,a5,0x70
80009780:	0007879b          	sext.w	a5,a5
80009784:	0027f793          	andi	a5,a5,2
80009788:	0007879b          	sext.w	a5,a5
8000978c:	02078063          	beqz	a5,800097ac <__smakebuf_r+0x58>
80009790:	0e748793          	addi	a5,s1,231
80009794:	00f4c023          	sq	a5,0(s1)
80009798:	0004a78f          	lq	a5,0(s1)
8000979c:	02f4c023          	sq	a5,32(s1)
800097a0:	00100793          	li	a5,1
800097a4:	02f4a823          	sw	a5,48(s1)
800097a8:	1240006f          	j	800098cc <__smakebuf_r+0x178>
800097ac:	f9c40713          	addi	a4,s0,-100
800097b0:	fa040793          	addi	a5,s0,-96
800097b4:	00070693          	mv	a3,a4
800097b8:	00078613          	mv	a2,a5
800097bc:	00048593          	mv	a1,s1
800097c0:	f804250f          	lq	a0,-128(s0)
800097c4:	120000ef          	jal	800098e4 <__swhatbuf_r>
800097c8:	00050793          	mv	a5,a0
800097cc:	faf42e23          	sw	a5,-68(s0)
800097d0:	fa04278f          	lq	a5,-96(s0)
800097d4:	00078593          	mv	a1,a5
800097d8:	f804250f          	lq	a0,-128(s0)
800097dc:	ffdf70ef          	jal	800017d8 <_ebss+0xffe00ac8>
800097e0:	00050913          	mv	s2,a0
800097e4:	04091e63          	bnez	s2,80009840 <__smakebuf_r+0xec>
800097e8:	01849783          	lh	a5,24(s1)
800097ec:	07079793          	slli	a5,a5,0x70
800097f0:	0707d793          	srli	a5,a5,0x70
800097f4:	0007879b          	sext.w	a5,a5
800097f8:	2007f793          	andi	a5,a5,512
800097fc:	0007879b          	sext.w	a5,a5
80009800:	0c079663          	bnez	a5,800098cc <__smakebuf_r+0x178>
80009804:	01849783          	lh	a5,24(s1)
80009808:	ffc7f793          	andi	a5,a5,-4
8000980c:	0107979b          	sllw	a5,a5,0x10
80009810:	4107d79b          	sraw	a5,a5,0x10
80009814:	0027e793          	ori	a5,a5,2
80009818:	0107979b          	sllw	a5,a5,0x10
8000981c:	4107d79b          	sraw	a5,a5,0x10
80009820:	00f49c23          	sh	a5,24(s1)
80009824:	0e748793          	addi	a5,s1,231
80009828:	00f4c023          	sq	a5,0(s1)
8000982c:	0004a78f          	lq	a5,0(s1)
80009830:	02f4c023          	sq	a5,32(s1)
80009834:	00100793          	li	a5,1
80009838:	02f4a823          	sw	a5,48(s1)
8000983c:	0900006f          	j	800098cc <__smakebuf_r+0x178>
80009840:	01849783          	lh	a5,24(s1)
80009844:	0807e793          	ori	a5,a5,128
80009848:	0107979b          	sllw	a5,a5,0x10
8000984c:	4107d79b          	sraw	a5,a5,0x10
80009850:	00f49c23          	sh	a5,24(s1)
80009854:	0124c023          	sq	s2,0(s1)
80009858:	0004a78f          	lq	a5,0(s1)
8000985c:	02f4c023          	sq	a5,32(s1)
80009860:	fa04278f          	lq	a5,-96(s0)
80009864:	0007879b          	sext.w	a5,a5
80009868:	02f4a823          	sw	a5,48(s1)
8000986c:	f9c42783          	lw	a5,-100(s0)
80009870:	02078e63          	beqz	a5,800098ac <__smakebuf_r+0x158>
80009874:	01a49783          	lh	a5,26(s1)
80009878:	00078593          	mv	a1,a5
8000987c:	f804250f          	lq	a0,-128(s0)
80009880:	020010ef          	jal	8000a8a0 <_isatty_r>
80009884:	00050793          	mv	a5,a0
80009888:	02078263          	beqz	a5,800098ac <__smakebuf_r+0x158>
8000988c:	01849783          	lh	a5,24(s1)
80009890:	ffc7f793          	andi	a5,a5,-4
80009894:	0107979b          	sllw	a5,a5,0x10
80009898:	4107d79b          	sraw	a5,a5,0x10
8000989c:	0017e793          	ori	a5,a5,1
800098a0:	0107979b          	sllw	a5,a5,0x10
800098a4:	4107d79b          	sraw	a5,a5,0x10
800098a8:	00f49c23          	sh	a5,24(s1)
800098ac:	01849703          	lh	a4,24(s1)
800098b0:	fbc42783          	lw	a5,-68(s0)
800098b4:	0107979b          	sllw	a5,a5,0x10
800098b8:	4107d79b          	sraw	a5,a5,0x10
800098bc:	00f767b3          	or	a5,a4,a5
800098c0:	0107979b          	sllw	a5,a5,0x10
800098c4:	4107d79b          	sraw	a5,a5,0x10
800098c8:	00f49c23          	sh	a5,24(s1)
800098cc:	0701208f          	lq	ra,112(sp)
800098d0:	0601240f          	lq	s0,96(sp)
800098d4:	0501248f          	lq	s1,80(sp)
800098d8:	0401290f          	lq	s2,64(sp)
800098dc:	08010113          	addi	sp,sp,128
800098e0:	00008067          	ret

800098e4 <__swhatbuf_r>:
800098e4:	f3010113          	addi	sp,sp,-208
800098e8:	0c114023          	sq	ra,192(sp)
800098ec:	0a814823          	sq	s0,176(sp)
800098f0:	0d010413          	addi	s0,sp,208
800098f4:	f6a44023          	sq	a0,-160(s0)
800098f8:	f4b44823          	sq	a1,-176(s0)
800098fc:	f4c44023          	sq	a2,-192(s0)
80009900:	f2d44823          	sq	a3,-208(s0)
80009904:	fc042e23          	sw	zero,-36(s0)
80009908:	f504278f          	lq	a5,-176(s0)
8000990c:	01a79783          	lh	a5,26(a5)
80009910:	0207c663          	bltz	a5,8000993c <__swhatbuf_r+0x58>
80009914:	f504278f          	lq	a5,-176(s0)
80009918:	01a79783          	lh	a5,26(a5)
8000991c:	00078713          	mv	a4,a5
80009920:	f7040793          	addi	a5,s0,-144
80009924:	00078613          	mv	a2,a5
80009928:	00070593          	mv	a1,a4
8000992c:	f604250f          	lq	a0,-160(s0)
80009930:	7fc000ef          	jal	8000a12c <_fstat_r>
80009934:	00050793          	mv	a5,a0
80009938:	0407d863          	bgez	a5,80009988 <__swhatbuf_r+0xa4>
8000993c:	f304278f          	lq	a5,-208(s0)
80009940:	0007a023          	sw	zero,0(a5)
80009944:	f504278f          	lq	a5,-176(s0)
80009948:	01879783          	lh	a5,24(a5)
8000994c:	07079793          	slli	a5,a5,0x70
80009950:	0707d793          	srli	a5,a5,0x70
80009954:	0007879b          	sext.w	a5,a5
80009958:	0807f793          	andi	a5,a5,128
8000995c:	0007879b          	sext.w	a5,a5
80009960:	00078a63          	beqz	a5,80009974 <__swhatbuf_r+0x90>
80009964:	f404278f          	lq	a5,-192(s0)
80009968:	04000713          	li	a4,64
8000996c:	00e7c023          	sq	a4,0(a5)
80009970:	0100006f          	j	80009980 <__swhatbuf_r+0x9c>
80009974:	f404278f          	lq	a5,-192(s0)
80009978:	40000713          	li	a4,1024
8000997c:	00e7c023          	sq	a4,0(a5)
80009980:	00000793          	li	a5,0
80009984:	0480006f          	j	800099cc <__swhatbuf_r+0xe8>
80009988:	f7442783          	lw	a5,-140(s0)
8000998c:	00078713          	mv	a4,a5
80009990:	0000f7b7          	lui	a5,0xf
80009994:	00f777b3          	and	a5,a4,a5
80009998:	0007879b          	sext.w	a5,a5
8000999c:	00078713          	mv	a4,a5
800099a0:	000027b7          	lui	a5,0x2
800099a4:	40f707b3          	sub	a5,a4,a5
800099a8:	0017b793          	seqz	a5,a5
800099ac:	0ff7f793          	zext.b	a5,a5
800099b0:	0007871b          	sext.w	a4,a5
800099b4:	f304278f          	lq	a5,-208(s0)
800099b8:	00e7a023          	sw	a4,0(a5) # 2000 <UART_BASE-0xfffe000>
800099bc:	f404278f          	lq	a5,-192(s0)
800099c0:	40000713          	li	a4,1024
800099c4:	00e7c023          	sq	a4,0(a5)
800099c8:	fdc42783          	lw	a5,-36(s0)
800099cc:	00078513          	mv	a0,a5
800099d0:	0c01208f          	lq	ra,192(sp)
800099d4:	0b01240f          	lq	s0,176(sp)
800099d8:	0d010113          	addi	sp,sp,208
800099dc:	00008067          	ret

800099e0 <_init_signal_r>:
800099e0:	fc010113          	addi	sp,sp,-64
800099e4:	02114823          	sq	ra,48(sp)
800099e8:	02814023          	sq	s0,32(sp)
800099ec:	04010413          	addi	s0,sp,64
800099f0:	fca44023          	sq	a0,-64(s0)
800099f4:	fc04278f          	lq	a5,-64(s0)
800099f8:	0e07a78f          	lq	a5,224(a5)
800099fc:	06079663          	bnez	a5,80009a68 <_init_signal_r+0x88>
80009a00:	20000593          	li	a1,512
80009a04:	fc04250f          	lq	a0,-64(s0)
80009a08:	dd1f70ef          	jal	800017d8 <_ebss+0xffe00ac8>
80009a0c:	00050713          	mv	a4,a0
80009a10:	fc04278f          	lq	a5,-64(s0)
80009a14:	0ee7c023          	sq	a4,224(a5)
80009a18:	fc04278f          	lq	a5,-64(s0)
80009a1c:	0e07a78f          	lq	a5,224(a5)
80009a20:	00079663          	bnez	a5,80009a2c <_init_signal_r+0x4c>
80009a24:	fff00793          	li	a5,-1
80009a28:	0440006f          	j	80009a6c <_init_signal_r+0x8c>
80009a2c:	fc042e23          	sw	zero,-36(s0)
80009a30:	0280006f          	j	80009a58 <_init_signal_r+0x78>
80009a34:	fc04278f          	lq	a5,-64(s0)
80009a38:	0e07a70f          	lq	a4,224(a5)
80009a3c:	fdc42783          	lw	a5,-36(s0)
80009a40:	00479793          	slli	a5,a5,0x4
80009a44:	00f707b3          	add	a5,a4,a5
80009a48:	0007c023          	sq	zero,0(a5)
80009a4c:	fdc42783          	lw	a5,-36(s0)
80009a50:	0017879b          	addw	a5,a5,1
80009a54:	fcf42e23          	sw	a5,-36(s0)
80009a58:	fdc42783          	lw	a5,-36(s0)
80009a5c:	0007871b          	sext.w	a4,a5
80009a60:	01f00793          	li	a5,31
80009a64:	fce7d8e3          	bge	a5,a4,80009a34 <_ebss+0xffe08d24>
80009a68:	00000793          	li	a5,0
80009a6c:	00078513          	mv	a0,a5
80009a70:	0301208f          	lq	ra,48(sp)
80009a74:	0201240f          	lq	s0,32(sp)
80009a78:	04010113          	addi	sp,sp,64
80009a7c:	00008067          	ret

80009a80 <_signal_r>:
80009a80:	fa010113          	addi	sp,sp,-96
80009a84:	04114823          	sq	ra,80(sp)
80009a88:	04814023          	sq	s0,64(sp)
80009a8c:	06010413          	addi	s0,sp,96
80009a90:	fca44023          	sq	a0,-64(s0)
80009a94:	00058793          	mv	a5,a1
80009a98:	fac44023          	sq	a2,-96(s0)
80009a9c:	faf42e23          	sw	a5,-68(s0)
80009aa0:	fbc42783          	lw	a5,-68(s0)
80009aa4:	0007879b          	sext.w	a5,a5
80009aa8:	0007ca63          	bltz	a5,80009abc <_signal_r+0x3c>
80009aac:	fbc42783          	lw	a5,-68(s0)
80009ab0:	0007871b          	sext.w	a4,a5
80009ab4:	01f00793          	li	a5,31
80009ab8:	00e7dc63          	bge	a5,a4,80009ad0 <_signal_r+0x50>
80009abc:	fc04278f          	lq	a5,-64(s0)
80009ac0:	01600713          	li	a4,22
80009ac4:	00e7a023          	sw	a4,0(a5)
80009ac8:	fff00793          	li	a5,-1
80009acc:	0640006f          	j	80009b30 <_signal_r+0xb0>
80009ad0:	fc04278f          	lq	a5,-64(s0)
80009ad4:	0e07a78f          	lq	a5,224(a5)
80009ad8:	00079e63          	bnez	a5,80009af4 <_signal_r+0x74>
80009adc:	fc04250f          	lq	a0,-64(s0)
80009ae0:	f01ff0ef          	jal	800099e0 <_ebss+0xffe08cd0>
80009ae4:	00050793          	mv	a5,a0
80009ae8:	00078663          	beqz	a5,80009af4 <_signal_r+0x74>
80009aec:	fff00793          	li	a5,-1
80009af0:	0400006f          	j	80009b30 <_signal_r+0xb0>
80009af4:	fc04278f          	lq	a5,-64(s0)
80009af8:	0e07a70f          	lq	a4,224(a5)
80009afc:	fbc42783          	lw	a5,-68(s0)
80009b00:	00479793          	slli	a5,a5,0x4
80009b04:	00f707b3          	add	a5,a4,a5
80009b08:	0007a78f          	lq	a5,0(a5)
80009b0c:	fcf44823          	sq	a5,-48(s0)
80009b10:	fc04278f          	lq	a5,-64(s0)
80009b14:	0e07a70f          	lq	a4,224(a5)
80009b18:	fbc42783          	lw	a5,-68(s0)
80009b1c:	00479793          	slli	a5,a5,0x4
80009b20:	00f707b3          	add	a5,a4,a5
80009b24:	fa04270f          	lq	a4,-96(s0)
80009b28:	00e7c023          	sq	a4,0(a5)
80009b2c:	fd04278f          	lq	a5,-48(s0)
80009b30:	00078513          	mv	a0,a5
80009b34:	0501208f          	lq	ra,80(sp)
80009b38:	0401240f          	lq	s0,64(sp)
80009b3c:	06010113          	addi	sp,sp,96
80009b40:	00008067          	ret

80009b44 <_raise_r>:
80009b44:	fb010113          	addi	sp,sp,-80
80009b48:	04114023          	sq	ra,64(sp)
80009b4c:	02814823          	sq	s0,48(sp)
80009b50:	05010413          	addi	s0,sp,80
80009b54:	fca44023          	sq	a0,-64(s0)
80009b58:	00058793          	mv	a5,a1
80009b5c:	faf42e23          	sw	a5,-68(s0)
80009b60:	fbc42783          	lw	a5,-68(s0)
80009b64:	0007879b          	sext.w	a5,a5
80009b68:	0007ca63          	bltz	a5,80009b7c <_raise_r+0x38>
80009b6c:	fbc42783          	lw	a5,-68(s0)
80009b70:	0007871b          	sext.w	a4,a5
80009b74:	01f00793          	li	a5,31
80009b78:	00e7dc63          	bge	a5,a4,80009b90 <_raise_r+0x4c>
80009b7c:	fc04278f          	lq	a5,-64(s0)
80009b80:	01600713          	li	a4,22
80009b84:	00e7a023          	sw	a4,0(a5)
80009b88:	fff00793          	li	a5,-1
80009b8c:	0c80006f          	j	80009c54 <_raise_r+0x110>
80009b90:	fc04278f          	lq	a5,-64(s0)
80009b94:	0e07a78f          	lq	a5,224(a5)
80009b98:	00079663          	bnez	a5,80009ba4 <_raise_r+0x60>
80009b9c:	fc044823          	sq	zero,-48(s0)
80009ba0:	0200006f          	j	80009bc0 <_raise_r+0x7c>
80009ba4:	fc04278f          	lq	a5,-64(s0)
80009ba8:	0e07a70f          	lq	a4,224(a5)
80009bac:	fbc42783          	lw	a5,-68(s0)
80009bb0:	00479793          	slli	a5,a5,0x4
80009bb4:	00f707b3          	add	a5,a4,a5
80009bb8:	0007a78f          	lq	a5,0(a5)
80009bbc:	fcf44823          	sq	a5,-48(s0)
80009bc0:	fd04278f          	lq	a5,-48(s0)
80009bc4:	02079863          	bnez	a5,80009bf4 <_raise_r+0xb0>
80009bc8:	fc04250f          	lq	a0,-64(s0)
80009bcc:	5f9000ef          	jal	8000a9c4 <_getpid_r>
80009bd0:	00050793          	mv	a5,a0
80009bd4:	00078713          	mv	a4,a5
80009bd8:	fbc42783          	lw	a5,-68(s0)
80009bdc:	00078613          	mv	a2,a5
80009be0:	00070593          	mv	a1,a4
80009be4:	fc04250f          	lq	a0,-64(s0)
80009be8:	541000ef          	jal	8000a928 <_kill_r>
80009bec:	00050793          	mv	a5,a0
80009bf0:	0640006f          	j	80009c54 <_raise_r+0x110>
80009bf4:	fd04270f          	lq	a4,-48(s0)
80009bf8:	00100793          	li	a5,1
80009bfc:	00f71663          	bne	a4,a5,80009c08 <_raise_r+0xc4>
80009c00:	00000793          	li	a5,0
80009c04:	0500006f          	j	80009c54 <_raise_r+0x110>
80009c08:	fd04270f          	lq	a4,-48(s0)
80009c0c:	fff00793          	li	a5,-1
80009c10:	00f71c63          	bne	a4,a5,80009c28 <_raise_r+0xe4>
80009c14:	fc04278f          	lq	a5,-64(s0)
80009c18:	01600713          	li	a4,22
80009c1c:	00e7a023          	sw	a4,0(a5)
80009c20:	00100793          	li	a5,1
80009c24:	0300006f          	j	80009c54 <_raise_r+0x110>
80009c28:	fc04278f          	lq	a5,-64(s0)
80009c2c:	0e07a70f          	lq	a4,224(a5)
80009c30:	fbc42783          	lw	a5,-68(s0)
80009c34:	00479793          	slli	a5,a5,0x4
80009c38:	00f707b3          	add	a5,a4,a5
80009c3c:	0007c023          	sq	zero,0(a5)
80009c40:	fbc42703          	lw	a4,-68(s0)
80009c44:	fd04278f          	lq	a5,-48(s0)
80009c48:	00070513          	mv	a0,a4
80009c4c:	000780e7          	jalr	a5
80009c50:	00000793          	li	a5,0
80009c54:	00078513          	mv	a0,a5
80009c58:	0401208f          	lq	ra,64(sp)
80009c5c:	0301240f          	lq	s0,48(sp)
80009c60:	05010113          	addi	sp,sp,80
80009c64:	00008067          	ret

80009c68 <__sigtramp_r>:
80009c68:	fb010113          	addi	sp,sp,-80
80009c6c:	04114023          	sq	ra,64(sp)
80009c70:	02814823          	sq	s0,48(sp)
80009c74:	05010413          	addi	s0,sp,80
80009c78:	fca44023          	sq	a0,-64(s0)
80009c7c:	00058793          	mv	a5,a1
80009c80:	faf42e23          	sw	a5,-68(s0)
80009c84:	fbc42783          	lw	a5,-68(s0)
80009c88:	0007879b          	sext.w	a5,a5
80009c8c:	0007ca63          	bltz	a5,80009ca0 <__sigtramp_r+0x38>
80009c90:	fbc42783          	lw	a5,-68(s0)
80009c94:	0007871b          	sext.w	a4,a5
80009c98:	01f00793          	li	a5,31
80009c9c:	00e7d663          	bge	a5,a4,80009ca8 <__sigtramp_r+0x40>
80009ca0:	fff00793          	li	a5,-1
80009ca4:	0a80006f          	j	80009d4c <__sigtramp_r+0xe4>
80009ca8:	fc04278f          	lq	a5,-64(s0)
80009cac:	0e07a78f          	lq	a5,224(a5)
80009cb0:	00079e63          	bnez	a5,80009ccc <__sigtramp_r+0x64>
80009cb4:	fc04250f          	lq	a0,-64(s0)
80009cb8:	d29ff0ef          	jal	800099e0 <_ebss+0xffe08cd0>
80009cbc:	00050793          	mv	a5,a0
80009cc0:	00078663          	beqz	a5,80009ccc <__sigtramp_r+0x64>
80009cc4:	fff00793          	li	a5,-1
80009cc8:	0840006f          	j	80009d4c <__sigtramp_r+0xe4>
80009ccc:	fc04278f          	lq	a5,-64(s0)
80009cd0:	0e07a70f          	lq	a4,224(a5)
80009cd4:	fbc42783          	lw	a5,-68(s0)
80009cd8:	00479793          	slli	a5,a5,0x4
80009cdc:	00f707b3          	add	a5,a4,a5
80009ce0:	0007a78f          	lq	a5,0(a5)
80009ce4:	fcf44823          	sq	a5,-48(s0)
80009ce8:	fd04278f          	lq	a5,-48(s0)
80009cec:	00079663          	bnez	a5,80009cf8 <__sigtramp_r+0x90>
80009cf0:	00100793          	li	a5,1
80009cf4:	0580006f          	j	80009d4c <__sigtramp_r+0xe4>
80009cf8:	fd04270f          	lq	a4,-48(s0)
80009cfc:	fff00793          	li	a5,-1
80009d00:	00f71663          	bne	a4,a5,80009d0c <__sigtramp_r+0xa4>
80009d04:	00200793          	li	a5,2
80009d08:	0440006f          	j	80009d4c <__sigtramp_r+0xe4>
80009d0c:	fd04270f          	lq	a4,-48(s0)
80009d10:	00100793          	li	a5,1
80009d14:	00f71663          	bne	a4,a5,80009d20 <__sigtramp_r+0xb8>
80009d18:	00300793          	li	a5,3
80009d1c:	0300006f          	j	80009d4c <__sigtramp_r+0xe4>
80009d20:	fc04278f          	lq	a5,-64(s0)
80009d24:	0e07a70f          	lq	a4,224(a5)
80009d28:	fbc42783          	lw	a5,-68(s0)
80009d2c:	00479793          	slli	a5,a5,0x4
80009d30:	00f707b3          	add	a5,a4,a5
80009d34:	0007c023          	sq	zero,0(a5)
80009d38:	fbc42703          	lw	a4,-68(s0)
80009d3c:	fd04278f          	lq	a5,-48(s0)
80009d40:	00070513          	mv	a0,a4
80009d44:	000780e7          	jalr	a5
80009d48:	00000793          	li	a5,0
80009d4c:	00078513          	mv	a0,a5
80009d50:	0401208f          	lq	ra,64(sp)
80009d54:	0301240f          	lq	s0,48(sp)
80009d58:	05010113          	addi	sp,sp,80
80009d5c:	00008067          	ret

80009d60 <raise>:
80009d60:	fd010113          	addi	sp,sp,-48
80009d64:	02114023          	sq	ra,32(sp)
80009d68:	00814823          	sq	s0,16(sp)
80009d6c:	03010413          	addi	s0,sp,48
80009d70:	00050793          	mv	a5,a0
80009d74:	fcf42e23          	sw	a5,-36(s0)
80009d78:	001f6797          	auipc	a5,0x1f6
80009d7c:	3a878793          	addi	a5,a5,936 # 80200120 <_impure_ptr>
80009d80:	0007a78f          	lq	a5,0(a5)
80009d84:	fdc42703          	lw	a4,-36(s0)
80009d88:	00070593          	mv	a1,a4
80009d8c:	00078513          	mv	a0,a5
80009d90:	db5ff0ef          	jal	80009b44 <_ebss+0xffe08e34>
80009d94:	00050793          	mv	a5,a0
80009d98:	00078513          	mv	a0,a5
80009d9c:	0201208f          	lq	ra,32(sp)
80009da0:	0101240f          	lq	s0,16(sp)
80009da4:	03010113          	addi	sp,sp,48
80009da8:	00008067          	ret

80009dac <signal>:
80009dac:	fc010113          	addi	sp,sp,-64
80009db0:	02114823          	sq	ra,48(sp)
80009db4:	02814023          	sq	s0,32(sp)
80009db8:	04010413          	addi	s0,sp,64
80009dbc:	00050793          	mv	a5,a0
80009dc0:	fcb44023          	sq	a1,-64(s0)
80009dc4:	fcf42e23          	sw	a5,-36(s0)
80009dc8:	001f6797          	auipc	a5,0x1f6
80009dcc:	35878793          	addi	a5,a5,856 # 80200120 <_impure_ptr>
80009dd0:	0007a78f          	lq	a5,0(a5)
80009dd4:	fdc42703          	lw	a4,-36(s0)
80009dd8:	fc04260f          	lq	a2,-64(s0)
80009ddc:	00070593          	mv	a1,a4
80009de0:	00078513          	mv	a0,a5
80009de4:	c9dff0ef          	jal	80009a80 <_ebss+0xffe08d70>
80009de8:	00050793          	mv	a5,a0
80009dec:	00078513          	mv	a0,a5
80009df0:	0301208f          	lq	ra,48(sp)
80009df4:	0201240f          	lq	s0,32(sp)
80009df8:	04010113          	addi	sp,sp,64
80009dfc:	00008067          	ret

80009e00 <_init_signal>:
80009e00:	fe010113          	addi	sp,sp,-32
80009e04:	00114823          	sq	ra,16(sp)
80009e08:	00814023          	sq	s0,0(sp)
80009e0c:	02010413          	addi	s0,sp,32
80009e10:	001f6797          	auipc	a5,0x1f6
80009e14:	31078793          	addi	a5,a5,784 # 80200120 <_impure_ptr>
80009e18:	0007a78f          	lq	a5,0(a5)
80009e1c:	00078513          	mv	a0,a5
80009e20:	bc1ff0ef          	jal	800099e0 <_ebss+0xffe08cd0>
80009e24:	00050793          	mv	a5,a0
80009e28:	00078513          	mv	a0,a5
80009e2c:	0101208f          	lq	ra,16(sp)
80009e30:	0001240f          	lq	s0,0(sp)
80009e34:	02010113          	addi	sp,sp,32
80009e38:	00008067          	ret

80009e3c <__sigtramp>:
80009e3c:	fd010113          	addi	sp,sp,-48
80009e40:	02114023          	sq	ra,32(sp)
80009e44:	00814823          	sq	s0,16(sp)
80009e48:	03010413          	addi	s0,sp,48
80009e4c:	00050793          	mv	a5,a0
80009e50:	fcf42e23          	sw	a5,-36(s0)
80009e54:	001f6797          	auipc	a5,0x1f6
80009e58:	2cc78793          	addi	a5,a5,716 # 80200120 <_impure_ptr>
80009e5c:	0007a78f          	lq	a5,0(a5)
80009e60:	fdc42703          	lw	a4,-36(s0)
80009e64:	00070593          	mv	a1,a4
80009e68:	00078513          	mv	a0,a5
80009e6c:	dfdff0ef          	jal	80009c68 <_ebss+0xffe08f58>
80009e70:	00050793          	mv	a5,a0
80009e74:	00078513          	mv	a0,a5
80009e78:	0201208f          	lq	ra,32(sp)
80009e7c:	0101240f          	lq	s0,16(sp)
80009e80:	03010113          	addi	sp,sp,48
80009e84:	00008067          	ret

80009e88 <memmove>:
80009e88:	f8010113          	addi	sp,sp,-128
80009e8c:	06814823          	sq	s0,112(sp)
80009e90:	08010413          	addi	s0,sp,128
80009e94:	faa44023          	sq	a0,-96(s0)
80009e98:	f8b44823          	sq	a1,-112(s0)
80009e9c:	f8c44023          	sq	a2,-128(s0)
80009ea0:	fa04278f          	lq	a5,-96(s0)
80009ea4:	fef44023          	sq	a5,-32(s0)
80009ea8:	f904278f          	lq	a5,-112(s0)
80009eac:	fcf44823          	sq	a5,-48(s0)
80009eb0:	fd04270f          	lq	a4,-48(s0)
80009eb4:	fe04278f          	lq	a5,-32(s0)
80009eb8:	10f77463          	bgeu	a4,a5,80009fc0 <memmove+0x138>
80009ebc:	fd04270f          	lq	a4,-48(s0)
80009ec0:	f804278f          	lq	a5,-128(s0)
80009ec4:	00f707b3          	add	a5,a4,a5
80009ec8:	fe04270f          	lq	a4,-32(s0)
80009ecc:	0ef77a63          	bgeu	a4,a5,80009fc0 <memmove+0x138>
80009ed0:	fd04270f          	lq	a4,-48(s0)
80009ed4:	f804278f          	lq	a5,-128(s0)
80009ed8:	00f707b3          	add	a5,a4,a5
80009edc:	fcf44823          	sq	a5,-48(s0)
80009ee0:	fe04270f          	lq	a4,-32(s0)
80009ee4:	f804278f          	lq	a5,-128(s0)
80009ee8:	00f707b3          	add	a5,a4,a5
80009eec:	fef44023          	sq	a5,-32(s0)
80009ef0:	f804270f          	lq	a4,-128(s0)
80009ef4:	00700793          	li	a5,7
80009ef8:	0ae7fa63          	bgeu	a5,a4,80009fac <memmove+0x124>
80009efc:	fd04278f          	lq	a5,-48(s0)
80009f00:	0007875b          	addid	a4,a5,0
80009f04:	fe04278f          	lq	a5,-32(s0)
80009f08:	000787db          	addid	a5,a5,0
80009f0c:	00f767b3          	or	a5,a4,a5
80009f10:	000787db          	addid	a5,a5,0
80009f14:	0077f793          	andi	a5,a5,7
80009f18:	08079a63          	bnez	a5,80009fac <memmove+0x124>
80009f1c:	fe04278f          	lq	a5,-32(s0)
80009f20:	fcf44023          	sq	a5,-64(s0)
80009f24:	fd04278f          	lq	a5,-48(s0)
80009f28:	faf44823          	sq	a5,-80(s0)
80009f2c:	0380006f          	j	80009f64 <memmove+0xdc>
80009f30:	fb04278f          	lq	a5,-80(s0)
80009f34:	ff878793          	addi	a5,a5,-8
80009f38:	faf44823          	sq	a5,-80(s0)
80009f3c:	fc04278f          	lq	a5,-64(s0)
80009f40:	ff878793          	addi	a5,a5,-8
80009f44:	fcf44023          	sq	a5,-64(s0)
80009f48:	fb04278f          	lq	a5,-80(s0)
80009f4c:	0007b703          	ld	a4,0(a5)
80009f50:	fc04278f          	lq	a5,-64(s0)
80009f54:	00e7b023          	sd	a4,0(a5)
80009f58:	f804278f          	lq	a5,-128(s0)
80009f5c:	ff878793          	addi	a5,a5,-8
80009f60:	f8f44023          	sq	a5,-128(s0)
80009f64:	f804270f          	lq	a4,-128(s0)
80009f68:	00700793          	li	a5,7
80009f6c:	fce7e2e3          	bltu	a5,a4,80009f30 <_ebss+0xffe09220>
80009f70:	fc04278f          	lq	a5,-64(s0)
80009f74:	fef44023          	sq	a5,-32(s0)
80009f78:	fb04278f          	lq	a5,-80(s0)
80009f7c:	fcf44823          	sq	a5,-48(s0)
80009f80:	02c0006f          	j	80009fac <memmove+0x124>
80009f84:	fd04278f          	lq	a5,-48(s0)
80009f88:	fff78793          	addi	a5,a5,-1
80009f8c:	fcf44823          	sq	a5,-48(s0)
80009f90:	fe04278f          	lq	a5,-32(s0)
80009f94:	fff78793          	addi	a5,a5,-1
80009f98:	fef44023          	sq	a5,-32(s0)
80009f9c:	fd04278f          	lq	a5,-48(s0)
80009fa0:	0007c703          	lbu	a4,0(a5)
80009fa4:	fe04278f          	lq	a5,-32(s0)
80009fa8:	00e78023          	sb	a4,0(a5)
80009fac:	f804278f          	lq	a5,-128(s0)
80009fb0:	fff78713          	addi	a4,a5,-1
80009fb4:	f8e44023          	sq	a4,-128(s0)
80009fb8:	fc0796e3          	bnez	a5,80009f84 <_ebss+0xffe09274>
80009fbc:	15c0006f          	j	8000a118 <memmove+0x290>
80009fc0:	f804270f          	lq	a4,-128(s0)
80009fc4:	00700793          	li	a5,7
80009fc8:	14e7f063          	bgeu	a5,a4,8000a108 <memmove+0x280>
80009fcc:	fd04278f          	lq	a5,-48(s0)
80009fd0:	0007875b          	addid	a4,a5,0
80009fd4:	fe04278f          	lq	a5,-32(s0)
80009fd8:	000787db          	addid	a5,a5,0
80009fdc:	00f767b3          	or	a5,a4,a5
80009fe0:	000787db          	addid	a5,a5,0
80009fe4:	0077f793          	andi	a5,a5,7
80009fe8:	12079063          	bnez	a5,8000a108 <memmove+0x280>
80009fec:	fe04278f          	lq	a5,-32(s0)
80009ff0:	fcf44023          	sq	a5,-64(s0)
80009ff4:	fd04278f          	lq	a5,-48(s0)
80009ff8:	faf44823          	sq	a5,-80(s0)
80009ffc:	0900006f          	j	8000a08c <memmove+0x204>
8000a000:	fb04270f          	lq	a4,-80(s0)
8000a004:	00870793          	addi	a5,a4,8
8000a008:	faf44823          	sq	a5,-80(s0)
8000a00c:	fc04278f          	lq	a5,-64(s0)
8000a010:	00878693          	addi	a3,a5,8
8000a014:	fcd44023          	sq	a3,-64(s0)
8000a018:	00073703          	ld	a4,0(a4)
8000a01c:	00e7b023          	sd	a4,0(a5)
8000a020:	fb04270f          	lq	a4,-80(s0)
8000a024:	00870793          	addi	a5,a4,8
8000a028:	faf44823          	sq	a5,-80(s0)
8000a02c:	fc04278f          	lq	a5,-64(s0)
8000a030:	00878693          	addi	a3,a5,8
8000a034:	fcd44023          	sq	a3,-64(s0)
8000a038:	00073703          	ld	a4,0(a4)
8000a03c:	00e7b023          	sd	a4,0(a5)
8000a040:	fb04270f          	lq	a4,-80(s0)
8000a044:	00870793          	addi	a5,a4,8
8000a048:	faf44823          	sq	a5,-80(s0)
8000a04c:	fc04278f          	lq	a5,-64(s0)
8000a050:	00878693          	addi	a3,a5,8
8000a054:	fcd44023          	sq	a3,-64(s0)
8000a058:	00073703          	ld	a4,0(a4)
8000a05c:	00e7b023          	sd	a4,0(a5)
8000a060:	fb04270f          	lq	a4,-80(s0)
8000a064:	00870793          	addi	a5,a4,8
8000a068:	faf44823          	sq	a5,-80(s0)
8000a06c:	fc04278f          	lq	a5,-64(s0)
8000a070:	00878693          	addi	a3,a5,8
8000a074:	fcd44023          	sq	a3,-64(s0)
8000a078:	00073703          	ld	a4,0(a4)
8000a07c:	00e7b023          	sd	a4,0(a5)
8000a080:	f804278f          	lq	a5,-128(s0)
8000a084:	fe078793          	addi	a5,a5,-32
8000a088:	f8f44023          	sq	a5,-128(s0)
8000a08c:	f804270f          	lq	a4,-128(s0)
8000a090:	01f00793          	li	a5,31
8000a094:	f6e7e6e3          	bltu	a5,a4,8000a000 <_ebss+0xffe092f0>
8000a098:	0300006f          	j	8000a0c8 <memmove+0x240>
8000a09c:	fb04270f          	lq	a4,-80(s0)
8000a0a0:	00870793          	addi	a5,a4,8
8000a0a4:	faf44823          	sq	a5,-80(s0)
8000a0a8:	fc04278f          	lq	a5,-64(s0)
8000a0ac:	00878693          	addi	a3,a5,8
8000a0b0:	fcd44023          	sq	a3,-64(s0)
8000a0b4:	00073703          	ld	a4,0(a4)
8000a0b8:	00e7b023          	sd	a4,0(a5)
8000a0bc:	f804278f          	lq	a5,-128(s0)
8000a0c0:	ff878793          	addi	a5,a5,-8
8000a0c4:	f8f44023          	sq	a5,-128(s0)
8000a0c8:	f804270f          	lq	a4,-128(s0)
8000a0cc:	00700793          	li	a5,7
8000a0d0:	fce7e6e3          	bltu	a5,a4,8000a09c <_ebss+0xffe0938c>
8000a0d4:	fc04278f          	lq	a5,-64(s0)
8000a0d8:	fef44023          	sq	a5,-32(s0)
8000a0dc:	fb04278f          	lq	a5,-80(s0)
8000a0e0:	fcf44823          	sq	a5,-48(s0)
8000a0e4:	0240006f          	j	8000a108 <memmove+0x280>
8000a0e8:	fd04270f          	lq	a4,-48(s0)
8000a0ec:	00170793          	addi	a5,a4,1
8000a0f0:	fcf44823          	sq	a5,-48(s0)
8000a0f4:	fe04278f          	lq	a5,-32(s0)
8000a0f8:	00178693          	addi	a3,a5,1
8000a0fc:	fed44023          	sq	a3,-32(s0)
8000a100:	00074703          	lbu	a4,0(a4)
8000a104:	00e78023          	sb	a4,0(a5)
8000a108:	f804278f          	lq	a5,-128(s0)
8000a10c:	fff78713          	addi	a4,a5,-1
8000a110:	f8e44023          	sq	a4,-128(s0)
8000a114:	fc079ae3          	bnez	a5,8000a0e8 <_ebss+0xffe093d8>
8000a118:	fa04278f          	lq	a5,-96(s0)
8000a11c:	00078513          	mv	a0,a5
8000a120:	0701240f          	lq	s0,112(sp)
8000a124:	08010113          	addi	sp,sp,128
8000a128:	00008067          	ret

8000a12c <_fstat_r>:
8000a12c:	fa010113          	addi	sp,sp,-96
8000a130:	04114823          	sq	ra,80(sp)
8000a134:	04814023          	sq	s0,64(sp)
8000a138:	06010413          	addi	s0,sp,96
8000a13c:	fca44023          	sq	a0,-64(s0)
8000a140:	00058793          	mv	a5,a1
8000a144:	fac44023          	sq	a2,-96(s0)
8000a148:	faf42e23          	sw	a5,-68(s0)
8000a14c:	001f6797          	auipc	a5,0x1f6
8000a150:	63478793          	addi	a5,a5,1588 # 80200780 <errno>
8000a154:	0007a023          	sw	zero,0(a5)
8000a158:	fbc42783          	lw	a5,-68(s0)
8000a15c:	fa04258f          	lq	a1,-96(s0)
8000a160:	00078513          	mv	a0,a5
8000a164:	3e0020ef          	jal	8000c544 <_fstat>
8000a168:	00050793          	mv	a5,a0
8000a16c:	fcf42e23          	sw	a5,-36(s0)
8000a170:	fdc42783          	lw	a5,-36(s0)
8000a174:	0007871b          	sext.w	a4,a5
8000a178:	fff00793          	li	a5,-1
8000a17c:	02f71463          	bne	a4,a5,8000a1a4 <_fstat_r+0x78>
8000a180:	001f6797          	auipc	a5,0x1f6
8000a184:	60078793          	addi	a5,a5,1536 # 80200780 <errno>
8000a188:	0007a783          	lw	a5,0(a5)
8000a18c:	00078c63          	beqz	a5,8000a1a4 <_fstat_r+0x78>
8000a190:	001f6797          	auipc	a5,0x1f6
8000a194:	5f078793          	addi	a5,a5,1520 # 80200780 <errno>
8000a198:	0007a703          	lw	a4,0(a5)
8000a19c:	fc04278f          	lq	a5,-64(s0)
8000a1a0:	00e7a023          	sw	a4,0(a5)
8000a1a4:	fdc42783          	lw	a5,-36(s0)
8000a1a8:	00078513          	mv	a0,a5
8000a1ac:	0501208f          	lq	ra,80(sp)
8000a1b0:	0401240f          	lq	s0,64(sp)
8000a1b4:	06010113          	addi	sp,sp,96
8000a1b8:	00008067          	ret

8000a1bc <__sread>:
8000a1bc:	f8010113          	addi	sp,sp,-128
8000a1c0:	06114823          	sq	ra,112(sp)
8000a1c4:	06814023          	sq	s0,96(sp)
8000a1c8:	04914823          	sq	s1,80(sp)
8000a1cc:	05214023          	sq	s2,64(sp)
8000a1d0:	08010413          	addi	s0,sp,128
8000a1d4:	faa44823          	sq	a0,-80(s0)
8000a1d8:	fab44023          	sq	a1,-96(s0)
8000a1dc:	f8c44823          	sq	a2,-112(s0)
8000a1e0:	00068793          	mv	a5,a3
8000a1e4:	f8f42623          	sw	a5,-116(s0)
8000a1e8:	fa04248f          	lq	s1,-96(s0)
8000a1ec:	01a49783          	lh	a5,26(s1)
8000a1f0:	00078713          	mv	a4,a5
8000a1f4:	f8c42783          	lw	a5,-116(s0)
8000a1f8:	00078693          	mv	a3,a5
8000a1fc:	f904260f          	lq	a2,-112(s0)
8000a200:	00070593          	mv	a1,a4
8000a204:	fb04250f          	lq	a0,-80(s0)
8000a208:	300000ef          	jal	8000a508 <_read_r>
8000a20c:	00050913          	mv	s2,a0
8000a210:	02094863          	bltz	s2,8000a240 <__sread+0x84>
8000a214:	1184b783          	ld	a5,280(s1)
8000a218:	04079713          	slli	a4,a5,0x40
8000a21c:	04075713          	srli	a4,a4,0x40
8000a220:	04091793          	slli	a5,s2,0x40
8000a224:	0407d793          	srli	a5,a5,0x40
8000a228:	00f707fb          	addd	a5,a4,a5
8000a22c:	04079793          	slli	a5,a5,0x40
8000a230:	0407d793          	srli	a5,a5,0x40
8000a234:	000787db          	addid	a5,a5,0
8000a238:	10f4bc23          	sd	a5,280(s1)
8000a23c:	0200006f          	j	8000a25c <__sread+0xa0>
8000a240:	01849703          	lh	a4,24(s1)
8000a244:	fffff7b7          	lui	a5,0xfffff
8000a248:	fff78793          	addi	a5,a5,-1 # ffffefff <_ebss+0x7fdfe2ef>
8000a24c:	00f777b3          	and	a5,a4,a5
8000a250:	0107979b          	sllw	a5,a5,0x10
8000a254:	4107d79b          	sraw	a5,a5,0x10
8000a258:	00f49c23          	sh	a5,24(s1)
8000a25c:	00090793          	mv	a5,s2
8000a260:	00078513          	mv	a0,a5
8000a264:	0701208f          	lq	ra,112(sp)
8000a268:	0601240f          	lq	s0,96(sp)
8000a26c:	0501248f          	lq	s1,80(sp)
8000a270:	0401290f          	lq	s2,64(sp)
8000a274:	08010113          	addi	sp,sp,128
8000a278:	00008067          	ret

8000a27c <__seofread>:
8000a27c:	fb010113          	addi	sp,sp,-80
8000a280:	04814023          	sq	s0,64(sp)
8000a284:	05010413          	addi	s0,sp,80
8000a288:	fea44023          	sq	a0,-32(s0)
8000a28c:	fcb44823          	sq	a1,-48(s0)
8000a290:	fcc44023          	sq	a2,-64(s0)
8000a294:	00068793          	mv	a5,a3
8000a298:	faf42e23          	sw	a5,-68(s0)
8000a29c:	00000793          	li	a5,0
8000a2a0:	00078513          	mv	a0,a5
8000a2a4:	0401240f          	lq	s0,64(sp)
8000a2a8:	05010113          	addi	sp,sp,80
8000a2ac:	00008067          	ret

8000a2b0 <__swrite>:
8000a2b0:	f8010113          	addi	sp,sp,-128
8000a2b4:	06114823          	sq	ra,112(sp)
8000a2b8:	06814023          	sq	s0,96(sp)
8000a2bc:	04914823          	sq	s1,80(sp)
8000a2c0:	08010413          	addi	s0,sp,128
8000a2c4:	faa44823          	sq	a0,-80(s0)
8000a2c8:	fab44023          	sq	a1,-96(s0)
8000a2cc:	f8c44823          	sq	a2,-112(s0)
8000a2d0:	00068793          	mv	a5,a3
8000a2d4:	f8f42623          	sw	a5,-116(s0)
8000a2d8:	fa04248f          	lq	s1,-96(s0)
8000a2dc:	01849783          	lh	a5,24(s1)
8000a2e0:	07079793          	slli	a5,a5,0x70
8000a2e4:	0707d793          	srli	a5,a5,0x70
8000a2e8:	0007879b          	sext.w	a5,a5
8000a2ec:	1007f793          	andi	a5,a5,256
8000a2f0:	0007879b          	sext.w	a5,a5
8000a2f4:	00078e63          	beqz	a5,8000a310 <__swrite+0x60>
8000a2f8:	01a49783          	lh	a5,26(s1)
8000a2fc:	00200693          	li	a3,2
8000a300:	00000613          	li	a2,0
8000a304:	00078593          	mv	a1,a5
8000a308:	fb04250f          	lq	a0,-80(s0)
8000a30c:	4e8000ef          	jal	8000a7f4 <_lseek_r>
8000a310:	01849703          	lh	a4,24(s1)
8000a314:	fffff7b7          	lui	a5,0xfffff
8000a318:	fff78793          	addi	a5,a5,-1 # ffffefff <_ebss+0x7fdfe2ef>
8000a31c:	00f777b3          	and	a5,a4,a5
8000a320:	0107979b          	sllw	a5,a5,0x10
8000a324:	4107d79b          	sraw	a5,a5,0x10
8000a328:	00f49c23          	sh	a5,24(s1)
8000a32c:	01a49783          	lh	a5,26(s1)
8000a330:	00078713          	mv	a4,a5
8000a334:	f8c42783          	lw	a5,-116(s0)
8000a338:	00078693          	mv	a3,a5
8000a33c:	f904260f          	lq	a2,-112(s0)
8000a340:	00070593          	mv	a1,a4
8000a344:	fb04250f          	lq	a0,-80(s0)
8000a348:	394000ef          	jal	8000a6dc <_write_r>
8000a34c:	fca44023          	sq	a0,-64(s0)
8000a350:	fc04278f          	lq	a5,-64(s0)
8000a354:	00078513          	mv	a0,a5
8000a358:	0701208f          	lq	ra,112(sp)
8000a35c:	0601240f          	lq	s0,96(sp)
8000a360:	0501248f          	lq	s1,80(sp)
8000a364:	08010113          	addi	sp,sp,128
8000a368:	00008067          	ret

8000a36c <__sseek>:
8000a36c:	f9010113          	addi	sp,sp,-112
8000a370:	06114023          	sq	ra,96(sp)
8000a374:	04814823          	sq	s0,80(sp)
8000a378:	04914023          	sq	s1,64(sp)
8000a37c:	03214823          	sq	s2,48(sp)
8000a380:	07010413          	addi	s0,sp,112
8000a384:	faa44823          	sq	a0,-80(s0)
8000a388:	fab44023          	sq	a1,-96(s0)
8000a38c:	00060793          	mv	a5,a2
8000a390:	00068713          	mv	a4,a3
8000a394:	f8f43c23          	sd	a5,-104(s0)
8000a398:	00070793          	mv	a5,a4
8000a39c:	f8f42a23          	sw	a5,-108(s0)
8000a3a0:	fa04248f          	lq	s1,-96(s0)
8000a3a4:	01a49783          	lh	a5,26(s1)
8000a3a8:	00078593          	mv	a1,a5
8000a3ac:	f9442703          	lw	a4,-108(s0)
8000a3b0:	f9843783          	ld	a5,-104(s0)
8000a3b4:	00070693          	mv	a3,a4
8000a3b8:	00078613          	mv	a2,a5
8000a3bc:	fb04250f          	lq	a0,-80(s0)
8000a3c0:	434000ef          	jal	8000a7f4 <_lseek_r>
8000a3c4:	00050793          	mv	a5,a0
8000a3c8:	00078913          	mv	s2,a5
8000a3cc:	00090713          	mv	a4,s2
8000a3d0:	fff00793          	li	a5,-1
8000a3d4:	02f71263          	bne	a4,a5,8000a3f8 <__sseek+0x8c>
8000a3d8:	01849703          	lh	a4,24(s1)
8000a3dc:	fffff7b7          	lui	a5,0xfffff
8000a3e0:	fff78793          	addi	a5,a5,-1 # ffffefff <_ebss+0x7fdfe2ef>
8000a3e4:	00f777b3          	and	a5,a4,a5
8000a3e8:	0107979b          	sllw	a5,a5,0x10
8000a3ec:	4107d79b          	sraw	a5,a5,0x10
8000a3f0:	00f49c23          	sh	a5,24(s1)
8000a3f4:	0200006f          	j	8000a414 <__sseek+0xa8>
8000a3f8:	01849703          	lh	a4,24(s1)
8000a3fc:	000017b7          	lui	a5,0x1
8000a400:	00f767b3          	or	a5,a4,a5
8000a404:	0107979b          	sllw	a5,a5,0x10
8000a408:	4107d79b          	sraw	a5,a5,0x10
8000a40c:	00f49c23          	sh	a5,24(s1)
8000a410:	1124bc23          	sd	s2,280(s1)
8000a414:	00090793          	mv	a5,s2
8000a418:	00078513          	mv	a0,a5
8000a41c:	0601208f          	lq	ra,96(sp)
8000a420:	0501240f          	lq	s0,80(sp)
8000a424:	0401248f          	lq	s1,64(sp)
8000a428:	0301290f          	lq	s2,48(sp)
8000a42c:	07010113          	addi	sp,sp,112
8000a430:	00008067          	ret

8000a434 <__sclose>:
8000a434:	fb010113          	addi	sp,sp,-80
8000a438:	04114023          	sq	ra,64(sp)
8000a43c:	02814823          	sq	s0,48(sp)
8000a440:	05010413          	addi	s0,sp,80
8000a444:	fca44023          	sq	a0,-64(s0)
8000a448:	fab44823          	sq	a1,-80(s0)
8000a44c:	fb04278f          	lq	a5,-80(s0)
8000a450:	fcf44823          	sq	a5,-48(s0)
8000a454:	fd04278f          	lq	a5,-48(s0)
8000a458:	01a79783          	lh	a5,26(a5) # 101a <UART_BASE-0xfffefe6>
8000a45c:	00078593          	mv	a1,a5
8000a460:	fc04250f          	lq	a0,-64(s0)
8000a464:	308000ef          	jal	8000a76c <_close_r>
8000a468:	00050793          	mv	a5,a0
8000a46c:	00078513          	mv	a0,a5
8000a470:	0401208f          	lq	ra,64(sp)
8000a474:	0301240f          	lq	s0,48(sp)
8000a478:	05010113          	addi	sp,sp,80
8000a47c:	00008067          	ret

8000a480 <_malloc_usable_size_r>:
8000a480:	fb010113          	addi	sp,sp,-80
8000a484:	04814023          	sq	s0,64(sp)
8000a488:	05010413          	addi	s0,sp,80
8000a48c:	fca44023          	sq	a0,-64(s0)
8000a490:	fab44823          	sq	a1,-80(s0)
8000a494:	fb04278f          	lq	a5,-80(s0)
8000a498:	ff078793          	addi	a5,a5,-16
8000a49c:	fef44023          	sq	a5,-32(s0)
8000a4a0:	fe04278f          	lq	a5,-32(s0)
8000a4a4:	0007b783          	ld	a5,0(a5)
8000a4a8:	fcf42e23          	sw	a5,-36(s0)
8000a4ac:	fdc42783          	lw	a5,-36(s0)
8000a4b0:	0007879b          	sext.w	a5,a5
8000a4b4:	0207dc63          	bgez	a5,8000a4ec <_malloc_usable_size_r+0x6c>
8000a4b8:	fe04278f          	lq	a5,-32(s0)
8000a4bc:	0007b783          	ld	a5,0(a5)
8000a4c0:	00078713          	mv	a4,a5
8000a4c4:	fe04278f          	lq	a5,-32(s0)
8000a4c8:	00e787b3          	add	a5,a5,a4
8000a4cc:	fef44023          	sq	a5,-32(s0)
8000a4d0:	fe04278f          	lq	a5,-32(s0)
8000a4d4:	0007b783          	ld	a5,0(a5)
8000a4d8:	00078713          	mv	a4,a5
8000a4dc:	fdc42783          	lw	a5,-36(s0)
8000a4e0:	00f707b3          	add	a5,a4,a5
8000a4e4:	ff078793          	addi	a5,a5,-16
8000a4e8:	0100006f          	j	8000a4f8 <_malloc_usable_size_r+0x78>
8000a4ec:	fe04278f          	lq	a5,-32(s0)
8000a4f0:	0007b783          	ld	a5,0(a5)
8000a4f4:	ff078793          	addi	a5,a5,-16
8000a4f8:	00078513          	mv	a0,a5
8000a4fc:	0401240f          	lq	s0,64(sp)
8000a500:	05010113          	addi	sp,sp,80
8000a504:	00008067          	ret

8000a508 <_read_r>:
8000a508:	f9010113          	addi	sp,sp,-112
8000a50c:	06114023          	sq	ra,96(sp)
8000a510:	04814823          	sq	s0,80(sp)
8000a514:	07010413          	addi	s0,sp,112
8000a518:	fca44023          	sq	a0,-64(s0)
8000a51c:	00058793          	mv	a5,a1
8000a520:	fac44023          	sq	a2,-96(s0)
8000a524:	f8d44823          	sq	a3,-112(s0)
8000a528:	faf42e23          	sw	a5,-68(s0)
8000a52c:	001f6797          	auipc	a5,0x1f6
8000a530:	25478793          	addi	a5,a5,596 # 80200780 <errno>
8000a534:	0007a023          	sw	zero,0(a5)
8000a538:	fbc42783          	lw	a5,-68(s0)
8000a53c:	f904260f          	lq	a2,-112(s0)
8000a540:	fa04258f          	lq	a1,-96(s0)
8000a544:	00078513          	mv	a0,a5
8000a548:	0e8020ef          	jal	8000c630 <_read>
8000a54c:	fca44823          	sq	a0,-48(s0)
8000a550:	fd04270f          	lq	a4,-48(s0)
8000a554:	fff00793          	li	a5,-1
8000a558:	02f71463          	bne	a4,a5,8000a580 <_read_r+0x78>
8000a55c:	001f6797          	auipc	a5,0x1f6
8000a560:	22478793          	addi	a5,a5,548 # 80200780 <errno>
8000a564:	0007a783          	lw	a5,0(a5)
8000a568:	00078c63          	beqz	a5,8000a580 <_read_r+0x78>
8000a56c:	001f6797          	auipc	a5,0x1f6
8000a570:	21478793          	addi	a5,a5,532 # 80200780 <errno>
8000a574:	0007a703          	lw	a4,0(a5)
8000a578:	fc04278f          	lq	a5,-64(s0)
8000a57c:	00e7a023          	sw	a4,0(a5)
8000a580:	fd04278f          	lq	a5,-48(s0)
8000a584:	00078513          	mv	a0,a5
8000a588:	0601208f          	lq	ra,96(sp)
8000a58c:	0501240f          	lq	s0,80(sp)
8000a590:	07010113          	addi	sp,sp,112
8000a594:	00008067          	ret

8000a598 <__get_global_locale>:
8000a598:	ff010113          	addi	sp,sp,-16
8000a59c:	00814023          	sq	s0,0(sp)
8000a5a0:	01010413          	addi	s0,sp,16
8000a5a4:	001f6797          	auipc	a5,0x1f6
8000a5a8:	bbc78793          	addi	a5,a5,-1092 # 80200160 <__global_locale>
8000a5ac:	00078513          	mv	a0,a5
8000a5b0:	0001240f          	lq	s0,0(sp)
8000a5b4:	01010113          	addi	sp,sp,16
8000a5b8:	00008067          	ret

8000a5bc <__get_current_locale>:
8000a5bc:	fe010113          	addi	sp,sp,-32
8000a5c0:	00114823          	sq	ra,16(sp)
8000a5c4:	00814023          	sq	s0,0(sp)
8000a5c8:	02010413          	addi	s0,sp,32
8000a5cc:	fcdff0ef          	jal	8000a598 <_ebss+0xffe09888>
8000a5d0:	00050793          	mv	a5,a0
8000a5d4:	00078513          	mv	a0,a5
8000a5d8:	0101208f          	lq	ra,16(sp)
8000a5dc:	0001240f          	lq	s0,0(sp)
8000a5e0:	02010113          	addi	sp,sp,32
8000a5e4:	00008067          	ret

8000a5e8 <_mbtowc_r>:
8000a5e8:	f9010113          	addi	sp,sp,-112
8000a5ec:	06114023          	sq	ra,96(sp)
8000a5f0:	04814823          	sq	s0,80(sp)
8000a5f4:	07010413          	addi	s0,sp,112
8000a5f8:	fca44823          	sq	a0,-48(s0)
8000a5fc:	fcb44023          	sq	a1,-64(s0)
8000a600:	fac44823          	sq	a2,-80(s0)
8000a604:	fad44023          	sq	a3,-96(s0)
8000a608:	f8e44823          	sq	a4,-112(s0)
8000a60c:	fb1ff0ef          	jal	8000a5bc <_ebss+0xffe098ac>
8000a610:	00050793          	mv	a5,a0
8000a614:	0f07a78f          	lq	a5,240(a5)
8000a618:	f904270f          	lq	a4,-112(s0)
8000a61c:	fa04268f          	lq	a3,-96(s0)
8000a620:	fb04260f          	lq	a2,-80(s0)
8000a624:	fc04258f          	lq	a1,-64(s0)
8000a628:	fd04250f          	lq	a0,-48(s0)
8000a62c:	000780e7          	jalr	a5
8000a630:	00050793          	mv	a5,a0
8000a634:	00078513          	mv	a0,a5
8000a638:	0601208f          	lq	ra,96(sp)
8000a63c:	0501240f          	lq	s0,80(sp)
8000a640:	07010113          	addi	sp,sp,112
8000a644:	00008067          	ret

8000a648 <__ascii_mbtowc>:
8000a648:	f8010113          	addi	sp,sp,-128
8000a64c:	06814823          	sq	s0,112(sp)
8000a650:	08010413          	addi	s0,sp,128
8000a654:	fca44023          	sq	a0,-64(s0)
8000a658:	fab44823          	sq	a1,-80(s0)
8000a65c:	fac44023          	sq	a2,-96(s0)
8000a660:	f8d44823          	sq	a3,-112(s0)
8000a664:	f8e44023          	sq	a4,-128(s0)
8000a668:	fa04278f          	lq	a5,-96(s0)
8000a66c:	fef44023          	sq	a5,-32(s0)
8000a670:	fb04278f          	lq	a5,-80(s0)
8000a674:	00079663          	bnez	a5,8000a680 <__ascii_mbtowc+0x38>
8000a678:	fdc40793          	addi	a5,s0,-36
8000a67c:	faf44823          	sq	a5,-80(s0)
8000a680:	fa04278f          	lq	a5,-96(s0)
8000a684:	00079663          	bnez	a5,8000a690 <__ascii_mbtowc+0x48>
8000a688:	00000793          	li	a5,0
8000a68c:	0400006f          	j	8000a6cc <__ascii_mbtowc+0x84>
8000a690:	f904278f          	lq	a5,-112(s0)
8000a694:	00079663          	bnez	a5,8000a6a0 <__ascii_mbtowc+0x58>
8000a698:	ffe00793          	li	a5,-2
8000a69c:	0300006f          	j	8000a6cc <__ascii_mbtowc+0x84>
8000a6a0:	fe04278f          	lq	a5,-32(s0)
8000a6a4:	0007c783          	lbu	a5,0(a5)
8000a6a8:	0007871b          	sext.w	a4,a5
8000a6ac:	fb04278f          	lq	a5,-80(s0)
8000a6b0:	00e7a023          	sw	a4,0(a5)
8000a6b4:	fe04278f          	lq	a5,-32(s0)
8000a6b8:	0007c783          	lbu	a5,0(a5)
8000a6bc:	00079663          	bnez	a5,8000a6c8 <__ascii_mbtowc+0x80>
8000a6c0:	00000793          	li	a5,0
8000a6c4:	0080006f          	j	8000a6cc <__ascii_mbtowc+0x84>
8000a6c8:	00100793          	li	a5,1
8000a6cc:	00078513          	mv	a0,a5
8000a6d0:	0701240f          	lq	s0,112(sp)
8000a6d4:	08010113          	addi	sp,sp,128
8000a6d8:	00008067          	ret

8000a6dc <_write_r>:
8000a6dc:	f9010113          	addi	sp,sp,-112
8000a6e0:	06114023          	sq	ra,96(sp)
8000a6e4:	04814823          	sq	s0,80(sp)
8000a6e8:	07010413          	addi	s0,sp,112
8000a6ec:	fca44023          	sq	a0,-64(s0)
8000a6f0:	00058793          	mv	a5,a1
8000a6f4:	fac44023          	sq	a2,-96(s0)
8000a6f8:	f8d44823          	sq	a3,-112(s0)
8000a6fc:	faf42e23          	sw	a5,-68(s0)
8000a700:	001f6797          	auipc	a5,0x1f6
8000a704:	08078793          	addi	a5,a5,128 # 80200780 <errno>
8000a708:	0007a023          	sw	zero,0(a5)
8000a70c:	fbc42783          	lw	a5,-68(s0)
8000a710:	f904260f          	lq	a2,-112(s0)
8000a714:	fa04258f          	lq	a1,-96(s0)
8000a718:	00078513          	mv	a0,a5
8000a71c:	691010ef          	jal	8000c5ac <_write>
8000a720:	fca44823          	sq	a0,-48(s0)
8000a724:	fd04270f          	lq	a4,-48(s0)
8000a728:	fff00793          	li	a5,-1
8000a72c:	02f71463          	bne	a4,a5,8000a754 <_write_r+0x78>
8000a730:	001f6797          	auipc	a5,0x1f6
8000a734:	05078793          	addi	a5,a5,80 # 80200780 <errno>
8000a738:	0007a783          	lw	a5,0(a5)
8000a73c:	00078c63          	beqz	a5,8000a754 <_write_r+0x78>
8000a740:	001f6797          	auipc	a5,0x1f6
8000a744:	04078793          	addi	a5,a5,64 # 80200780 <errno>
8000a748:	0007a703          	lw	a4,0(a5)
8000a74c:	fc04278f          	lq	a5,-64(s0)
8000a750:	00e7a023          	sw	a4,0(a5)
8000a754:	fd04278f          	lq	a5,-48(s0)
8000a758:	00078513          	mv	a0,a5
8000a75c:	0601208f          	lq	ra,96(sp)
8000a760:	0501240f          	lq	s0,80(sp)
8000a764:	07010113          	addi	sp,sp,112
8000a768:	00008067          	ret

8000a76c <_close_r>:
8000a76c:	fb010113          	addi	sp,sp,-80
8000a770:	04114023          	sq	ra,64(sp)
8000a774:	02814823          	sq	s0,48(sp)
8000a778:	05010413          	addi	s0,sp,80
8000a77c:	fca44023          	sq	a0,-64(s0)
8000a780:	00058793          	mv	a5,a1
8000a784:	faf42e23          	sw	a5,-68(s0)
8000a788:	001f6797          	auipc	a5,0x1f6
8000a78c:	ff878793          	addi	a5,a5,-8 # 80200780 <errno>
8000a790:	0007a023          	sw	zero,0(a5)
8000a794:	fbc42783          	lw	a5,-68(s0)
8000a798:	00078513          	mv	a0,a5
8000a79c:	5a1010ef          	jal	8000c53c <_close>
8000a7a0:	00050793          	mv	a5,a0
8000a7a4:	fcf42e23          	sw	a5,-36(s0)
8000a7a8:	fdc42783          	lw	a5,-36(s0)
8000a7ac:	0007871b          	sext.w	a4,a5
8000a7b0:	fff00793          	li	a5,-1
8000a7b4:	02f71463          	bne	a4,a5,8000a7dc <_close_r+0x70>
8000a7b8:	001f6797          	auipc	a5,0x1f6
8000a7bc:	fc878793          	addi	a5,a5,-56 # 80200780 <errno>
8000a7c0:	0007a783          	lw	a5,0(a5)
8000a7c4:	00078c63          	beqz	a5,8000a7dc <_close_r+0x70>
8000a7c8:	001f6797          	auipc	a5,0x1f6
8000a7cc:	fb878793          	addi	a5,a5,-72 # 80200780 <errno>
8000a7d0:	0007a703          	lw	a4,0(a5)
8000a7d4:	fc04278f          	lq	a5,-64(s0)
8000a7d8:	00e7a023          	sw	a4,0(a5)
8000a7dc:	fdc42783          	lw	a5,-36(s0)
8000a7e0:	00078513          	mv	a0,a5
8000a7e4:	0401208f          	lq	ra,64(sp)
8000a7e8:	0301240f          	lq	s0,48(sp)
8000a7ec:	05010113          	addi	sp,sp,80
8000a7f0:	00008067          	ret

8000a7f4 <_lseek_r>:
8000a7f4:	fb010113          	addi	sp,sp,-80
8000a7f8:	04114023          	sq	ra,64(sp)
8000a7fc:	02814823          	sq	s0,48(sp)
8000a800:	05010413          	addi	s0,sp,80
8000a804:	fca44023          	sq	a0,-64(s0)
8000a808:	00058793          	mv	a5,a1
8000a80c:	00068713          	mv	a4,a3
8000a810:	faf42e23          	sw	a5,-68(s0)
8000a814:	00060793          	mv	a5,a2
8000a818:	faf43823          	sd	a5,-80(s0)
8000a81c:	00070793          	mv	a5,a4
8000a820:	faf42c23          	sw	a5,-72(s0)
8000a824:	001f6797          	auipc	a5,0x1f6
8000a828:	f5c78793          	addi	a5,a5,-164 # 80200780 <errno>
8000a82c:	0007a023          	sw	zero,0(a5)
8000a830:	fb842683          	lw	a3,-72(s0)
8000a834:	fb043703          	ld	a4,-80(s0)
8000a838:	fbc42783          	lw	a5,-68(s0)
8000a83c:	00068613          	mv	a2,a3
8000a840:	00070593          	mv	a1,a4
8000a844:	00078513          	mv	a0,a5
8000a848:	515010ef          	jal	8000c55c <_lseek>
8000a84c:	00050793          	mv	a5,a0
8000a850:	fcf43c23          	sd	a5,-40(s0)
8000a854:	fd843783          	ld	a5,-40(s0)
8000a858:	0007875b          	addid	a4,a5,0
8000a85c:	fff00793          	li	a5,-1
8000a860:	02f71463          	bne	a4,a5,8000a888 <_lseek_r+0x94>
8000a864:	001f6797          	auipc	a5,0x1f6
8000a868:	f1c78793          	addi	a5,a5,-228 # 80200780 <errno>
8000a86c:	0007a783          	lw	a5,0(a5)
8000a870:	00078c63          	beqz	a5,8000a888 <_lseek_r+0x94>
8000a874:	001f6797          	auipc	a5,0x1f6
8000a878:	f0c78793          	addi	a5,a5,-244 # 80200780 <errno>
8000a87c:	0007a703          	lw	a4,0(a5)
8000a880:	fc04278f          	lq	a5,-64(s0)
8000a884:	00e7a023          	sw	a4,0(a5)
8000a888:	fd843783          	ld	a5,-40(s0)
8000a88c:	00078513          	mv	a0,a5
8000a890:	0401208f          	lq	ra,64(sp)
8000a894:	0301240f          	lq	s0,48(sp)
8000a898:	05010113          	addi	sp,sp,80
8000a89c:	00008067          	ret

8000a8a0 <_isatty_r>:
8000a8a0:	fb010113          	addi	sp,sp,-80
8000a8a4:	04114023          	sq	ra,64(sp)
8000a8a8:	02814823          	sq	s0,48(sp)
8000a8ac:	05010413          	addi	s0,sp,80
8000a8b0:	fca44023          	sq	a0,-64(s0)
8000a8b4:	00058793          	mv	a5,a1
8000a8b8:	faf42e23          	sw	a5,-68(s0)
8000a8bc:	001f6797          	auipc	a5,0x1f6
8000a8c0:	ec478793          	addi	a5,a5,-316 # 80200780 <errno>
8000a8c4:	0007a023          	sw	zero,0(a5)
8000a8c8:	fbc42783          	lw	a5,-68(s0)
8000a8cc:	00078513          	mv	a0,a5
8000a8d0:	485010ef          	jal	8000c554 <_isatty>
8000a8d4:	00050793          	mv	a5,a0
8000a8d8:	fcf42e23          	sw	a5,-36(s0)
8000a8dc:	fdc42783          	lw	a5,-36(s0)
8000a8e0:	0007871b          	sext.w	a4,a5
8000a8e4:	fff00793          	li	a5,-1
8000a8e8:	02f71463          	bne	a4,a5,8000a910 <_isatty_r+0x70>
8000a8ec:	001f6797          	auipc	a5,0x1f6
8000a8f0:	e9478793          	addi	a5,a5,-364 # 80200780 <errno>
8000a8f4:	0007a783          	lw	a5,0(a5)
8000a8f8:	00078c63          	beqz	a5,8000a910 <_isatty_r+0x70>
8000a8fc:	001f6797          	auipc	a5,0x1f6
8000a900:	e8478793          	addi	a5,a5,-380 # 80200780 <errno>
8000a904:	0007a703          	lw	a4,0(a5)
8000a908:	fc04278f          	lq	a5,-64(s0)
8000a90c:	00e7a023          	sw	a4,0(a5)
8000a910:	fdc42783          	lw	a5,-36(s0)
8000a914:	00078513          	mv	a0,a5
8000a918:	0401208f          	lq	ra,64(sp)
8000a91c:	0301240f          	lq	s0,48(sp)
8000a920:	05010113          	addi	sp,sp,80
8000a924:	00008067          	ret

8000a928 <_kill_r>:
8000a928:	fb010113          	addi	sp,sp,-80
8000a92c:	04114023          	sq	ra,64(sp)
8000a930:	02814823          	sq	s0,48(sp)
8000a934:	05010413          	addi	s0,sp,80
8000a938:	fca44023          	sq	a0,-64(s0)
8000a93c:	00058793          	mv	a5,a1
8000a940:	00060713          	mv	a4,a2
8000a944:	faf42e23          	sw	a5,-68(s0)
8000a948:	00070793          	mv	a5,a4
8000a94c:	faf42c23          	sw	a5,-72(s0)
8000a950:	001f6797          	auipc	a5,0x1f6
8000a954:	e3078793          	addi	a5,a5,-464 # 80200780 <errno>
8000a958:	0007a023          	sw	zero,0(a5)
8000a95c:	fb842703          	lw	a4,-72(s0)
8000a960:	fbc42783          	lw	a5,-68(s0)
8000a964:	00070593          	mv	a1,a4
8000a968:	00078513          	mv	a0,a5
8000a96c:	435010ef          	jal	8000c5a0 <_kill>
8000a970:	00050793          	mv	a5,a0
8000a974:	fcf42e23          	sw	a5,-36(s0)
8000a978:	fdc42783          	lw	a5,-36(s0)
8000a97c:	0007871b          	sext.w	a4,a5
8000a980:	fff00793          	li	a5,-1
8000a984:	02f71463          	bne	a4,a5,8000a9ac <_kill_r+0x84>
8000a988:	001f6797          	auipc	a5,0x1f6
8000a98c:	df878793          	addi	a5,a5,-520 # 80200780 <errno>
8000a990:	0007a783          	lw	a5,0(a5)
8000a994:	00078c63          	beqz	a5,8000a9ac <_kill_r+0x84>
8000a998:	001f6797          	auipc	a5,0x1f6
8000a99c:	de878793          	addi	a5,a5,-536 # 80200780 <errno>
8000a9a0:	0007a703          	lw	a4,0(a5)
8000a9a4:	fc04278f          	lq	a5,-64(s0)
8000a9a8:	00e7a023          	sw	a4,0(a5)
8000a9ac:	fdc42783          	lw	a5,-36(s0)
8000a9b0:	00078513          	mv	a0,a5
8000a9b4:	0401208f          	lq	ra,64(sp)
8000a9b8:	0301240f          	lq	s0,48(sp)
8000a9bc:	05010113          	addi	sp,sp,80
8000a9c0:	00008067          	ret

8000a9c4 <_getpid_r>:
8000a9c4:	fc010113          	addi	sp,sp,-64
8000a9c8:	02114823          	sq	ra,48(sp)
8000a9cc:	02814023          	sq	s0,32(sp)
8000a9d0:	04010413          	addi	s0,sp,64
8000a9d4:	fca44023          	sq	a0,-64(s0)
8000a9d8:	3cd010ef          	jal	8000c5a4 <_getpid>
8000a9dc:	00050793          	mv	a5,a0
8000a9e0:	fcf42e23          	sw	a5,-36(s0)
8000a9e4:	fdc42783          	lw	a5,-36(s0)
8000a9e8:	00078513          	mv	a0,a5
8000a9ec:	0301208f          	lq	ra,48(sp)
8000a9f0:	0201240f          	lq	s0,32(sp)
8000a9f4:	04010113          	addi	sp,sp,64
8000a9f8:	00008067          	ret

8000a9fc <__adddf3>:
8000a9fc:	04051513          	slli	a0,a0,0x40
8000aa00:	04059593          	slli	a1,a1,0x40
8000aa04:	fff00893          	li	a7,-1
8000aa08:	fc010113          	addi	sp,sp,-64
8000aa0c:	04055513          	srli	a0,a0,0x40
8000aa10:	0405d593          	srli	a1,a1,0x40
8000aa14:	00c8d713          	srli	a4,a7,0xc
8000aa18:	00e577b3          	and	a5,a0,a4
8000aa1c:	03f5d693          	srli	a3,a1,0x3f
8000aa20:	00e5f733          	and	a4,a1,a4
8000aa24:	00914823          	sq	s1,16(sp)
8000aa28:	0345d593          	srli	a1,a1,0x34
8000aa2c:	03f55493          	srli	s1,a0,0x3f
8000aa30:	03455513          	srli	a0,a0,0x34
8000aa34:	04079613          	slli	a2,a5,0x40
8000aa38:	0014f493          	andi	s1,s1,1
8000aa3c:	0016f693          	andi	a3,a3,1
8000aa40:	7ff57513          	andi	a0,a0,2047
8000aa44:	04071713          	slli	a4,a4,0x40
8000aa48:	7ff5f593          	andi	a1,a1,2047
8000aa4c:	02814023          	sq	s0,32(sp)
8000aa50:	04065613          	srli	a2,a2,0x40
8000aa54:	04075713          	srli	a4,a4,0x40
8000aa58:	07051413          	slli	s0,a0,0x70
8000aa5c:	07059593          	slli	a1,a1,0x70
8000aa60:	02114823          	sq	ra,48(sp)
8000aa64:	01214023          	sq	s2,0(sp)
8000aa68:	0ff4f493          	zext.b	s1,s1
8000aa6c:	0ff6f693          	zext.b	a3,a3
8000aa70:	07045413          	srli	s0,s0,0x70
8000aa74:	00361793          	slli	a5,a2,0x3
8000aa78:	0705d593          	srli	a1,a1,0x70
8000aa7c:	00371713          	slli	a4,a4,0x3
8000aa80:	14d48263          	beq	s1,a3,8000abc4 <__adddf3+0x1c8>
8000aa84:	40b4053b          	subw	a0,s0,a1
8000aa88:	0005061b          	sext.w	a2,a0
8000aa8c:	10c05463          	blez	a2,8000ab94 <__adddf3+0x198>
8000aa90:	16058663          	beqz	a1,8000abfc <__adddf3+0x200>
8000aa94:	7ff00693          	li	a3,2047
8000aa98:	06d40c63          	beq	s0,a3,8000ab10 <__adddf3+0x114>
8000aa9c:	00100693          	li	a3,1
8000aaa0:	03769693          	slli	a3,a3,0x37
8000aaa4:	00d76733          	or	a4,a4,a3
8000aaa8:	03800593          	li	a1,56
8000aaac:	00100693          	li	a3,1
8000aab0:	00c5c663          	blt	a1,a2,8000aabc <__adddf3+0xc0>
8000aab4:	00c75633          	srl	a2,a4,a2
8000aab8:	00166693          	ori	a3,a2,1
8000aabc:	40d787b3          	sub	a5,a5,a3
8000aac0:	0377d713          	srli	a4,a5,0x37
8000aac4:	00177713          	andi	a4,a4,1
8000aac8:	18070c63          	beqz	a4,8000ac60 <__adddf3+0x264>
8000aacc:	fff00913          	li	s2,-1
8000aad0:	00995913          	srli	s2,s2,0x9
8000aad4:	0127f933          	and	s2,a5,s2
8000aad8:	00090513          	mv	a0,s2
8000aadc:	175010ef          	jal	8000c450 <__clzti2>
8000aae0:	ff85071b          	addw	a4,a0,-8
8000aae4:	00e91933          	sll	s2,s2,a4
8000aae8:	1c874e63          	blt	a4,s0,8000acc4 <__adddf3+0x2c8>
8000aaec:	4087053b          	subw	a0,a4,s0
8000aaf0:	0015051b          	addw	a0,a0,1
8000aaf4:	04000793          	li	a5,64
8000aaf8:	40a787bb          	subw	a5,a5,a0
8000aafc:	00f917b3          	sll	a5,s2,a5
8000ab00:	00f037b3          	snez	a5,a5
8000ab04:	00a95933          	srl	s2,s2,a0
8000ab08:	00f967b3          	or	a5,s2,a5
8000ab0c:	00000413          	li	s0,0
8000ab10:	0077f713          	andi	a4,a5,7
8000ab14:	00070a63          	beqz	a4,8000ab28 <__adddf3+0x12c>
8000ab18:	00f7f713          	andi	a4,a5,15
8000ab1c:	00400693          	li	a3,4
8000ab20:	00d70463          	beq	a4,a3,8000ab28 <__adddf3+0x12c>
8000ab24:	00478793          	addi	a5,a5,4
8000ab28:	0377d713          	srli	a4,a5,0x37
8000ab2c:	00177713          	andi	a4,a4,1
8000ab30:	12070c63          	beqz	a4,8000ac68 <__adddf3+0x26c>
8000ab34:	0014f813          	andi	a6,s1,1
8000ab38:	00140713          	addi	a4,s0,1
8000ab3c:	7ff00693          	li	a3,2047
8000ab40:	0ff87813          	zext.b	a6,a6
8000ab44:	14d70463          	beq	a4,a3,8000ac8c <__adddf3+0x290>
8000ab48:	0037d513          	srli	a0,a5,0x3
8000ab4c:	7ff77793          	andi	a5,a4,2047
8000ab50:	00003717          	auipc	a4,0x3
8000ab54:	c707270f          	lq	a4,-912(a4) # 8000d7c0 <_ctype_+0x120>
8000ab58:	00e57533          	and	a0,a0,a4
8000ab5c:	07079793          	slli	a5,a5,0x70
8000ab60:	04051513          	slli	a0,a0,0x40
8000ab64:	0707d793          	srli	a5,a5,0x70
8000ab68:	04055513          	srli	a0,a0,0x40
8000ab6c:	0301208f          	lq	ra,48(sp)
8000ab70:	0201240f          	lq	s0,32(sp)
8000ab74:	034797db          	sllid	a5,a5,0x34
8000ab78:	00f56533          	or	a0,a0,a5
8000ab7c:	03f817db          	sllid	a5,a6,0x3f
8000ab80:	0101248f          	lq	s1,16(sp)
8000ab84:	0001290f          	lq	s2,0(sp)
8000ab88:	00f56533          	or	a0,a0,a5
8000ab8c:	04010113          	addi	sp,sp,64
8000ab90:	00008067          	ret
8000ab94:	08060063          	beqz	a2,8000ac14 <__adddf3+0x218>
8000ab98:	1a041c63          	bnez	s0,8000ad50 <__adddf3+0x354>
8000ab9c:	28078063          	beqz	a5,8000ae1c <__adddf3+0x420>
8000aba0:	fff54513          	not	a0,a0
8000aba4:	0005051b          	sext.w	a0,a0
8000aba8:	2c050863          	beqz	a0,8000ae78 <__adddf3+0x47c>
8000abac:	7ff00613          	li	a2,2047
8000abb0:	1ac59c63          	bne	a1,a2,8000ad68 <__adddf3+0x36c>
8000abb4:	00070793          	mv	a5,a4
8000abb8:	7ff00413          	li	s0,2047
8000abbc:	00068493          	mv	s1,a3
8000abc0:	f51ff06f          	j	8000ab10 <_ebss+0xffe09e00>
8000abc4:	40b4063b          	subw	a2,s0,a1
8000abc8:	0006069b          	sext.w	a3,a2
8000abcc:	00048813          	mv	a6,s1
8000abd0:	0cd05463          	blez	a3,8000ac98 <__adddf3+0x29c>
8000abd4:	06058a63          	beqz	a1,8000ac48 <__adddf3+0x24c>
8000abd8:	7ff00613          	li	a2,2047
8000abdc:	f2c40ae3          	beq	s0,a2,8000ab10 <_ebss+0xffe09e00>
8000abe0:	00100613          	li	a2,1
8000abe4:	03761613          	slli	a2,a2,0x37
8000abe8:	00c76733          	or	a4,a4,a2
8000abec:	03800613          	li	a2,56
8000abf0:	18d65e63          	bge	a2,a3,8000ad8c <__adddf3+0x390>
8000abf4:	00178793          	addi	a5,a5,1
8000abf8:	f19ff06f          	j	8000ab10 <_ebss+0xffe09e00>
8000abfc:	f0070ae3          	beqz	a4,8000ab10 <_ebss+0xffe09e00>
8000ac00:	fff5061b          	addw	a2,a0,-1
8000ac04:	24060463          	beqz	a2,8000ae4c <__adddf3+0x450>
8000ac08:	7ff00693          	li	a3,2047
8000ac0c:	e8d41ee3          	bne	s0,a3,8000aaa8 <_ebss+0xffe09d98>
8000ac10:	f01ff06f          	j	8000ab10 <_ebss+0xffe09e00>
8000ac14:	00140613          	addi	a2,s0,1
8000ac18:	7fe67613          	andi	a2,a2,2046
8000ac1c:	10061863          	bnez	a2,8000ad2c <__adddf3+0x330>
8000ac20:	20041663          	bnez	s0,8000ae2c <__adddf3+0x430>
8000ac24:	26078263          	beqz	a5,8000ae88 <__adddf3+0x48c>
8000ac28:	ee0704e3          	beqz	a4,8000ab10 <_ebss+0xffe09e00>
8000ac2c:	40e78633          	sub	a2,a5,a4
8000ac30:	03765593          	srli	a1,a2,0x37
8000ac34:	0015f593          	andi	a1,a1,1
8000ac38:	26058a63          	beqz	a1,8000aeac <__adddf3+0x4b0>
8000ac3c:	40f707b3          	sub	a5,a4,a5
8000ac40:	00068493          	mv	s1,a3
8000ac44:	ecdff06f          	j	8000ab10 <_ebss+0xffe09e00>
8000ac48:	ec0704e3          	beqz	a4,8000ab10 <_ebss+0xffe09e00>
8000ac4c:	fff6069b          	addw	a3,a2,-1
8000ac50:	1e068a63          	beqz	a3,8000ae44 <__adddf3+0x448>
8000ac54:	7ff00613          	li	a2,2047
8000ac58:	f8c41ae3          	bne	s0,a2,8000abec <_ebss+0xffe09edc>
8000ac5c:	eb5ff06f          	j	8000ab10 <_ebss+0xffe09e00>
8000ac60:	0077f713          	andi	a4,a5,7
8000ac64:	ea071ae3          	bnez	a4,8000ab18 <_ebss+0xffe09e08>
8000ac68:	7ff00713          	li	a4,2047
8000ac6c:	0037d793          	srli	a5,a5,0x3
8000ac70:	24e41463          	bne	s0,a4,8000aeb8 <__adddf3+0x4bc>
8000ac74:	06078463          	beqz	a5,8000acdc <__adddf3+0x2e0>
8000ac78:	00100513          	li	a0,1
8000ac7c:	00000813          	li	a6,0
8000ac80:	7ff00793          	li	a5,2047
8000ac84:	03351513          	slli	a0,a0,0x33
8000ac88:	ee5ff06f          	j	8000ab6c <_ebss+0xffe09e5c>
8000ac8c:	7ff00793          	li	a5,2047
8000ac90:	00000513          	li	a0,0
8000ac94:	ed9ff06f          	j	8000ab6c <_ebss+0xffe09e5c>
8000ac98:	04068c63          	beqz	a3,8000acf0 <__adddf3+0x2f4>
8000ac9c:	12041863          	bnez	s0,8000adcc <__adddf3+0x3d0>
8000aca0:	1e078c63          	beqz	a5,8000ae98 <__adddf3+0x49c>
8000aca4:	fff64613          	not	a2,a2
8000aca8:	0006061b          	sext.w	a2,a2
8000acac:	22060663          	beqz	a2,8000aed8 <__adddf3+0x4dc>
8000acb0:	7ff00693          	li	a3,2047
8000acb4:	12d59863          	bne	a1,a3,8000ade4 <__adddf3+0x3e8>
8000acb8:	00070793          	mv	a5,a4
8000acbc:	7ff00413          	li	s0,2047
8000acc0:	e51ff06f          	j	8000ab10 <_ebss+0xffe09e00>
8000acc4:	fff00793          	li	a5,-1
8000acc8:	03779793          	slli	a5,a5,0x37
8000accc:	fff78793          	addi	a5,a5,-1
8000acd0:	40e40433          	sub	s0,s0,a4
8000acd4:	00f977b3          	and	a5,s2,a5
8000acd8:	e39ff06f          	j	8000ab10 <_ebss+0xffe09e00>
8000acdc:	0014f793          	andi	a5,s1,1
8000ace0:	0ff7f813          	zext.b	a6,a5
8000ace4:	00000513          	li	a0,0
8000ace8:	7ff00793          	li	a5,2047
8000acec:	e81ff06f          	j	8000ab6c <_ebss+0xffe09e5c>
8000acf0:	00140693          	addi	a3,s0,1
8000acf4:	7fe6f613          	andi	a2,a3,2046
8000acf8:	10061063          	bnez	a2,8000adf8 <__adddf3+0x3fc>
8000acfc:	14041c63          	bnez	s0,8000ae54 <__adddf3+0x458>
8000ad00:	1a078263          	beqz	a5,8000aea4 <__adddf3+0x4a8>
8000ad04:	e00706e3          	beqz	a4,8000ab10 <_ebss+0xffe09e00>
8000ad08:	00e78633          	add	a2,a5,a4
8000ad0c:	03765793          	srli	a5,a2,0x37
8000ad10:	0017f793          	andi	a5,a5,1
8000ad14:	18078e63          	beqz	a5,8000aeb0 <__adddf3+0x4b4>
8000ad18:	03789793          	slli	a5,a7,0x37
8000ad1c:	fff78793          	addi	a5,a5,-1
8000ad20:	00f677b3          	and	a5,a2,a5
8000ad24:	00100413          	li	s0,1
8000ad28:	de9ff06f          	j	8000ab10 <_ebss+0xffe09e00>
8000ad2c:	40e78933          	sub	s2,a5,a4
8000ad30:	03795613          	srli	a2,s2,0x37
8000ad34:	00167613          	andi	a2,a2,1
8000ad38:	0c061c63          	bnez	a2,8000ae10 <__adddf3+0x414>
8000ad3c:	d8091ee3          	bnez	s2,8000aad8 <_ebss+0xffe09dc8>
8000ad40:	00000813          	li	a6,0
8000ad44:	00000793          	li	a5,0
8000ad48:	00000513          	li	a0,0
8000ad4c:	e21ff06f          	j	8000ab6c <_ebss+0xffe09e5c>
8000ad50:	7ff00613          	li	a2,2047
8000ad54:	e6c580e3          	beq	a1,a2,8000abb4 <_ebss+0xffe09ea4>
8000ad58:	00100613          	li	a2,1
8000ad5c:	03761613          	slli	a2,a2,0x37
8000ad60:	40a0053b          	negw	a0,a0
8000ad64:	00c7e7b3          	or	a5,a5,a2
8000ad68:	03800813          	li	a6,56
8000ad6c:	00100613          	li	a2,1
8000ad70:	00a84663          	blt	a6,a0,8000ad7c <__adddf3+0x380>
8000ad74:	00a7d533          	srl	a0,a5,a0
8000ad78:	00156613          	ori	a2,a0,1
8000ad7c:	40c707b3          	sub	a5,a4,a2
8000ad80:	00058413          	mv	s0,a1
8000ad84:	00068493          	mv	s1,a3
8000ad88:	d39ff06f          	j	8000aac0 <_ebss+0xffe09db0>
8000ad8c:	00d756b3          	srl	a3,a4,a3
8000ad90:	0016e693          	ori	a3,a3,1
8000ad94:	00d787b3          	add	a5,a5,a3
8000ad98:	0377d713          	srli	a4,a5,0x37
8000ad9c:	00177713          	andi	a4,a4,1
8000ada0:	ec0700e3          	beqz	a4,8000ac60 <_ebss+0xffe09f50>
8000ada4:	00140413          	addi	s0,s0,1
8000ada8:	7ff00713          	li	a4,2047
8000adac:	eee400e3          	beq	s0,a4,8000ac8c <_ebss+0xffe09f7c>
8000adb0:	0017d713          	srli	a4,a5,0x1
8000adb4:	00003697          	auipc	a3,0x3
8000adb8:	9fc6a68f          	lq	a3,-1540(a3) # 8000d7b0 <_ctype_+0x110>
8000adbc:	0017f793          	andi	a5,a5,1
8000adc0:	00d77733          	and	a4,a4,a3
8000adc4:	00f767b3          	or	a5,a4,a5
8000adc8:	d49ff06f          	j	8000ab10 <_ebss+0xffe09e00>
8000adcc:	7ff00693          	li	a3,2047
8000add0:	eed584e3          	beq	a1,a3,8000acb8 <_ebss+0xffe09fa8>
8000add4:	00100693          	li	a3,1
8000add8:	03769693          	slli	a3,a3,0x37
8000addc:	40c0063b          	negw	a2,a2
8000ade0:	00d7e7b3          	or	a5,a5,a3
8000ade4:	03800693          	li	a3,56
8000ade8:	06c6de63          	bge	a3,a2,8000ae64 <__adddf3+0x468>
8000adec:	00170793          	addi	a5,a4,1
8000adf0:	00058413          	mv	s0,a1
8000adf4:	d1dff06f          	j	8000ab10 <_ebss+0xffe09e00>
8000adf8:	7ff00613          	li	a2,2047
8000adfc:	e8c688e3          	beq	a3,a2,8000ac8c <_ebss+0xffe09f7c>
8000ae00:	00e78733          	add	a4,a5,a4
8000ae04:	00175793          	srli	a5,a4,0x1
8000ae08:	00068413          	mv	s0,a3
8000ae0c:	d05ff06f          	j	8000ab10 <_ebss+0xffe09e00>
8000ae10:	40f70933          	sub	s2,a4,a5
8000ae14:	00068493          	mv	s1,a3
8000ae18:	cc1ff06f          	j	8000aad8 <_ebss+0xffe09dc8>
8000ae1c:	00070793          	mv	a5,a4
8000ae20:	00058413          	mv	s0,a1
8000ae24:	00068493          	mv	s1,a3
8000ae28:	ce9ff06f          	j	8000ab10 <_ebss+0xffe09e00>
8000ae2c:	02079663          	bnez	a5,8000ae58 <__adddf3+0x45c>
8000ae30:	e40704e3          	beqz	a4,8000ac78 <_ebss+0xffe09f68>
8000ae34:	00070793          	mv	a5,a4
8000ae38:	00068493          	mv	s1,a3
8000ae3c:	7ff00413          	li	s0,2047
8000ae40:	cd1ff06f          	j	8000ab10 <_ebss+0xffe09e00>
8000ae44:	00e787b3          	add	a5,a5,a4
8000ae48:	f51ff06f          	j	8000ad98 <_ebss+0xffe0a088>
8000ae4c:	40e787b3          	sub	a5,a5,a4
8000ae50:	c71ff06f          	j	8000aac0 <_ebss+0xffe09db0>
8000ae54:	e60782e3          	beqz	a5,8000acb8 <_ebss+0xffe09fa8>
8000ae58:	e20710e3          	bnez	a4,8000ac78 <_ebss+0xffe09f68>
8000ae5c:	7ff00413          	li	s0,2047
8000ae60:	cb1ff06f          	j	8000ab10 <_ebss+0xffe09e00>
8000ae64:	00c7d633          	srl	a2,a5,a2
8000ae68:	00166613          	ori	a2,a2,1
8000ae6c:	00e607b3          	add	a5,a2,a4
8000ae70:	00058413          	mv	s0,a1
8000ae74:	f25ff06f          	j	8000ad98 <_ebss+0xffe0a088>
8000ae78:	40f707b3          	sub	a5,a4,a5
8000ae7c:	00058413          	mv	s0,a1
8000ae80:	00068493          	mv	s1,a3
8000ae84:	c3dff06f          	j	8000aac0 <_ebss+0xffe09db0>
8000ae88:	ea070ce3          	beqz	a4,8000ad40 <_ebss+0xffe0a030>
8000ae8c:	00070793          	mv	a5,a4
8000ae90:	00068493          	mv	s1,a3
8000ae94:	c7dff06f          	j	8000ab10 <_ebss+0xffe09e00>
8000ae98:	00070793          	mv	a5,a4
8000ae9c:	00058413          	mv	s0,a1
8000aea0:	c71ff06f          	j	8000ab10 <_ebss+0xffe09e00>
8000aea4:	00070793          	mv	a5,a4
8000aea8:	c69ff06f          	j	8000ab10 <_ebss+0xffe09e00>
8000aeac:	e8060ae3          	beqz	a2,8000ad40 <_ebss+0xffe0a030>
8000aeb0:	00365793          	srli	a5,a2,0x3
8000aeb4:	00000413          	li	s0,0
8000aeb8:	7ff47713          	andi	a4,s0,2047
8000aebc:	04079513          	slli	a0,a5,0x40
8000aec0:	0014f813          	andi	a6,s1,1
8000aec4:	07071793          	slli	a5,a4,0x70
8000aec8:	04055513          	srli	a0,a0,0x40
8000aecc:	0707d793          	srli	a5,a5,0x70
8000aed0:	0ff87813          	zext.b	a6,a6
8000aed4:	c99ff06f          	j	8000ab6c <_ebss+0xffe09e5c>
8000aed8:	00e787b3          	add	a5,a5,a4
8000aedc:	00058413          	mv	s0,a1
8000aee0:	eb9ff06f          	j	8000ad98 <_ebss+0xffe0a088>

8000aee4 <__divdf3>:
8000aee4:	04051713          	slli	a4,a0,0x40
8000aee8:	04075713          	srli	a4,a4,0x40
8000aeec:	03475793          	srli	a5,a4,0x34
8000aef0:	7ff7f793          	andi	a5,a5,2047
8000aef4:	f7010113          	addi	sp,sp,-144
8000aef8:	03f75713          	srli	a4,a4,0x3f
8000aefc:	07079793          	slli	a5,a5,0x70
8000af00:	05214823          	sq	s2,80(sp)
8000af04:	05314023          	sq	s3,64(sp)
8000af08:	00177713          	andi	a4,a4,1
8000af0c:	04051913          	slli	s2,a0,0x40
8000af10:	08114023          	sq	ra,128(sp)
8000af14:	06814823          	sq	s0,112(sp)
8000af18:	06914023          	sq	s1,96(sp)
8000af1c:	03414823          	sq	s4,48(sp)
8000af20:	03514023          	sq	s5,32(sp)
8000af24:	01614823          	sq	s6,16(sp)
8000af28:	0707d793          	srli	a5,a5,0x70
8000af2c:	04095913          	srli	s2,s2,0x40
8000af30:	0ff77993          	zext.b	s3,a4
8000af34:	14078e63          	beqz	a5,8000b090 <__divdf3+0x1ac>
8000af38:	0007869b          	sext.w	a3,a5
8000af3c:	7ff00713          	li	a4,2047
8000af40:	16e68263          	beq	a3,a4,8000b0a4 <__divdf3+0x1c0>
8000af44:	00100713          	li	a4,1
8000af48:	00391913          	slli	s2,s2,0x3
8000af4c:	03771713          	slli	a4,a4,0x37
8000af50:	00e96933          	or	s2,s2,a4
8000af54:	c0178493          	addi	s1,a5,-1023
8000af58:	00000b13          	li	s6,0
8000af5c:	00000a13          	li	s4,0
8000af60:	04059713          	slli	a4,a1,0x40
8000af64:	04075713          	srli	a4,a4,0x40
8000af68:	03475793          	srli	a5,a4,0x34
8000af6c:	7ff7f793          	andi	a5,a5,2047
8000af70:	03f75713          	srli	a4,a4,0x3f
8000af74:	07079793          	slli	a5,a5,0x70
8000af78:	00177713          	andi	a4,a4,1
8000af7c:	04059413          	slli	s0,a1,0x40
8000af80:	0707d793          	srli	a5,a5,0x70
8000af84:	04045413          	srli	s0,s0,0x40
8000af88:	0ff77a93          	zext.b	s5,a4
8000af8c:	0c078863          	beqz	a5,8000b05c <__divdf3+0x178>
8000af90:	0007861b          	sext.w	a2,a5
8000af94:	7ff00513          	li	a0,2047
8000af98:	12a60063          	beq	a2,a0,8000b0b8 <__divdf3+0x1d4>
8000af9c:	00100713          	li	a4,1
8000afa0:	00341413          	slli	s0,s0,0x3
8000afa4:	03771713          	slli	a4,a4,0x37
8000afa8:	00e46433          	or	s0,s0,a4
8000afac:	c0178793          	addi	a5,a5,-1023
8000afb0:	00000593          	li	a1,0
8000afb4:	0159c633          	xor	a2,s3,s5
8000afb8:	00f00713          	li	a4,15
8000afbc:	0ff67613          	zext.b	a2,a2
8000afc0:	40f484b3          	sub	s1,s1,a5
8000afc4:	27676663          	bltu	a4,s6,8000b230 <__divdf3+0x34c>
8000afc8:	00003517          	auipc	a0,0x3
8000afcc:	80850513          	addi	a0,a0,-2040 # 8000d7d0 <_ctype_+0x130>
8000afd0:	002b1693          	slli	a3,s6,0x2
8000afd4:	00a686b3          	add	a3,a3,a0
8000afd8:	0006a783          	lw	a5,0(a3)
8000afdc:	00a787b3          	add	a5,a5,a0
8000afe0:	00078067          	jr	a5
8000afe4:	7ff00793          	li	a5,2047
8000afe8:	00000713          	li	a4,0
8000afec:	0801208f          	lq	ra,128(sp)
8000aff0:	0701240f          	lq	s0,112(sp)
8000aff4:	034797db          	sllid	a5,a5,0x34
8000aff8:	00f76533          	or	a0,a4,a5
8000affc:	03f6165b          	sllid	a2,a2,0x3f
8000b000:	0601248f          	lq	s1,96(sp)
8000b004:	0501290f          	lq	s2,80(sp)
8000b008:	0401298f          	lq	s3,64(sp)
8000b00c:	03012a0f          	lq	s4,48(sp)
8000b010:	02012a8f          	lq	s5,32(sp)
8000b014:	01012b0f          	lq	s6,16(sp)
8000b018:	00c56533          	or	a0,a0,a2
8000b01c:	09010113          	addi	sp,sp,144
8000b020:	00008067          	ret
8000b024:	00300793          	li	a5,3
8000b028:	02fa0063          	beq	s4,a5,8000b048 <__divdf3+0x164>
8000b02c:	00100793          	li	a5,1
8000b030:	16fa1463          	bne	s4,a5,8000b198 <__divdf3+0x2b4>
8000b034:	00177713          	andi	a4,a4,1
8000b038:	0ff77613          	zext.b	a2,a4
8000b03c:	00000793          	li	a5,0
8000b040:	00000713          	li	a4,0
8000b044:	fa9ff06f          	j	8000afec <_ebss+0xffe0a2dc>
8000b048:	00100713          	li	a4,1
8000b04c:	00000613          	li	a2,0
8000b050:	7ff00793          	li	a5,2047
8000b054:	03371713          	slli	a4,a4,0x33
8000b058:	f95ff06f          	j	8000afec <_ebss+0xffe0a2dc>
8000b05c:	0e041263          	bnez	s0,8000b140 <__divdf3+0x25c>
8000b060:	0159c633          	xor	a2,s3,s5
8000b064:	001b6693          	ori	a3,s6,1
8000b068:	00d00793          	li	a5,13
8000b06c:	0ff67613          	zext.b	a2,a2
8000b070:	f6d7eae3          	bltu	a5,a3,8000afe4 <_ebss+0xffe0a2d4>
8000b074:	00002717          	auipc	a4,0x2
8000b078:	79c70713          	addi	a4,a4,1948 # 8000d810 <_ctype_+0x170>
8000b07c:	00269693          	slli	a3,a3,0x2
8000b080:	00e686b3          	add	a3,a3,a4
8000b084:	0006a783          	lw	a5,0(a3)
8000b088:	00e787b3          	add	a5,a5,a4
8000b08c:	00078067          	jr	a5
8000b090:	08091063          	bnez	s2,8000b110 <__divdf3+0x22c>
8000b094:	00400b13          	li	s6,4
8000b098:	00000493          	li	s1,0
8000b09c:	00100a13          	li	s4,1
8000b0a0:	ec1ff06f          	j	8000af60 <_ebss+0xffe0a250>
8000b0a4:	04091e63          	bnez	s2,8000b100 <__divdf3+0x21c>
8000b0a8:	00800b13          	li	s6,8
8000b0ac:	7ff00493          	li	s1,2047
8000b0b0:	00200a13          	li	s4,2
8000b0b4:	eadff06f          	j	8000af60 <_ebss+0xffe0a250>
8000b0b8:	02041c63          	bnez	s0,8000b0f0 <__divdf3+0x20c>
8000b0bc:	002b6693          	ori	a3,s6,2
8000b0c0:	0159c633          	xor	a2,s3,s5
8000b0c4:	ffd68693          	addi	a3,a3,-3
8000b0c8:	00b00713          	li	a4,11
8000b0cc:	0ff67613          	zext.b	a2,a2
8000b0d0:	f6d766e3          	bltu	a4,a3,8000b03c <_ebss+0xffe0a32c>
8000b0d4:	00002597          	auipc	a1,0x2
8000b0d8:	77458593          	addi	a1,a1,1908 # 8000d848 <_ctype_+0x1a8>
8000b0dc:	00269693          	slli	a3,a3,0x2
8000b0e0:	00b686b3          	add	a3,a3,a1
8000b0e4:	0006a703          	lw	a4,0(a3)
8000b0e8:	00b70733          	add	a4,a4,a1
8000b0ec:	00070067          	jr	a4
8000b0f0:	003b6b13          	ori	s6,s6,3
8000b0f4:	7ff00793          	li	a5,2047
8000b0f8:	00300593          	li	a1,3
8000b0fc:	eb9ff06f          	j	8000afb4 <_ebss+0xffe0a2a4>
8000b100:	00c00b13          	li	s6,12
8000b104:	7ff00493          	li	s1,2047
8000b108:	00300a13          	li	s4,3
8000b10c:	e55ff06f          	j	8000af60 <_ebss+0xffe0a250>
8000b110:	00090513          	mv	a0,s2
8000b114:	00b13423          	sd	a1,8(sp)
8000b118:	338010ef          	jal	8000c450 <__clzti2>
8000b11c:	0005071b          	sext.w	a4,a0
8000b120:	c0d00793          	li	a5,-1011
8000b124:	ff85051b          	addw	a0,a0,-8
8000b128:	00813583          	ld	a1,8(sp)
8000b12c:	00a91933          	sll	s2,s2,a0
8000b130:	40e784b3          	sub	s1,a5,a4
8000b134:	00000b13          	li	s6,0
8000b138:	00000a13          	li	s4,0
8000b13c:	e25ff06f          	j	8000af60 <_ebss+0xffe0a250>
8000b140:	00040513          	mv	a0,s0
8000b144:	30c010ef          	jal	8000c450 <__clzti2>
8000b148:	0005071b          	sext.w	a4,a0
8000b14c:	c0d00793          	li	a5,-1011
8000b150:	ff85051b          	addw	a0,a0,-8
8000b154:	00a41433          	sll	s0,s0,a0
8000b158:	40e787b3          	sub	a5,a5,a4
8000b15c:	00000593          	li	a1,0
8000b160:	e55ff06f          	j	8000afb4 <_ebss+0xffe0a2a4>
8000b164:	80148493          	addi	s1,s1,-2047
8000b168:	00200793          	li	a5,2
8000b16c:	00098713          	mv	a4,s3
8000b170:	eafa1ae3          	bne	s4,a5,8000b024 <_ebss+0xffe0a314>
8000b174:	00177713          	andi	a4,a4,1
8000b178:	0ff77613          	zext.b	a2,a4
8000b17c:	7ff00793          	li	a5,2047
8000b180:	00000713          	li	a4,0
8000b184:	e69ff06f          	j	8000afec <_ebss+0xffe0a2dc>
8000b188:	00300793          	li	a5,3
8000b18c:	000a8713          	mv	a4,s5
8000b190:	00040913          	mv	s2,s0
8000b194:	eaf58ae3          	beq	a1,a5,8000b048 <_ebss+0xffe0a338>
8000b198:	00177713          	andi	a4,a4,1
8000b19c:	0ff77613          	zext.b	a2,a4
8000b1a0:	3ff48793          	addi	a5,s1,1023
8000b1a4:	06f05063          	blez	a5,8000b204 <__divdf3+0x320>
8000b1a8:	00797713          	andi	a4,s2,7
8000b1ac:	00070a63          	beqz	a4,8000b1c0 <__divdf3+0x2dc>
8000b1b0:	00f97713          	andi	a4,s2,15
8000b1b4:	00400693          	li	a3,4
8000b1b8:	00d70463          	beq	a4,a3,8000b1c0 <__divdf3+0x2dc>
8000b1bc:	00490913          	addi	s2,s2,4
8000b1c0:	03895713          	srli	a4,s2,0x38
8000b1c4:	00177713          	andi	a4,a4,1
8000b1c8:	00070c63          	beqz	a4,8000b1e0 <__divdf3+0x2fc>
8000b1cc:	fff00793          	li	a5,-1
8000b1d0:	03879793          	slli	a5,a5,0x38
8000b1d4:	fff78793          	addi	a5,a5,-1
8000b1d8:	00f97933          	and	s2,s2,a5
8000b1dc:	40048793          	addi	a5,s1,1024
8000b1e0:	7fe00713          	li	a4,2046
8000b1e4:	e0f740e3          	blt	a4,a5,8000afe4 <_ebss+0xffe0a2d4>
8000b1e8:	00395713          	srli	a4,s2,0x3
8000b1ec:	7ff7f793          	andi	a5,a5,2047
8000b1f0:	04071713          	slli	a4,a4,0x40
8000b1f4:	07079793          	slli	a5,a5,0x70
8000b1f8:	04075713          	srli	a4,a4,0x40
8000b1fc:	0707d793          	srli	a5,a5,0x70
8000b200:	dedff06f          	j	8000afec <_ebss+0xffe0a2dc>
8000b204:	0e078463          	beqz	a5,8000b2ec <__divdf3+0x408>
8000b208:	00100693          	li	a3,1
8000b20c:	40f686b3          	sub	a3,a3,a5
8000b210:	03800593          	li	a1,56
8000b214:	00000793          	li	a5,0
8000b218:	00000713          	li	a4,0
8000b21c:	dcd5c8e3          	blt	a1,a3,8000afec <_ebss+0xffe0a2dc>
8000b220:	04000793          	li	a5,64
8000b224:	0006871b          	sext.w	a4,a3
8000b228:	40d787bb          	subw	a5,a5,a3
8000b22c:	0c80006f          	j	8000b2f4 <__divdf3+0x410>
8000b230:	fff00713          	li	a4,-1
8000b234:	00841813          	slli	a6,s0,0x8
8000b238:	02075713          	srli	a4,a4,0x20
8000b23c:	02085593          	srli	a1,a6,0x20
8000b240:	00e87733          	and	a4,a6,a4
8000b244:	08897863          	bgeu	s2,s0,8000b2d4 <__divdf3+0x3f0>
8000b248:	02b956b3          	divu	a3,s2,a1
8000b24c:	02e68533          	mul	a0,a3,a4
8000b250:	00090793          	mv	a5,s2
8000b254:	fff48493          	addi	s1,s1,-1
8000b258:	00000913          	li	s2,0
8000b25c:	02b7f7b3          	remu	a5,a5,a1
8000b260:	02079793          	slli	a5,a5,0x20
8000b264:	0127e7b3          	or	a5,a5,s2
8000b268:	00a7fa63          	bgeu	a5,a0,8000b27c <__divdf3+0x398>
8000b26c:	00f807b3          	add	a5,a6,a5
8000b270:	fff68893          	addi	a7,a3,-1
8000b274:	0d07fc63          	bgeu	a5,a6,8000b34c <__divdf3+0x468>
8000b278:	00088693          	mv	a3,a7
8000b27c:	40a787b3          	sub	a5,a5,a0
8000b280:	02b7d533          	divu	a0,a5,a1
8000b284:	02e50733          	mul	a4,a0,a4
8000b288:	02b7f7b3          	remu	a5,a5,a1
8000b28c:	02079793          	slli	a5,a5,0x20
8000b290:	02e7f663          	bgeu	a5,a4,8000b2bc <__divdf3+0x3d8>
8000b294:	010785b3          	add	a1,a5,a6
8000b298:	00f5b8b3          	sltu	a7,a1,a5
8000b29c:	fff50313          	addi	t1,a0,-1
8000b2a0:	00058793          	mv	a5,a1
8000b2a4:	00089a63          	bnez	a7,8000b2b8 <__divdf3+0x3d4>
8000b2a8:	00e5f863          	bgeu	a1,a4,8000b2b8 <__divdf3+0x3d4>
8000b2ac:	ffe50513          	addi	a0,a0,-2
8000b2b0:	010587b3          	add	a5,a1,a6
8000b2b4:	0080006f          	j	8000b2bc <__divdf3+0x3d8>
8000b2b8:	00030513          	mv	a0,t1
8000b2bc:	02069693          	slli	a3,a3,0x20
8000b2c0:	40e787b3          	sub	a5,a5,a4
8000b2c4:	00a6e6b3          	or	a3,a3,a0
8000b2c8:	00f037b3          	snez	a5,a5
8000b2cc:	00f6e933          	or	s2,a3,a5
8000b2d0:	ed1ff06f          	j	8000b1a0 <_ebss+0xffe0a490>
8000b2d4:	00195793          	srli	a5,s2,0x1
8000b2d8:	03f91913          	slli	s2,s2,0x3f
8000b2dc:	02b7d6b3          	divu	a3,a5,a1
8000b2e0:	02095913          	srli	s2,s2,0x20
8000b2e4:	02e68533          	mul	a0,a3,a4
8000b2e8:	f75ff06f          	j	8000b25c <_ebss+0xffe0a54c>
8000b2ec:	03f00793          	li	a5,63
8000b2f0:	00100713          	li	a4,1
8000b2f4:	00f917b3          	sll	a5,s2,a5
8000b2f8:	00f037b3          	snez	a5,a5
8000b2fc:	00e95733          	srl	a4,s2,a4
8000b300:	00f76733          	or	a4,a4,a5
8000b304:	00777793          	andi	a5,a4,7
8000b308:	00078a63          	beqz	a5,8000b31c <__divdf3+0x438>
8000b30c:	00f77793          	andi	a5,a4,15
8000b310:	00400693          	li	a3,4
8000b314:	00d78463          	beq	a5,a3,8000b31c <__divdf3+0x438>
8000b318:	00470713          	addi	a4,a4,4
8000b31c:	03775793          	srli	a5,a4,0x37
8000b320:	0017f793          	andi	a5,a5,1
8000b324:	02078c63          	beqz	a5,8000b35c <__divdf3+0x478>
8000b328:	00100793          	li	a5,1
8000b32c:	00000713          	li	a4,0
8000b330:	cbdff06f          	j	8000afec <_ebss+0xffe0a2dc>
8000b334:	000a8713          	mv	a4,s5
8000b338:	cfdff06f          	j	8000b034 <_ebss+0xffe0a324>
8000b33c:	00100713          	li	a4,1
8000b340:	00000613          	li	a2,0
8000b344:	03371713          	slli	a4,a4,0x33
8000b348:	ca5ff06f          	j	8000afec <_ebss+0xffe0a2dc>
8000b34c:	f2a7f6e3          	bgeu	a5,a0,8000b278 <_ebss+0xffe0a568>
8000b350:	ffe68693          	addi	a3,a3,-2
8000b354:	010787b3          	add	a5,a5,a6
8000b358:	f25ff06f          	j	8000b27c <_ebss+0xffe0a56c>
8000b35c:	00375713          	srli	a4,a4,0x3
8000b360:	04071713          	slli	a4,a4,0x40
8000b364:	04075713          	srli	a4,a4,0x40
8000b368:	c85ff06f          	j	8000afec <_ebss+0xffe0a2dc>
8000b36c:	000a8713          	mv	a4,s5
8000b370:	e05ff06f          	j	8000b174 <_ebss+0xffe0a464>

8000b374 <__eqdf2>:
8000b374:	04051513          	slli	a0,a0,0x40
8000b378:	04055513          	srli	a0,a0,0x40
8000b37c:	04059593          	slli	a1,a1,0x40
8000b380:	0405d593          	srli	a1,a1,0x40
8000b384:	03455713          	srli	a4,a0,0x34
8000b388:	fff00793          	li	a5,-1
8000b38c:	00c7d793          	srli	a5,a5,0xc
8000b390:	0345d693          	srli	a3,a1,0x34
8000b394:	7ff77713          	andi	a4,a4,2047
8000b398:	03f55613          	srli	a2,a0,0x3f
8000b39c:	03f5d813          	srli	a6,a1,0x3f
8000b3a0:	00f57533          	and	a0,a0,a5
8000b3a4:	00f5f5b3          	and	a1,a1,a5
8000b3a8:	7ff6f693          	andi	a3,a3,2047
8000b3ac:	07071713          	slli	a4,a4,0x70
8000b3b0:	04051793          	slli	a5,a0,0x40
8000b3b4:	00167613          	andi	a2,a2,1
8000b3b8:	00187813          	andi	a6,a6,1
8000b3bc:	04059593          	slli	a1,a1,0x40
8000b3c0:	07069693          	slli	a3,a3,0x70
8000b3c4:	07075713          	srli	a4,a4,0x70
8000b3c8:	7ff00893          	li	a7,2047
8000b3cc:	0407d793          	srli	a5,a5,0x40
8000b3d0:	0ff67613          	zext.b	a2,a2
8000b3d4:	0405d593          	srli	a1,a1,0x40
8000b3d8:	0706d693          	srli	a3,a3,0x70
8000b3dc:	0ff87813          	zext.b	a6,a6
8000b3e0:	00100513          	li	a0,1
8000b3e4:	01170c63          	beq	a4,a7,8000b3fc <__eqdf2+0x88>
8000b3e8:	01168863          	beq	a3,a7,8000b3f8 <__eqdf2+0x84>
8000b3ec:	00d71463          	bne	a4,a3,8000b3f4 <__eqdf2+0x80>
8000b3f0:	02b78263          	beq	a5,a1,8000b414 <__eqdf2+0xa0>
8000b3f4:	00008067          	ret
8000b3f8:	00008067          	ret
8000b3fc:	fe079ce3          	bnez	a5,8000b3f4 <_ebss+0xffe0a6e4>
8000b400:	fee69ae3          	bne	a3,a4,8000b3f4 <_ebss+0xffe0a6e4>
8000b404:	fe0598e3          	bnez	a1,8000b3f4 <_ebss+0xffe0a6e4>
8000b408:	01064633          	xor	a2,a2,a6
8000b40c:	0ff67513          	zext.b	a0,a2
8000b410:	00008067          	ret
8000b414:	00000513          	li	a0,0
8000b418:	fd060ee3          	beq	a2,a6,8000b3f4 <_ebss+0xffe0a6e4>
8000b41c:	00100513          	li	a0,1
8000b420:	fc071ae3          	bnez	a4,8000b3f4 <_ebss+0xffe0a6e4>
8000b424:	00f03533          	snez	a0,a5
8000b428:	00008067          	ret

8000b42c <__gedf2>:
8000b42c:	04051513          	slli	a0,a0,0x40
8000b430:	04055513          	srli	a0,a0,0x40
8000b434:	04059593          	slli	a1,a1,0x40
8000b438:	0405d593          	srli	a1,a1,0x40
8000b43c:	03455693          	srli	a3,a0,0x34
8000b440:	fff00793          	li	a5,-1
8000b444:	00c7d793          	srli	a5,a5,0xc
8000b448:	0345d713          	srli	a4,a1,0x34
8000b44c:	7ff6f693          	andi	a3,a3,2047
8000b450:	03f55613          	srli	a2,a0,0x3f
8000b454:	03f5d813          	srli	a6,a1,0x3f
8000b458:	00f57533          	and	a0,a0,a5
8000b45c:	00f5f5b3          	and	a1,a1,a5
8000b460:	7ff77713          	andi	a4,a4,2047
8000b464:	07069693          	slli	a3,a3,0x70
8000b468:	04051793          	slli	a5,a0,0x40
8000b46c:	00167613          	andi	a2,a2,1
8000b470:	00187813          	andi	a6,a6,1
8000b474:	04059593          	slli	a1,a1,0x40
8000b478:	07071513          	slli	a0,a4,0x70
8000b47c:	0706d693          	srli	a3,a3,0x70
8000b480:	7ff00893          	li	a7,2047
8000b484:	0407d793          	srli	a5,a5,0x40
8000b488:	0ff67613          	zext.b	a2,a2
8000b48c:	0405d593          	srli	a1,a1,0x40
8000b490:	07055513          	srli	a0,a0,0x70
8000b494:	0ff87813          	zext.b	a6,a6
8000b498:	05168063          	beq	a3,a7,8000b4d8 <__gedf2+0xac>
8000b49c:	03150063          	beq	a0,a7,8000b4bc <__gedf2+0x90>
8000b4a0:	04069663          	bnez	a3,8000b4ec <__gedf2+0xc0>
8000b4a4:	02051063          	bnez	a0,8000b4c4 <__gedf2+0x98>
8000b4a8:	06058263          	beqz	a1,8000b50c <__gedf2+0xe0>
8000b4ac:	08079463          	bnez	a5,8000b534 <__gedf2+0x108>
8000b4b0:	06080a63          	beqz	a6,8000b524 <__gedf2+0xf8>
8000b4b4:	00080513          	mv	a0,a6
8000b4b8:	00008067          	ret
8000b4bc:	06059863          	bnez	a1,8000b52c <__gedf2+0x100>
8000b4c0:	00069463          	bnez	a3,8000b4c8 <__gedf2+0x9c>
8000b4c4:	fe0786e3          	beqz	a5,8000b4b0 <_ebss+0xffe0a7a0>
8000b4c8:	01061c63          	bne	a2,a6,8000b4e0 <__gedf2+0xb4>
8000b4cc:	04060c63          	beqz	a2,8000b524 <__gedf2+0xf8>
8000b4d0:	00060513          	mv	a0,a2
8000b4d4:	00008067          	ret
8000b4d8:	04079a63          	bnez	a5,8000b52c <__gedf2+0x100>
8000b4dc:	02d50c63          	beq	a0,a3,8000b514 <__gedf2+0xe8>
8000b4e0:	00100513          	li	a0,1
8000b4e4:	04061063          	bnez	a2,8000b524 <__gedf2+0xf8>
8000b4e8:	00008067          	ret
8000b4ec:	fe050ae3          	beqz	a0,8000b4e0 <_ebss+0xffe0a7d0>
8000b4f0:	ff0618e3          	bne	a2,a6,8000b4e0 <_ebss+0xffe0a7d0>
8000b4f4:	fed546e3          	blt	a0,a3,8000b4e0 <_ebss+0xffe0a7d0>
8000b4f8:	fca6cae3          	blt	a3,a0,8000b4cc <_ebss+0xffe0a7bc>
8000b4fc:	fef5e2e3          	bltu	a1,a5,8000b4e0 <_ebss+0xffe0a7d0>
8000b500:	00000513          	li	a0,0
8000b504:	fcb7e4e3          	bltu	a5,a1,8000b4cc <_ebss+0xffe0a7bc>
8000b508:	00008067          	ret
8000b50c:	fc079ae3          	bnez	a5,8000b4e0 <_ebss+0xffe0a7d0>
8000b510:	00008067          	ret
8000b514:	00059c63          	bnez	a1,8000b52c <__gedf2+0x100>
8000b518:	fd0614e3          	bne	a2,a6,8000b4e0 <_ebss+0xffe0a7d0>
8000b51c:	00000513          	li	a0,0
8000b520:	00008067          	ret
8000b524:	fff00513          	li	a0,-1
8000b528:	00008067          	ret
8000b52c:	ffe00513          	li	a0,-2
8000b530:	00008067          	ret
8000b534:	fd0604e3          	beq	a2,a6,8000b4fc <_ebss+0xffe0a7ec>
8000b538:	fa9ff06f          	j	8000b4e0 <_ebss+0xffe0a7d0>

8000b53c <__ledf2>:
8000b53c:	04051513          	slli	a0,a0,0x40
8000b540:	04055513          	srli	a0,a0,0x40
8000b544:	04059593          	slli	a1,a1,0x40
8000b548:	0405d593          	srli	a1,a1,0x40
8000b54c:	03455693          	srli	a3,a0,0x34
8000b550:	fff00793          	li	a5,-1
8000b554:	00c7d793          	srli	a5,a5,0xc
8000b558:	0345d713          	srli	a4,a1,0x34
8000b55c:	7ff6f693          	andi	a3,a3,2047
8000b560:	03f55613          	srli	a2,a0,0x3f
8000b564:	03f5d813          	srli	a6,a1,0x3f
8000b568:	00f57533          	and	a0,a0,a5
8000b56c:	00f5f5b3          	and	a1,a1,a5
8000b570:	7ff77713          	andi	a4,a4,2047
8000b574:	07069693          	slli	a3,a3,0x70
8000b578:	04051793          	slli	a5,a0,0x40
8000b57c:	00167613          	andi	a2,a2,1
8000b580:	00187813          	andi	a6,a6,1
8000b584:	04059593          	slli	a1,a1,0x40
8000b588:	07071513          	slli	a0,a4,0x70
8000b58c:	0706d693          	srli	a3,a3,0x70
8000b590:	7ff00893          	li	a7,2047
8000b594:	0407d793          	srli	a5,a5,0x40
8000b598:	0ff67613          	zext.b	a2,a2
8000b59c:	0405d593          	srli	a1,a1,0x40
8000b5a0:	07055513          	srli	a0,a0,0x70
8000b5a4:	0ff87813          	zext.b	a6,a6
8000b5a8:	05168263          	beq	a3,a7,8000b5ec <__ledf2+0xb0>
8000b5ac:	03150063          	beq	a0,a7,8000b5cc <__ledf2+0x90>
8000b5b0:	04069c63          	bnez	a3,8000b608 <__ledf2+0xcc>
8000b5b4:	02051263          	bnez	a0,8000b5d8 <__ledf2+0x9c>
8000b5b8:	06058c63          	beqz	a1,8000b630 <__ledf2+0xf4>
8000b5bc:	08079663          	bnez	a5,8000b648 <__ledf2+0x10c>
8000b5c0:	08080063          	beqz	a6,8000b640 <__ledf2+0x104>
8000b5c4:	00080513          	mv	a0,a6
8000b5c8:	00008067          	ret
8000b5cc:	00200513          	li	a0,2
8000b5d0:	00059c63          	bnez	a1,8000b5e8 <__ledf2+0xac>
8000b5d4:	00069463          	bnez	a3,8000b5dc <__ledf2+0xa0>
8000b5d8:	fe0784e3          	beqz	a5,8000b5c0 <_ebss+0xffe0a8b0>
8000b5dc:	05060463          	beq	a2,a6,8000b624 <__ledf2+0xe8>
8000b5e0:	00100513          	li	a0,1
8000b5e4:	04061e63          	bnez	a2,8000b640 <__ledf2+0x104>
8000b5e8:	00008067          	ret
8000b5ec:	04079663          	bnez	a5,8000b638 <__ledf2+0xfc>
8000b5f0:	fed518e3          	bne	a0,a3,8000b5e0 <_ebss+0xffe0a8d0>
8000b5f4:	00200513          	li	a0,2
8000b5f8:	fe0598e3          	bnez	a1,8000b5e8 <_ebss+0xffe0a8d8>
8000b5fc:	ff0612e3          	bne	a2,a6,8000b5e0 <_ebss+0xffe0a8d0>
8000b600:	00000513          	li	a0,0
8000b604:	00008067          	ret
8000b608:	fc050ce3          	beqz	a0,8000b5e0 <_ebss+0xffe0a8d0>
8000b60c:	fd061ae3          	bne	a2,a6,8000b5e0 <_ebss+0xffe0a8d0>
8000b610:	fcd548e3          	blt	a0,a3,8000b5e0 <_ebss+0xffe0a8d0>
8000b614:	00a6c863          	blt	a3,a0,8000b624 <__ledf2+0xe8>
8000b618:	fcf5e4e3          	bltu	a1,a5,8000b5e0 <_ebss+0xffe0a8d0>
8000b61c:	00000513          	li	a0,0
8000b620:	fcb7f4e3          	bgeu	a5,a1,8000b5e8 <_ebss+0xffe0a8d8>
8000b624:	00060e63          	beqz	a2,8000b640 <__ledf2+0x104>
8000b628:	00060513          	mv	a0,a2
8000b62c:	00008067          	ret
8000b630:	fa0798e3          	bnez	a5,8000b5e0 <_ebss+0xffe0a8d0>
8000b634:	00008067          	ret
8000b638:	00200513          	li	a0,2
8000b63c:	00008067          	ret
8000b640:	fff00513          	li	a0,-1
8000b644:	00008067          	ret
8000b648:	fd0608e3          	beq	a2,a6,8000b618 <_ebss+0xffe0a908>
8000b64c:	f95ff06f          	j	8000b5e0 <_ebss+0xffe0a8d0>

8000b650 <__muldf3>:
8000b650:	04051713          	slli	a4,a0,0x40
8000b654:	04075713          	srli	a4,a4,0x40
8000b658:	03475793          	srli	a5,a4,0x34
8000b65c:	7ff7f793          	andi	a5,a5,2047
8000b660:	f7010113          	addi	sp,sp,-144
8000b664:	03f75713          	srli	a4,a4,0x3f
8000b668:	07079793          	slli	a5,a5,0x70
8000b66c:	03414823          	sq	s4,48(sp)
8000b670:	03514023          	sq	s5,32(sp)
8000b674:	00177713          	andi	a4,a4,1
8000b678:	04051a13          	slli	s4,a0,0x40
8000b67c:	08114023          	sq	ra,128(sp)
8000b680:	06814823          	sq	s0,112(sp)
8000b684:	06914023          	sq	s1,96(sp)
8000b688:	05214823          	sq	s2,80(sp)
8000b68c:	05314023          	sq	s3,64(sp)
8000b690:	01614823          	sq	s6,16(sp)
8000b694:	0707d793          	srli	a5,a5,0x70
8000b698:	040a5a13          	srli	s4,s4,0x40
8000b69c:	0ff77a93          	zext.b	s5,a4
8000b6a0:	1e078c63          	beqz	a5,8000b898 <__muldf3+0x248>
8000b6a4:	0007869b          	sext.w	a3,a5
8000b6a8:	7ff00713          	li	a4,2047
8000b6ac:	20e68063          	beq	a3,a4,8000b8ac <__muldf3+0x25c>
8000b6b0:	00100713          	li	a4,1
8000b6b4:	003a1a13          	slli	s4,s4,0x3
8000b6b8:	03771713          	slli	a4,a4,0x37
8000b6bc:	00ea6a33          	or	s4,s4,a4
8000b6c0:	c0178993          	addi	s3,a5,-1023
8000b6c4:	00000493          	li	s1,0
8000b6c8:	00000b13          	li	s6,0
8000b6cc:	04059713          	slli	a4,a1,0x40
8000b6d0:	04075713          	srli	a4,a4,0x40
8000b6d4:	03475793          	srli	a5,a4,0x34
8000b6d8:	7ff7f793          	andi	a5,a5,2047
8000b6dc:	03f75913          	srli	s2,a4,0x3f
8000b6e0:	07079793          	slli	a5,a5,0x70
8000b6e4:	00197913          	andi	s2,s2,1
8000b6e8:	0707d793          	srli	a5,a5,0x70
8000b6ec:	00070413          	mv	s0,a4
8000b6f0:	0ff97913          	zext.b	s2,s2
8000b6f4:	16078c63          	beqz	a5,8000b86c <__muldf3+0x21c>
8000b6f8:	0007869b          	sext.w	a3,a5
8000b6fc:	7ff00713          	li	a4,2047
8000b700:	12e68a63          	beq	a3,a4,8000b834 <__muldf3+0x1e4>
8000b704:	00100713          	li	a4,1
8000b708:	c0178793          	addi	a5,a5,-1023
8000b70c:	00341413          	slli	s0,s0,0x3
8000b710:	03771713          	slli	a4,a4,0x37
8000b714:	00f989b3          	add	s3,s3,a5
8000b718:	00e46433          	or	s0,s0,a4
8000b71c:	00000793          	li	a5,0
8000b720:	012ac6b3          	xor	a3,s5,s2
8000b724:	0ff6f693          	zext.b	a3,a3
8000b728:	00a00713          	li	a4,10
8000b72c:	00068613          	mv	a2,a3
8000b730:	00198593          	addi	a1,s3,1
8000b734:	14974e63          	blt	a4,s1,8000b890 <__muldf3+0x240>
8000b738:	00200713          	li	a4,2
8000b73c:	06974c63          	blt	a4,s1,8000b7b4 <__muldf3+0x164>
8000b740:	fff48493          	addi	s1,s1,-1
8000b744:	00100513          	li	a0,1
8000b748:	26956463          	bltu	a0,s1,8000b9b0 <__muldf3+0x360>
8000b74c:	0ce78263          	beq	a5,a4,8000b810 <__muldf3+0x1c0>
8000b750:	0016f693          	andi	a3,a3,1
8000b754:	00100713          	li	a4,1
8000b758:	0ff6f613          	zext.b	a2,a3
8000b75c:	16e79263          	bne	a5,a4,8000b8c0 <__muldf3+0x270>
8000b760:	00000793          	li	a5,0
8000b764:	00000713          	li	a4,0
8000b768:	0801208f          	lq	ra,128(sp)
8000b76c:	0701240f          	lq	s0,112(sp)
8000b770:	034797db          	sllid	a5,a5,0x34
8000b774:	00f76733          	or	a4,a4,a5
8000b778:	03f6165b          	sllid	a2,a2,0x3f
8000b77c:	0601248f          	lq	s1,96(sp)
8000b780:	0501290f          	lq	s2,80(sp)
8000b784:	0401298f          	lq	s3,64(sp)
8000b788:	03012a0f          	lq	s4,48(sp)
8000b78c:	02012a8f          	lq	s5,32(sp)
8000b790:	01012b0f          	lq	s6,16(sp)
8000b794:	00c76533          	or	a0,a4,a2
8000b798:	09010113          	addi	sp,sp,144
8000b79c:	00008067          	ret
8000b7a0:	012ac733          	xor	a4,s5,s2
8000b7a4:	0ff77613          	zext.b	a2,a4
8000b7a8:	00060693          	mv	a3,a2
8000b7ac:	00050993          	mv	s3,a0
8000b7b0:	00300793          	li	a5,3
8000b7b4:	00100713          	li	a4,1
8000b7b8:	009714b3          	sll	s1,a4,s1
8000b7bc:	5304f513          	andi	a0,s1,1328
8000b7c0:	02050863          	beqz	a0,8000b7f0 <__muldf3+0x1a0>
8000b7c4:	00200793          	li	a5,2
8000b7c8:	04fb0463          	beq	s6,a5,8000b810 <__muldf3+0x1c0>
8000b7cc:	00300793          	li	a5,3
8000b7d0:	1cfb0663          	beq	s6,a5,8000b99c <__muldf3+0x34c>
8000b7d4:	0016f693          	andi	a3,a3,1
8000b7d8:	000b0793          	mv	a5,s6
8000b7dc:	00100713          	li	a4,1
8000b7e0:	000a0413          	mv	s0,s4
8000b7e4:	0ff6f613          	zext.b	a2,a3
8000b7e8:	f6e78ce3          	beq	a5,a4,8000b760 <_ebss+0xffe0aa50>
8000b7ec:	0d40006f          	j	8000b8c0 <__muldf3+0x270>
8000b7f0:	2404f693          	andi	a3,s1,576
8000b7f4:	02069863          	bnez	a3,8000b824 <__muldf3+0x1d4>
8000b7f8:	0884f493          	andi	s1,s1,136
8000b7fc:	1a048a63          	beqz	s1,8000b9b0 <__muldf3+0x360>
8000b800:	00090693          	mv	a3,s2
8000b804:	00040a13          	mv	s4,s0
8000b808:	00078b13          	mv	s6,a5
8000b80c:	fb9ff06f          	j	8000b7c4 <_ebss+0xffe0aab4>
8000b810:	0016f693          	andi	a3,a3,1
8000b814:	0ff6f613          	zext.b	a2,a3
8000b818:	7ff00793          	li	a5,2047
8000b81c:	00000713          	li	a4,0
8000b820:	f49ff06f          	j	8000b768 <_ebss+0xffe0aa58>
8000b824:	00000613          	li	a2,0
8000b828:	7ff00793          	li	a5,2047
8000b82c:	03371713          	slli	a4,a4,0x33
8000b830:	f39ff06f          	j	8000b768 <_ebss+0xffe0aa58>
8000b834:	7ff98513          	addi	a0,s3,2047
8000b838:	14040a63          	beqz	s0,8000b98c <__muldf3+0x33c>
8000b83c:	000015b7          	lui	a1,0x1
8000b840:	80058593          	addi	a1,a1,-2048 # 800 <UART_BASE-0xffff800>
8000b844:	0034e493          	ori	s1,s1,3
8000b848:	00a00713          	li	a4,10
8000b84c:	00b985b3          	add	a1,s3,a1
8000b850:	f49758e3          	bge	a4,s1,8000b7a0 <_ebss+0xffe0aa90>
8000b854:	00f00713          	li	a4,15
8000b858:	26e49a63          	bne	s1,a4,8000bacc <__muldf3+0x47c>
8000b85c:	00100713          	li	a4,1
8000b860:	00000613          	li	a2,0
8000b864:	03371713          	slli	a4,a4,0x33
8000b868:	f01ff06f          	j	8000b768 <_ebss+0xffe0aa58>
8000b86c:	0e071e63          	bnez	a4,8000b968 <__muldf3+0x318>
8000b870:	012ac6b3          	xor	a3,s5,s2
8000b874:	0ff6f693          	zext.b	a3,a3
8000b878:	0014e493          	ori	s1,s1,1
8000b87c:	00a00713          	li	a4,10
8000b880:	00100793          	li	a5,1
8000b884:	00068613          	mv	a2,a3
8000b888:	00198593          	addi	a1,s3,1
8000b88c:	ea9756e3          	bge	a4,s1,8000b738 <_ebss+0xffe0aa28>
8000b890:	000a8693          	mv	a3,s5
8000b894:	f31ff06f          	j	8000b7c4 <_ebss+0xffe0aab4>
8000b898:	0a0a1063          	bnez	s4,8000b938 <__muldf3+0x2e8>
8000b89c:	00400493          	li	s1,4
8000b8a0:	00000993          	li	s3,0
8000b8a4:	00100b13          	li	s6,1
8000b8a8:	e25ff06f          	j	8000b6cc <_ebss+0xffe0a9bc>
8000b8ac:	060a1e63          	bnez	s4,8000b928 <__muldf3+0x2d8>
8000b8b0:	00800493          	li	s1,8
8000b8b4:	7ff00993          	li	s3,2047
8000b8b8:	00200b13          	li	s6,2
8000b8bc:	e11ff06f          	j	8000b6cc <_ebss+0xffe0a9bc>
8000b8c0:	00058993          	mv	s3,a1
8000b8c4:	3ff98793          	addi	a5,s3,1023
8000b8c8:	16f05a63          	blez	a5,8000ba3c <__muldf3+0x3ec>
8000b8cc:	00747713          	andi	a4,s0,7
8000b8d0:	00070a63          	beqz	a4,8000b8e4 <__muldf3+0x294>
8000b8d4:	00f47713          	andi	a4,s0,15
8000b8d8:	00400693          	li	a3,4
8000b8dc:	00d70463          	beq	a4,a3,8000b8e4 <__muldf3+0x294>
8000b8e0:	00440413          	addi	s0,s0,4
8000b8e4:	03845713          	srli	a4,s0,0x38
8000b8e8:	00177713          	andi	a4,a4,1
8000b8ec:	00070c63          	beqz	a4,8000b904 <__muldf3+0x2b4>
8000b8f0:	fff00793          	li	a5,-1
8000b8f4:	03879793          	slli	a5,a5,0x38
8000b8f8:	fff78793          	addi	a5,a5,-1
8000b8fc:	00f47433          	and	s0,s0,a5
8000b900:	40098793          	addi	a5,s3,1024
8000b904:	7fe00713          	li	a4,2046
8000b908:	16f74063          	blt	a4,a5,8000ba68 <__muldf3+0x418>
8000b90c:	00345713          	srli	a4,s0,0x3
8000b910:	7ff7f793          	andi	a5,a5,2047
8000b914:	04071713          	slli	a4,a4,0x40
8000b918:	07079793          	slli	a5,a5,0x70
8000b91c:	04075713          	srli	a4,a4,0x40
8000b920:	0707d793          	srli	a5,a5,0x70
8000b924:	e45ff06f          	j	8000b768 <_ebss+0xffe0aa58>
8000b928:	00c00493          	li	s1,12
8000b92c:	7ff00993          	li	s3,2047
8000b930:	00300b13          	li	s6,3
8000b934:	d99ff06f          	j	8000b6cc <_ebss+0xffe0a9bc>
8000b938:	000a0513          	mv	a0,s4
8000b93c:	00b13423          	sd	a1,8(sp)
8000b940:	311000ef          	jal	8000c450 <__clzti2>
8000b944:	0005071b          	sext.w	a4,a0
8000b948:	c0d00793          	li	a5,-1011
8000b94c:	ff85051b          	addw	a0,a0,-8
8000b950:	00813583          	ld	a1,8(sp)
8000b954:	00aa1a33          	sll	s4,s4,a0
8000b958:	40e789b3          	sub	s3,a5,a4
8000b95c:	00000493          	li	s1,0
8000b960:	00000b13          	li	s6,0
8000b964:	d69ff06f          	j	8000b6cc <_ebss+0xffe0a9bc>
8000b968:	00070513          	mv	a0,a4
8000b96c:	2e5000ef          	jal	8000c450 <__clzti2>
8000b970:	0005079b          	sext.w	a5,a0
8000b974:	40f987b3          	sub	a5,s3,a5
8000b978:	ff85051b          	addw	a0,a0,-8
8000b97c:	c0d78993          	addi	s3,a5,-1011
8000b980:	00a41433          	sll	s0,s0,a0
8000b984:	00000793          	li	a5,0
8000b988:	d99ff06f          	j	8000b720 <_ebss+0xffe0aa10>
8000b98c:	0024e493          	ori	s1,s1,2
8000b990:	00050993          	mv	s3,a0
8000b994:	00200793          	li	a5,2
8000b998:	d89ff06f          	j	8000b720 <_ebss+0xffe0aa10>
8000b99c:	00100713          	li	a4,1
8000b9a0:	00000613          	li	a2,0
8000b9a4:	7ff00793          	li	a5,2047
8000b9a8:	03371713          	slli	a4,a4,0x33
8000b9ac:	dbdff06f          	j	8000b768 <_ebss+0xffe0aa58>
8000b9b0:	fff00793          	li	a5,-1
8000b9b4:	0207d793          	srli	a5,a5,0x20
8000b9b8:	00f47733          	and	a4,s0,a5
8000b9bc:	00fa7533          	and	a0,s4,a5
8000b9c0:	02045413          	srli	s0,s0,0x20
8000b9c4:	02a706b3          	mul	a3,a4,a0
8000b9c8:	00f47433          	and	s0,s0,a5
8000b9cc:	020a5a13          	srli	s4,s4,0x20
8000b9d0:	00fa7a33          	and	s4,s4,a5
8000b9d4:	02a40533          	mul	a0,s0,a0
8000b9d8:	0206d813          	srli	a6,a3,0x20
8000b9dc:	00f6f6b3          	and	a3,a3,a5
8000b9e0:	03470733          	mul	a4,a4,s4
8000b9e4:	00a80533          	add	a0,a6,a0
8000b9e8:	03440433          	mul	s0,s0,s4
8000b9ec:	00a70733          	add	a4,a4,a0
8000b9f0:	00f777b3          	and	a5,a4,a5
8000b9f4:	02079793          	slli	a5,a5,0x20
8000b9f8:	02075713          	srli	a4,a4,0x20
8000b9fc:	00d787b3          	add	a5,a5,a3
8000ba00:	0377d693          	srli	a3,a5,0x37
8000ba04:	00979793          	slli	a5,a5,0x9
8000ba08:	00f037b3          	snez	a5,a5
8000ba0c:	00870733          	add	a4,a4,s0
8000ba10:	00971713          	slli	a4,a4,0x9
8000ba14:	00d76733          	or	a4,a4,a3
8000ba18:	00f76433          	or	s0,a4,a5
8000ba1c:	03845793          	srli	a5,s0,0x38
8000ba20:	0017f793          	andi	a5,a5,1
8000ba24:	ea0780e3          	beqz	a5,8000b8c4 <_ebss+0xffe0abb4>
8000ba28:	00145793          	srli	a5,s0,0x1
8000ba2c:	00147413          	andi	s0,s0,1
8000ba30:	0087e433          	or	s0,a5,s0
8000ba34:	00058993          	mv	s3,a1
8000ba38:	e8dff06f          	j	8000b8c4 <_ebss+0xffe0abb4>
8000ba3c:	02078c63          	beqz	a5,8000ba74 <__muldf3+0x424>
8000ba40:	00100693          	li	a3,1
8000ba44:	40f686b3          	sub	a3,a3,a5
8000ba48:	03800593          	li	a1,56
8000ba4c:	00000793          	li	a5,0
8000ba50:	00000713          	li	a4,0
8000ba54:	d0d5cae3          	blt	a1,a3,8000b768 <_ebss+0xffe0aa58>
8000ba58:	04000793          	li	a5,64
8000ba5c:	0006871b          	sext.w	a4,a3
8000ba60:	40d787bb          	subw	a5,a5,a3
8000ba64:	0180006f          	j	8000ba7c <__muldf3+0x42c>
8000ba68:	7ff00793          	li	a5,2047
8000ba6c:	00000713          	li	a4,0
8000ba70:	cf9ff06f          	j	8000b768 <_ebss+0xffe0aa58>
8000ba74:	03f00793          	li	a5,63
8000ba78:	00100713          	li	a4,1
8000ba7c:	00f417b3          	sll	a5,s0,a5
8000ba80:	00f037b3          	snez	a5,a5
8000ba84:	00e45733          	srl	a4,s0,a4
8000ba88:	00f76733          	or	a4,a4,a5
8000ba8c:	00777793          	andi	a5,a4,7
8000ba90:	00078a63          	beqz	a5,8000baa4 <__muldf3+0x454>
8000ba94:	00f77793          	andi	a5,a4,15
8000ba98:	00400693          	li	a3,4
8000ba9c:	00d78463          	beq	a5,a3,8000baa4 <__muldf3+0x454>
8000baa0:	00470713          	addi	a4,a4,4
8000baa4:	03775793          	srli	a5,a4,0x37
8000baa8:	0017f793          	andi	a5,a5,1
8000baac:	00078863          	beqz	a5,8000babc <__muldf3+0x46c>
8000bab0:	00100793          	li	a5,1
8000bab4:	00000713          	li	a4,0
8000bab8:	cb1ff06f          	j	8000b768 <_ebss+0xffe0aa58>
8000babc:	00375713          	srli	a4,a4,0x3
8000bac0:	04071713          	slli	a4,a4,0x40
8000bac4:	04075713          	srli	a4,a4,0x40
8000bac8:	ca1ff06f          	j	8000b768 <_ebss+0xffe0aa58>
8000bacc:	00300793          	li	a5,3
8000bad0:	d31ff06f          	j	8000b800 <_ebss+0xffe0aaf0>

8000bad4 <__subdf3>:
8000bad4:	04059593          	slli	a1,a1,0x40
8000bad8:	0405d593          	srli	a1,a1,0x40
8000badc:	04051513          	slli	a0,a0,0x40
8000bae0:	fff00793          	li	a5,-1
8000bae4:	fc010113          	addi	sp,sp,-64
8000bae8:	04055513          	srli	a0,a0,0x40
8000baec:	00c7d793          	srli	a5,a5,0xc
8000baf0:	0345d713          	srli	a4,a1,0x34
8000baf4:	00f576b3          	and	a3,a0,a5
8000baf8:	02814023          	sq	s0,32(sp)
8000bafc:	00f5f7b3          	and	a5,a1,a5
8000bb00:	03455413          	srli	s0,a0,0x34
8000bb04:	00914823          	sq	s1,16(sp)
8000bb08:	7ff77713          	andi	a4,a4,2047
8000bb0c:	03f55493          	srli	s1,a0,0x3f
8000bb10:	0014f493          	andi	s1,s1,1
8000bb14:	04069513          	slli	a0,a3,0x40
8000bb18:	03f5d593          	srli	a1,a1,0x3f
8000bb1c:	7ff47413          	andi	s0,s0,2047
8000bb20:	04079793          	slli	a5,a5,0x40
8000bb24:	07071713          	slli	a4,a4,0x70
8000bb28:	04055513          	srli	a0,a0,0x40
8000bb2c:	0ff4f493          	zext.b	s1,s1
8000bb30:	0407d793          	srli	a5,a5,0x40
8000bb34:	0015f593          	andi	a1,a1,1
8000bb38:	07041413          	slli	s0,s0,0x70
8000bb3c:	02114823          	sq	ra,48(sp)
8000bb40:	01214023          	sq	s2,0(sp)
8000bb44:	07075713          	srli	a4,a4,0x70
8000bb48:	7ff00813          	li	a6,2047
8000bb4c:	07045413          	srli	s0,s0,0x70
8000bb50:	00048693          	mv	a3,s1
8000bb54:	00351513          	slli	a0,a0,0x3
8000bb58:	0ff5f593          	zext.b	a1,a1
8000bb5c:	00379793          	slli	a5,a5,0x3
8000bb60:	17070663          	beq	a4,a6,8000bccc <__subdf3+0x1f8>
8000bb64:	0015c593          	xor	a1,a1,1
8000bb68:	0ff5f313          	zext.b	t1,a1
8000bb6c:	40e4063b          	subw	a2,s0,a4
8000bb70:	10648463          	beq	s1,t1,8000bc78 <__subdf3+0x1a4>
8000bb74:	3cc05463          	blez	a2,8000bf3c <__subdf3+0x468>
8000bb78:	26071663          	bnez	a4,8000bde4 <__subdf3+0x310>
8000bb7c:	06078c63          	beqz	a5,8000bbf4 <__subdf3+0x120>
8000bb80:	fff6061b          	addw	a2,a2,-1
8000bb84:	3c060c63          	beqz	a2,8000bf5c <__subdf3+0x488>
8000bb88:	07040663          	beq	s0,a6,8000bbf4 <__subdf3+0x120>
8000bb8c:	03800693          	li	a3,56
8000bb90:	00100713          	li	a4,1
8000bb94:	00c6c663          	blt	a3,a2,8000bba0 <__subdf3+0xcc>
8000bb98:	00c7d633          	srl	a2,a5,a2
8000bb9c:	00166713          	ori	a4,a2,1
8000bba0:	40e50533          	sub	a0,a0,a4
8000bba4:	03755793          	srli	a5,a0,0x37
8000bba8:	0017f793          	andi	a5,a5,1
8000bbac:	0e078463          	beqz	a5,8000bc94 <__subdf3+0x1c0>
8000bbb0:	fff00913          	li	s2,-1
8000bbb4:	00995913          	srli	s2,s2,0x9
8000bbb8:	01257933          	and	s2,a0,s2
8000bbbc:	00090513          	mv	a0,s2
8000bbc0:	091000ef          	jal	8000c450 <__clzti2>
8000bbc4:	ff85079b          	addw	a5,a0,-8
8000bbc8:	00f91933          	sll	s2,s2,a5
8000bbcc:	2687c063          	blt	a5,s0,8000be2c <__subdf3+0x358>
8000bbd0:	4087853b          	subw	a0,a5,s0
8000bbd4:	0015079b          	addw	a5,a0,1
8000bbd8:	04000513          	li	a0,64
8000bbdc:	40f5053b          	subw	a0,a0,a5
8000bbe0:	00a91533          	sll	a0,s2,a0
8000bbe4:	00a03533          	snez	a0,a0
8000bbe8:	00f95933          	srl	s2,s2,a5
8000bbec:	00a96533          	or	a0,s2,a0
8000bbf0:	00000413          	li	s0,0
8000bbf4:	00757793          	andi	a5,a0,7
8000bbf8:	00078a63          	beqz	a5,8000bc0c <__subdf3+0x138>
8000bbfc:	00f57793          	andi	a5,a0,15
8000bc00:	00400713          	li	a4,4
8000bc04:	00e78463          	beq	a5,a4,8000bc0c <__subdf3+0x138>
8000bc08:	00450513          	addi	a0,a0,4
8000bc0c:	03755793          	srli	a5,a0,0x37
8000bc10:	0017f793          	andi	a5,a5,1
8000bc14:	08078463          	beqz	a5,8000bc9c <__subdf3+0x1c8>
8000bc18:	0014f493          	andi	s1,s1,1
8000bc1c:	00140413          	addi	s0,s0,1
8000bc20:	7ff00793          	li	a5,2047
8000bc24:	0ff4f693          	zext.b	a3,s1
8000bc28:	12f40463          	beq	s0,a5,8000bd50 <__subdf3+0x27c>
8000bc2c:	00355513          	srli	a0,a0,0x3
8000bc30:	00002797          	auipc	a5,0x2
8000bc34:	b907a78f          	lq	a5,-1136(a5) # 8000d7c0 <_ctype_+0x120>
8000bc38:	7ff47413          	andi	s0,s0,2047
8000bc3c:	00f57533          	and	a0,a0,a5
8000bc40:	07041413          	slli	s0,s0,0x70
8000bc44:	04051513          	slli	a0,a0,0x40
8000bc48:	07045413          	srli	s0,s0,0x70
8000bc4c:	04055513          	srli	a0,a0,0x40
8000bc50:	0344145b          	sllid	s0,s0,0x34
8000bc54:	0301208f          	lq	ra,48(sp)
8000bc58:	00856533          	or	a0,a0,s0
8000bc5c:	0201240f          	lq	s0,32(sp)
8000bc60:	03f697db          	sllid	a5,a3,0x3f
8000bc64:	0101248f          	lq	s1,16(sp)
8000bc68:	0001290f          	lq	s2,0(sp)
8000bc6c:	00f56533          	or	a0,a0,a5
8000bc70:	04010113          	addi	sp,sp,64
8000bc74:	00008067          	ret
8000bc78:	0ec05e63          	blez	a2,8000bd74 <__subdf3+0x2a0>
8000bc7c:	1c071463          	bnez	a4,8000be44 <__subdf3+0x370>
8000bc80:	f6078ae3          	beqz	a5,8000bbf4 <_ebss+0xffe0aee4>
8000bc84:	fff6061b          	addw	a2,a2,-1
8000bc88:	2a060663          	beqz	a2,8000bf34 <__subdf3+0x460>
8000bc8c:	1d041463          	bne	s0,a6,8000be54 <__subdf3+0x380>
8000bc90:	f65ff06f          	j	8000bbf4 <_ebss+0xffe0aee4>
8000bc94:	00757793          	andi	a5,a0,7
8000bc98:	f60792e3          	bnez	a5,8000bbfc <_ebss+0xffe0aeec>
8000bc9c:	7ff00793          	li	a5,2047
8000bca0:	00355513          	srli	a0,a0,0x3
8000bca4:	08f41663          	bne	s0,a5,8000bd30 <__subdf3+0x25c>
8000bca8:	0014f493          	andi	s1,s1,1
8000bcac:	0ff4f693          	zext.b	a3,s1
8000bcb0:	7ff00413          	li	s0,2047
8000bcb4:	f8050ee3          	beqz	a0,8000bc50 <_ebss+0xffe0af40>
8000bcb8:	00100513          	li	a0,1
8000bcbc:	00000693          	li	a3,0
8000bcc0:	7ff00413          	li	s0,2047
8000bcc4:	03351513          	slli	a0,a0,0x33
8000bcc8:	f89ff06f          	j	8000bc50 <_ebss+0xffe0af40>
8000bccc:	8014061b          	addw	a2,s0,-2047
8000bcd0:	08079663          	bnez	a5,8000bd5c <__subdf3+0x288>
8000bcd4:	0015c593          	xor	a1,a1,1
8000bcd8:	0ff5f313          	zext.b	t1,a1
8000bcdc:	0c648263          	beq	s1,t1,8000bda0 <__subdf3+0x2cc>
8000bce0:	10060c63          	beqz	a2,8000bdf8 <__subdf3+0x324>
8000bce4:	1e041a63          	bnez	s0,8000bed8 <__subdf3+0x404>
8000bce8:	00030493          	mv	s1,t1
8000bcec:	2a050263          	beqz	a0,8000bf90 <__subdf3+0x4bc>
8000bcf0:	fff64613          	not	a2,a2
8000bcf4:	0006089b          	sext.w	a7,a2
8000bcf8:	2c088463          	beqz	a7,8000bfc0 <__subdf3+0x4ec>
8000bcfc:	7ff00693          	li	a3,2047
8000bd00:	28d70263          	beq	a4,a3,8000bf84 <__subdf3+0x4b0>
8000bd04:	03800613          	li	a2,56
8000bd08:	00100693          	li	a3,1
8000bd0c:	01164663          	blt	a2,a7,8000bd18 <__subdf3+0x244>
8000bd10:	011558b3          	srl	a7,a0,a7
8000bd14:	0018e693          	ori	a3,a7,1
8000bd18:	40d78533          	sub	a0,a5,a3
8000bd1c:	00070413          	mv	s0,a4
8000bd20:	e85ff06f          	j	8000bba4 <_ebss+0xffe0ae94>
8000bd24:	14070a63          	beqz	a4,8000be78 <__subdf3+0x3a4>
8000bd28:	00375513          	srli	a0,a4,0x3
8000bd2c:	00000413          	li	s0,0
8000bd30:	7ff47413          	andi	s0,s0,2047
8000bd34:	0014f493          	andi	s1,s1,1
8000bd38:	04051513          	slli	a0,a0,0x40
8000bd3c:	07041413          	slli	s0,s0,0x70
8000bd40:	04055513          	srli	a0,a0,0x40
8000bd44:	07045413          	srli	s0,s0,0x70
8000bd48:	0ff4f693          	zext.b	a3,s1
8000bd4c:	f05ff06f          	j	8000bc50 <_ebss+0xffe0af40>
8000bd50:	7ff00413          	li	s0,2047
8000bd54:	00000513          	li	a0,0
8000bd58:	ef9ff06f          	j	8000bc50 <_ebss+0xffe0af40>
8000bd5c:	00058313          	mv	t1,a1
8000bd60:	20b48263          	beq	s1,a1,8000bf64 <__subdf3+0x490>
8000bd64:	08060a63          	beqz	a2,8000bdf8 <__subdf3+0x324>
8000bd68:	18041063          	bnez	s0,8000bee8 <__subdf3+0x414>
8000bd6c:	00058493          	mv	s1,a1
8000bd70:	f7dff06f          	j	8000bcec <_ebss+0xffe0afdc>
8000bd74:	02060863          	beqz	a2,8000bda4 <__subdf3+0x2d0>
8000bd78:	1e040a63          	beqz	s0,8000bf6c <__subdf3+0x498>
8000bd7c:	40c008bb          	negw	a7,a2
8000bd80:	00100613          	li	a2,1
8000bd84:	03761613          	slli	a2,a2,0x37
8000bd88:	00c56533          	or	a0,a0,a2
8000bd8c:	03800613          	li	a2,56
8000bd90:	21165e63          	bge	a2,a7,8000bfac <__subdf3+0x4d8>
8000bd94:	00178513          	addi	a0,a5,1
8000bd98:	00070413          	mv	s0,a4
8000bd9c:	e59ff06f          	j	8000bbf4 <_ebss+0xffe0aee4>
8000bda0:	12061463          	bnez	a2,8000bec8 <__subdf3+0x3f4>
8000bda4:	00140713          	addi	a4,s0,1
8000bda8:	7fe77613          	andi	a2,a4,2046
8000bdac:	14061663          	bnez	a2,8000bef8 <__subdf3+0x424>
8000bdb0:	1e041663          	bnez	s0,8000bf9c <__subdf3+0x4c8>
8000bdb4:	22050463          	beqz	a0,8000bfdc <__subdf3+0x508>
8000bdb8:	e2078ee3          	beqz	a5,8000bbf4 <_ebss+0xffe0aee4>
8000bdbc:	00f50733          	add	a4,a0,a5
8000bdc0:	03775793          	srli	a5,a4,0x37
8000bdc4:	0017f793          	andi	a5,a5,1
8000bdc8:	f60780e3          	beqz	a5,8000bd28 <_ebss+0xffe0b018>
8000bdcc:	fff00513          	li	a0,-1
8000bdd0:	03751513          	slli	a0,a0,0x37
8000bdd4:	fff50513          	addi	a0,a0,-1
8000bdd8:	00a77533          	and	a0,a4,a0
8000bddc:	00100413          	li	s0,1
8000bde0:	e15ff06f          	j	8000bbf4 <_ebss+0xffe0aee4>
8000bde4:	e10408e3          	beq	s0,a6,8000bbf4 <_ebss+0xffe0aee4>
8000bde8:	00100713          	li	a4,1
8000bdec:	03771713          	slli	a4,a4,0x37
8000bdf0:	00e7e7b3          	or	a5,a5,a4
8000bdf4:	d99ff06f          	j	8000bb8c <_ebss+0xffe0ae7c>
8000bdf8:	00140713          	addi	a4,s0,1
8000bdfc:	7fe77713          	andi	a4,a4,2046
8000be00:	06071263          	bnez	a4,8000be64 <__subdf3+0x390>
8000be04:	10041c63          	bnez	s0,8000bf1c <__subdf3+0x448>
8000be08:	1c050263          	beqz	a0,8000bfcc <__subdf3+0x4f8>
8000be0c:	de0784e3          	beqz	a5,8000bbf4 <_ebss+0xffe0aee4>
8000be10:	40f50733          	sub	a4,a0,a5
8000be14:	03775693          	srli	a3,a4,0x37
8000be18:	0016f693          	andi	a3,a3,1
8000be1c:	f00684e3          	beqz	a3,8000bd24 <_ebss+0xffe0b014>
8000be20:	40a78533          	sub	a0,a5,a0
8000be24:	00030493          	mv	s1,t1
8000be28:	dcdff06f          	j	8000bbf4 <_ebss+0xffe0aee4>
8000be2c:	fff00513          	li	a0,-1
8000be30:	03751513          	slli	a0,a0,0x37
8000be34:	fff50513          	addi	a0,a0,-1
8000be38:	40f40433          	sub	s0,s0,a5
8000be3c:	00a97533          	and	a0,s2,a0
8000be40:	db5ff06f          	j	8000bbf4 <_ebss+0xffe0aee4>
8000be44:	db0408e3          	beq	s0,a6,8000bbf4 <_ebss+0xffe0aee4>
8000be48:	00100713          	li	a4,1
8000be4c:	03771713          	slli	a4,a4,0x37
8000be50:	00e7e7b3          	or	a5,a5,a4
8000be54:	03800713          	li	a4,56
8000be58:	02c75863          	bge	a4,a2,8000be88 <__subdf3+0x3b4>
8000be5c:	00150513          	addi	a0,a0,1
8000be60:	d95ff06f          	j	8000bbf4 <_ebss+0xffe0aee4>
8000be64:	40f50933          	sub	s2,a0,a5
8000be68:	03795713          	srli	a4,s2,0x37
8000be6c:	00177713          	andi	a4,a4,1
8000be70:	0a071063          	bnez	a4,8000bf10 <__subdf3+0x43c>
8000be74:	d40914e3          	bnez	s2,8000bbbc <_ebss+0xffe0aeac>
8000be78:	00000693          	li	a3,0
8000be7c:	00000413          	li	s0,0
8000be80:	00000513          	li	a0,0
8000be84:	dcdff06f          	j	8000bc50 <_ebss+0xffe0af40>
8000be88:	00c7d633          	srl	a2,a5,a2
8000be8c:	00166613          	ori	a2,a2,1
8000be90:	00c50533          	add	a0,a0,a2
8000be94:	03755793          	srli	a5,a0,0x37
8000be98:	0017f793          	andi	a5,a5,1
8000be9c:	de078ce3          	beqz	a5,8000bc94 <_ebss+0xffe0af84>
8000bea0:	00140413          	addi	s0,s0,1
8000bea4:	7ff00793          	li	a5,2047
8000bea8:	eaf404e3          	beq	s0,a5,8000bd50 <_ebss+0xffe0b040>
8000beac:	00155793          	srli	a5,a0,0x1
8000beb0:	00002717          	auipc	a4,0x2
8000beb4:	9007270f          	lq	a4,-1792(a4) # 8000d7b0 <_ctype_+0x110>
8000beb8:	00157513          	andi	a0,a0,1
8000bebc:	00e7f7b3          	and	a5,a5,a4
8000bec0:	00a7e533          	or	a0,a5,a0
8000bec4:	d31ff06f          	j	8000bbf4 <_ebss+0xffe0aee4>
8000bec8:	0a040263          	beqz	s0,8000bf6c <__subdf3+0x498>
8000becc:	00000513          	li	a0,0
8000bed0:	7ff00413          	li	s0,2047
8000bed4:	d39ff06f          	j	8000bc0c <_ebss+0xffe0aefc>
8000bed8:	00000513          	li	a0,0
8000bedc:	7ff00413          	li	s0,2047
8000bee0:	00030493          	mv	s1,t1
8000bee4:	d29ff06f          	j	8000bc0c <_ebss+0xffe0aefc>
8000bee8:	00078513          	mv	a0,a5
8000beec:	7ff00413          	li	s0,2047
8000bef0:	00058493          	mv	s1,a1
8000bef4:	d01ff06f          	j	8000bbf4 <_ebss+0xffe0aee4>
8000bef8:	7ff00613          	li	a2,2047
8000befc:	e4c70ae3          	beq	a4,a2,8000bd50 <_ebss+0xffe0b040>
8000bf00:	00f507b3          	add	a5,a0,a5
8000bf04:	0017d513          	srli	a0,a5,0x1
8000bf08:	00070413          	mv	s0,a4
8000bf0c:	ce9ff06f          	j	8000bbf4 <_ebss+0xffe0aee4>
8000bf10:	40a78933          	sub	s2,a5,a0
8000bf14:	00030493          	mv	s1,t1
8000bf18:	ca5ff06f          	j	8000bbbc <_ebss+0xffe0aeac>
8000bf1c:	08051263          	bnez	a0,8000bfa0 <__subdf3+0x4cc>
8000bf20:	d8078ce3          	beqz	a5,8000bcb8 <_ebss+0xffe0afa8>
8000bf24:	00078513          	mv	a0,a5
8000bf28:	00030493          	mv	s1,t1
8000bf2c:	7ff00413          	li	s0,2047
8000bf30:	cc5ff06f          	j	8000bbf4 <_ebss+0xffe0aee4>
8000bf34:	00f50533          	add	a0,a0,a5
8000bf38:	f5dff06f          	j	8000be94 <_ebss+0xffe0b184>
8000bf3c:	ea060ee3          	beqz	a2,8000bdf8 <_ebss+0xffe0b0e8>
8000bf40:	da0404e3          	beqz	s0,8000bce8 <_ebss+0xffe0afd8>
8000bf44:	00100693          	li	a3,1
8000bf48:	03769693          	slli	a3,a3,0x37
8000bf4c:	40c008bb          	negw	a7,a2
8000bf50:	00d56533          	or	a0,a0,a3
8000bf54:	00030493          	mv	s1,t1
8000bf58:	dadff06f          	j	8000bd04 <_ebss+0xffe0aff4>
8000bf5c:	40f50533          	sub	a0,a0,a5
8000bf60:	c45ff06f          	j	8000bba4 <_ebss+0xffe0ae94>
8000bf64:	e40600e3          	beqz	a2,8000bda4 <_ebss+0xffe0b094>
8000bf68:	00041e63          	bnez	s0,8000bf84 <__subdf3+0x4b0>
8000bf6c:	02050263          	beqz	a0,8000bf90 <__subdf3+0x4bc>
8000bf70:	fff64613          	not	a2,a2
8000bf74:	0006089b          	sext.w	a7,a2
8000bf78:	06088663          	beqz	a7,8000bfe4 <__subdf3+0x510>
8000bf7c:	7ff00613          	li	a2,2047
8000bf80:	e0c716e3          	bne	a4,a2,8000bd8c <_ebss+0xffe0b07c>
8000bf84:	00078513          	mv	a0,a5
8000bf88:	7ff00413          	li	s0,2047
8000bf8c:	c69ff06f          	j	8000bbf4 <_ebss+0xffe0aee4>
8000bf90:	00078513          	mv	a0,a5
8000bf94:	00070413          	mv	s0,a4
8000bf98:	c5dff06f          	j	8000bbf4 <_ebss+0xffe0aee4>
8000bf9c:	fe0504e3          	beqz	a0,8000bf84 <_ebss+0xffe0b274>
8000bfa0:	d0079ce3          	bnez	a5,8000bcb8 <_ebss+0xffe0afa8>
8000bfa4:	7ff00413          	li	s0,2047
8000bfa8:	c4dff06f          	j	8000bbf4 <_ebss+0xffe0aee4>
8000bfac:	011558b3          	srl	a7,a0,a7
8000bfb0:	0018e893          	ori	a7,a7,1
8000bfb4:	00f88533          	add	a0,a7,a5
8000bfb8:	00070413          	mv	s0,a4
8000bfbc:	ed9ff06f          	j	8000be94 <_ebss+0xffe0b184>
8000bfc0:	40a78533          	sub	a0,a5,a0
8000bfc4:	00070413          	mv	s0,a4
8000bfc8:	bddff06f          	j	8000bba4 <_ebss+0xffe0ae94>
8000bfcc:	ea0786e3          	beqz	a5,8000be78 <_ebss+0xffe0b168>
8000bfd0:	00078513          	mv	a0,a5
8000bfd4:	00030493          	mv	s1,t1
8000bfd8:	c1dff06f          	j	8000bbf4 <_ebss+0xffe0aee4>
8000bfdc:	00078513          	mv	a0,a5
8000bfe0:	c15ff06f          	j	8000bbf4 <_ebss+0xffe0aee4>
8000bfe4:	00f50533          	add	a0,a0,a5
8000bfe8:	00070413          	mv	s0,a4
8000bfec:	ea9ff06f          	j	8000be94 <_ebss+0xffe0b184>

8000bff0 <__unorddf2>:
8000bff0:	04051513          	slli	a0,a0,0x40
8000bff4:	04055513          	srli	a0,a0,0x40
8000bff8:	03455793          	srli	a5,a0,0x34
8000bffc:	04059593          	slli	a1,a1,0x40
8000c000:	0405d593          	srli	a1,a1,0x40
8000c004:	7ff7f713          	andi	a4,a5,2047
8000c008:	fff00793          	li	a5,-1
8000c00c:	00c7d793          	srli	a5,a5,0xc
8000c010:	0345d693          	srli	a3,a1,0x34
8000c014:	07071713          	slli	a4,a4,0x70
8000c018:	00f5f5b3          	and	a1,a1,a5
8000c01c:	07075713          	srli	a4,a4,0x70
8000c020:	00f57533          	and	a0,a0,a5
8000c024:	7ff6f693          	andi	a3,a3,2047
8000c028:	04051793          	slli	a5,a0,0x40
8000c02c:	04059593          	slli	a1,a1,0x40
8000c030:	07069693          	slli	a3,a3,0x70
8000c034:	0007071b          	sext.w	a4,a4
8000c038:	7ff00613          	li	a2,2047
8000c03c:	0407d793          	srli	a5,a5,0x40
8000c040:	0405d593          	srli	a1,a1,0x40
8000c044:	0706d693          	srli	a3,a3,0x70
8000c048:	02c70263          	beq	a4,a2,8000c06c <__unorddf2+0x7c>
8000c04c:	0006869b          	sext.w	a3,a3
8000c050:	7ff00793          	li	a5,2047
8000c054:	00000513          	li	a0,0
8000c058:	00f68463          	beq	a3,a5,8000c060 <__unorddf2+0x70>
8000c05c:	00008067          	ret
8000c060:	000585db          	addid	a1,a1,0
8000c064:	00b03533          	snez	a0,a1
8000c068:	00008067          	ret
8000c06c:	00100513          	li	a0,1
8000c070:	fc078ee3          	beqz	a5,8000c04c <_ebss+0xffe0b33c>
8000c074:	00008067          	ret

8000c078 <__fixdfsi>:
8000c078:	04051793          	slli	a5,a0,0x40
8000c07c:	0407d793          	srli	a5,a5,0x40
8000c080:	0347d713          	srli	a4,a5,0x34
8000c084:	7ff77713          	andi	a4,a4,2047
8000c088:	03f7d793          	srli	a5,a5,0x3f
8000c08c:	07071713          	slli	a4,a4,0x70
8000c090:	0017f793          	andi	a5,a5,1
8000c094:	04051513          	slli	a0,a0,0x40
8000c098:	07075713          	srli	a4,a4,0x70
8000c09c:	3fe00693          	li	a3,1022
8000c0a0:	04055513          	srli	a0,a0,0x40
8000c0a4:	0ff7f793          	zext.b	a5,a5
8000c0a8:	00e6de63          	bge	a3,a4,8000c0c4 <__fixdfsi+0x4c>
8000c0ac:	41d00693          	li	a3,1053
8000c0b0:	00e6de63          	bge	a3,a4,8000c0cc <__fixdfsi+0x54>
8000c0b4:	80000537          	lui	a0,0x80000
8000c0b8:	fff54513          	not	a0,a0
8000c0bc:	00f5053b          	addw	a0,a0,a5
8000c0c0:	00008067          	ret
8000c0c4:	00000513          	li	a0,0
8000c0c8:	00008067          	ret
8000c0cc:	00100693          	li	a3,1
8000c0d0:	03469693          	slli	a3,a3,0x34
8000c0d4:	00d56533          	or	a0,a0,a3
8000c0d8:	43300693          	li	a3,1075
8000c0dc:	40e6873b          	subw	a4,a3,a4
8000c0e0:	00e55533          	srl	a0,a0,a4
8000c0e4:	00078663          	beqz	a5,8000c0f0 <__fixdfsi+0x78>
8000c0e8:	40a0053b          	negw	a0,a0
8000c0ec:	00008067          	ret
8000c0f0:	0005051b          	sext.w	a0,a0
8000c0f4:	00008067          	ret

8000c0f8 <__floatsidf>:
8000c0f8:	fd010113          	addi	sp,sp,-48
8000c0fc:	02114023          	sq	ra,32(sp)
8000c100:	00814823          	sq	s0,16(sp)
8000c104:	00914023          	sq	s1,0(sp)
8000c108:	06050463          	beqz	a0,8000c170 <__floatsidf+0x78>
8000c10c:	0005041b          	sext.w	s0,a0
8000c110:	01f5549b          	srlw	s1,a0,0x1f
8000c114:	06054663          	bltz	a0,8000c180 <__floatsidf+0x88>
8000c118:	06041413          	slli	s0,s0,0x60
8000c11c:	06045413          	srli	s0,s0,0x60
8000c120:	00040513          	mv	a0,s0
8000c124:	32c000ef          	jal	8000c450 <__clzti2>
8000c128:	43e00713          	li	a4,1086
8000c12c:	ff55079b          	addw	a5,a0,-11
8000c130:	40a7073b          	subw	a4,a4,a0
8000c134:	00f417b3          	sll	a5,s0,a5
8000c138:	7ff77713          	andi	a4,a4,2047
8000c13c:	04079793          	slli	a5,a5,0x40
8000c140:	07071713          	slli	a4,a4,0x70
8000c144:	0407d793          	srli	a5,a5,0x40
8000c148:	07075713          	srli	a4,a4,0x70
8000c14c:	0201208f          	lq	ra,32(sp)
8000c150:	0101240f          	lq	s0,16(sp)
8000c154:	0347175b          	sllid	a4,a4,0x34
8000c158:	03f4955b          	sllid	a0,s1,0x3f
8000c15c:	00e7e7b3          	or	a5,a5,a4
8000c160:	0001248f          	lq	s1,0(sp)
8000c164:	00f56533          	or	a0,a0,a5
8000c168:	03010113          	addi	sp,sp,48
8000c16c:	00008067          	ret
8000c170:	00000493          	li	s1,0
8000c174:	00000713          	li	a4,0
8000c178:	00000793          	li	a5,0
8000c17c:	fd1ff06f          	j	8000c14c <_ebss+0xffe0b43c>
8000c180:	4080043b          	negw	s0,s0
8000c184:	f95ff06f          	j	8000c118 <_ebss+0xffe0b408>

8000c188 <__floatunsidf>:
8000c188:	04050e63          	beqz	a0,8000c1e4 <__floatunsidf+0x5c>
8000c18c:	fe010113          	addi	sp,sp,-32
8000c190:	00814023          	sq	s0,0(sp)
8000c194:	06051413          	slli	s0,a0,0x60
8000c198:	06045413          	srli	s0,s0,0x60
8000c19c:	00040513          	mv	a0,s0
8000c1a0:	00114823          	sq	ra,16(sp)
8000c1a4:	2ac000ef          	jal	8000c450 <__clzti2>
8000c1a8:	43e00793          	li	a5,1086
8000c1ac:	ff55071b          	addw	a4,a0,-11
8000c1b0:	40a7853b          	subw	a0,a5,a0
8000c1b4:	7ff57513          	andi	a0,a0,2047
8000c1b8:	0101208f          	lq	ra,16(sp)
8000c1bc:	00e417b3          	sll	a5,s0,a4
8000c1c0:	07051513          	slli	a0,a0,0x70
8000c1c4:	0001240f          	lq	s0,0(sp)
8000c1c8:	04079793          	slli	a5,a5,0x40
8000c1cc:	07055513          	srli	a0,a0,0x70
8000c1d0:	0407d793          	srli	a5,a5,0x40
8000c1d4:	0345155b          	sllid	a0,a0,0x34
8000c1d8:	00f56533          	or	a0,a0,a5
8000c1dc:	02010113          	addi	sp,sp,32
8000c1e0:	00008067          	ret
8000c1e4:	00000513          	li	a0,0
8000c1e8:	00000793          	li	a5,0
8000c1ec:	0345155b          	sllid	a0,a0,0x34
8000c1f0:	00f56533          	or	a0,a0,a5
8000c1f4:	00008067          	ret

8000c1f8 <__trunctfdf2>:
8000c1f8:	00008637          	lui	a2,0x8
8000c1fc:	fff60713          	addi	a4,a2,-1 # 7fff <UART_BASE-0xfff8001>
8000c200:	07055793          	srli	a5,a0,0x70
8000c204:	00e7f7b3          	and	a5,a5,a4
8000c208:	04055693          	srli	a3,a0,0x40
8000c20c:	07079793          	slli	a5,a5,0x70
8000c210:	04051713          	slli	a4,a0,0x40
8000c214:	0707d793          	srli	a5,a5,0x70
8000c218:	04069693          	slli	a3,a3,0x40
8000c21c:	04075713          	srli	a4,a4,0x40
8000c220:	ffe60613          	addi	a2,a2,-2
8000c224:	0406d693          	srli	a3,a3,0x40
8000c228:	00178813          	addi	a6,a5,1
8000c22c:	07f55513          	srli	a0,a0,0x7f
8000c230:	00369693          	slli	a3,a3,0x3
8000c234:	03d75593          	srli	a1,a4,0x3d
8000c238:	00c87833          	and	a6,a6,a2
8000c23c:	fff00893          	li	a7,-1
8000c240:	0ff57613          	zext.b	a2,a0
8000c244:	00d5e5b3          	or	a1,a1,a3
8000c248:	00371513          	slli	a0,a4,0x3
8000c24c:	02080a63          	beqz	a6,8000c280 <__trunctfdf2+0x88>
8000c250:	ffffc6b7          	lui	a3,0xffffc
8000c254:	40068693          	addi	a3,a3,1024 # ffffc400 <_ebss+0x7fdfb6f0>
8000c258:	00d787b3          	add	a5,a5,a3
8000c25c:	7fe00693          	li	a3,2046
8000c260:	06f6d863          	bge	a3,a5,8000c2d0 <__trunctfdf2+0xd8>
8000c264:	7ff00793          	li	a5,2047
8000c268:	00000513          	li	a0,0
8000c26c:	034797db          	sllid	a5,a5,0x34
8000c270:	00f56533          	or	a0,a0,a5
8000c274:	03f6165b          	sllid	a2,a2,0x3f
8000c278:	00c56533          	or	a0,a0,a2
8000c27c:	00008067          	ret
8000c280:	00a5e5b3          	or	a1,a1,a0
8000c284:	02079263          	bnez	a5,8000c2a8 <__trunctfdf2+0xb0>
8000c288:	00000713          	li	a4,0
8000c28c:	0a058663          	beqz	a1,8000c338 <__trunctfdf2+0x140>
8000c290:	7ff7f793          	andi	a5,a5,2047
8000c294:	04071513          	slli	a0,a4,0x40
8000c298:	07079793          	slli	a5,a5,0x70
8000c29c:	04055513          	srli	a0,a0,0x40
8000c2a0:	0707d793          	srli	a5,a5,0x70
8000c2a4:	fc9ff06f          	j	8000c26c <_ebss+0xffe0b55c>
8000c2a8:	fa058ee3          	beqz	a1,8000c264 <_ebss+0xffe0b554>
8000c2ac:	7ff00793          	li	a5,2047
8000c2b0:	00100513          	li	a0,1
8000c2b4:	034797db          	sllid	a5,a5,0x34
8000c2b8:	00000613          	li	a2,0
8000c2bc:	03351513          	slli	a0,a0,0x33
8000c2c0:	00f56533          	or	a0,a0,a5
8000c2c4:	03f6165b          	sllid	a2,a2,0x3f
8000c2c8:	00c56533          	or	a0,a0,a2
8000c2cc:	00008067          	ret
8000c2d0:	08f05263          	blez	a5,8000c354 <__trunctfdf2+0x15c>
8000c2d4:	00771693          	slli	a3,a4,0x7
8000c2d8:	00d036b3          	snez	a3,a3
8000c2dc:	00459593          	slli	a1,a1,0x4
8000c2e0:	00b6e6b3          	or	a3,a3,a1
8000c2e4:	03c55713          	srli	a4,a0,0x3c
8000c2e8:	00d76733          	or	a4,a4,a3
8000c2ec:	00777693          	andi	a3,a4,7
8000c2f0:	12068063          	beqz	a3,8000c410 <__trunctfdf2+0x218>
8000c2f4:	00f77693          	andi	a3,a4,15
8000c2f8:	00400593          	li	a1,4
8000c2fc:	0cb68263          	beq	a3,a1,8000c3c0 <__trunctfdf2+0x1c8>
8000c300:	00470713          	addi	a4,a4,4
8000c304:	03775693          	srli	a3,a4,0x37
8000c308:	0016f693          	andi	a3,a3,1
8000c30c:	0a068a63          	beqz	a3,8000c3c0 <__trunctfdf2+0x1c8>
8000c310:	00178793          	addi	a5,a5,1
8000c314:	7ff7f793          	andi	a5,a5,2047
8000c318:	07079793          	slli	a5,a5,0x70
8000c31c:	0707d793          	srli	a5,a5,0x70
8000c320:	034797db          	sllid	a5,a5,0x34
8000c324:	00000513          	li	a0,0
8000c328:	00f56533          	or	a0,a0,a5
8000c32c:	03f6165b          	sllid	a2,a2,0x3f
8000c330:	00c56533          	or	a0,a0,a2
8000c334:	00008067          	ret
8000c338:	00000793          	li	a5,0
8000c33c:	034797db          	sllid	a5,a5,0x34
8000c340:	00000513          	li	a0,0
8000c344:	00f56533          	or	a0,a0,a5
8000c348:	03f6165b          	sllid	a2,a2,0x3f
8000c34c:	00c56533          	or	a0,a0,a2
8000c350:	00008067          	ret
8000c354:	fcc00713          	li	a4,-52
8000c358:	fee7c0e3          	blt	a5,a4,8000c338 <_ebss+0xffe0b628>
8000c35c:	03d00713          	li	a4,61
8000c360:	00100693          	li	a3,1
8000c364:	40f70733          	sub	a4,a4,a5
8000c368:	03369693          	slli	a3,a3,0x33
8000c36c:	03f00813          	li	a6,63
8000c370:	00d5e5b3          	or	a1,a1,a3
8000c374:	0007879b          	sext.w	a5,a5
8000c378:	04e85863          	bge	a6,a4,8000c3c8 <__trunctfdf2+0x1d0>
8000c37c:	ffd00693          	li	a3,-3
8000c380:	40f686bb          	subw	a3,a3,a5
8000c384:	04000813          	li	a6,64
8000c388:	00d5d6b3          	srl	a3,a1,a3
8000c38c:	01070863          	beq	a4,a6,8000c39c <__trunctfdf2+0x1a4>
8000c390:	0437879b          	addw	a5,a5,67
8000c394:	00f595b3          	sll	a1,a1,a5
8000c398:	00b56533          	or	a0,a0,a1
8000c39c:	00a03733          	snez	a4,a0
8000c3a0:	00d76733          	or	a4,a4,a3
8000c3a4:	00777793          	andi	a5,a4,7
8000c3a8:	08078c63          	beqz	a5,8000c440 <__trunctfdf2+0x248>
8000c3ac:	00f77793          	andi	a5,a4,15
8000c3b0:	00400693          	li	a3,4
8000c3b4:	08d78063          	beq	a5,a3,8000c434 <__trunctfdf2+0x23c>
8000c3b8:	00470713          	addi	a4,a4,4
8000c3bc:	00000793          	li	a5,0
8000c3c0:	00375713          	srli	a4,a4,0x3
8000c3c4:	ecdff06f          	j	8000c290 <_ebss+0xffe0b580>
8000c3c8:	0037881b          	addw	a6,a5,3
8000c3cc:	010516b3          	sll	a3,a0,a6
8000c3d0:	03d00713          	li	a4,61
8000c3d4:	40f7073b          	subw	a4,a4,a5
8000c3d8:	010595b3          	sll	a1,a1,a6
8000c3dc:	00d037b3          	snez	a5,a3
8000c3e0:	00b7e7b3          	or	a5,a5,a1
8000c3e4:	00e55733          	srl	a4,a0,a4
8000c3e8:	00f76733          	or	a4,a4,a5
8000c3ec:	00777693          	andi	a3,a4,7
8000c3f0:	00000793          	li	a5,0
8000c3f4:	f00690e3          	bnez	a3,8000c2f4 <_ebss+0xffe0b5e4>
8000c3f8:	00375513          	srli	a0,a4,0x3
8000c3fc:	00c8d893          	srli	a7,a7,0xc
8000c400:	01157533          	and	a0,a0,a7
8000c404:	04051513          	slli	a0,a0,0x40
8000c408:	04055513          	srli	a0,a0,0x40
8000c40c:	e61ff06f          	j	8000c26c <_ebss+0xffe0b55c>
8000c410:	00375513          	srli	a0,a4,0x3
8000c414:	00c8d893          	srli	a7,a7,0xc
8000c418:	01157533          	and	a0,a0,a7
8000c41c:	7ff7f793          	andi	a5,a5,2047
8000c420:	04051513          	slli	a0,a0,0x40
8000c424:	07079793          	slli	a5,a5,0x70
8000c428:	04055513          	srli	a0,a0,0x40
8000c42c:	0707d793          	srli	a5,a5,0x70
8000c430:	e3dff06f          	j	8000c26c <_ebss+0xffe0b55c>
8000c434:	00000793          	li	a5,0
8000c438:	00375713          	srli	a4,a4,0x3
8000c43c:	e55ff06f          	j	8000c290 <_ebss+0xffe0b580>
8000c440:	00375713          	srli	a4,a4,0x3
8000c444:	04071513          	slli	a0,a4,0x40
8000c448:	04055513          	srli	a0,a0,0x40
8000c44c:	e21ff06f          	j	8000c26c <_ebss+0xffe0b55c>

8000c450 <__clzti2>:
8000c450:	44055793          	srai	a5,a0,0x40
8000c454:	000787db          	addid	a5,a5,0
8000c458:	06078463          	beqz	a5,8000c4c0 <__clzti2+0x70>
8000c45c:	04079613          	slli	a2,a5,0x40
8000c460:	04065613          	srli	a2,a2,0x40
8000c464:	00000513          	li	a0,0
8000c468:	038657db          	srlid	a5,a2,0x38
8000c46c:	08079a63          	bnez	a5,8000c500 <__clzti2+0xb0>
8000c470:	03800793          	li	a5,56
8000c474:	0100006f          	j	8000c484 <__clzti2+0x34>
8000c478:	04069693          	slli	a3,a3,0x40
8000c47c:	0406d693          	srli	a3,a3,0x40
8000c480:	04071863          	bnez	a4,8000c4d0 <__clzti2+0x80>
8000c484:	ff8785db          	addid	a1,a5,-8
8000c488:	04059793          	slli	a5,a1,0x40
8000c48c:	0407d793          	srli	a5,a5,0x40
8000c490:	00f656fb          	srld	a3,a2,a5
8000c494:	0ff6f713          	zext.b	a4,a3
8000c498:	0007075b          	addid	a4,a4,0
8000c49c:	fc079ee3          	bnez	a5,8000c478 <_ebss+0xffe0b768>
8000c4a0:	04000793          	li	a5,64
8000c4a4:	00001717          	auipc	a4,0x1
8000c4a8:	3dc70713          	addi	a4,a4,988 # 8000d880 <__clz_tab>
8000c4ac:	00c70733          	add	a4,a4,a2
8000c4b0:	00074703          	lbu	a4,0(a4)
8000c4b4:	40e787fb          	subd	a5,a5,a4
8000c4b8:	00a7853b          	addw	a0,a5,a0
8000c4bc:	00008067          	ret
8000c4c0:	04051613          	slli	a2,a0,0x40
8000c4c4:	04065613          	srli	a2,a2,0x40
8000c4c8:	04000513          	li	a0,64
8000c4cc:	f9dff06f          	j	8000c468 <_ebss+0xffe0b758>
8000c4d0:	00068613          	mv	a2,a3
8000c4d4:	00001717          	auipc	a4,0x1
8000c4d8:	3ac70713          	addi	a4,a4,940 # 8000d880 <__clz_tab>
8000c4dc:	00c70733          	add	a4,a4,a2
8000c4e0:	04000793          	li	a5,64
8000c4e4:	00074703          	lbu	a4,0(a4)
8000c4e8:	40b787fb          	subd	a5,a5,a1
8000c4ec:	04079793          	slli	a5,a5,0x40
8000c4f0:	0407d793          	srli	a5,a5,0x40
8000c4f4:	40e787fb          	subd	a5,a5,a4
8000c4f8:	00a7853b          	addw	a0,a5,a0
8000c4fc:	00008067          	ret
8000c500:	00078613          	mv	a2,a5
8000c504:	00800793          	li	a5,8
8000c508:	f9dff06f          	j	8000c4a4 <_ebss+0xffe0b794>

8000c50c <_sbrk>:
8000c50c:	001f4717          	auipc	a4,0x1f4
8000c510:	28470713          	addi	a4,a4,644 # 80200790 <heap.0>
8000c514:	0007268f          	lq	a3,0(a4)
8000c518:	00050793          	mv	a5,a0
8000c51c:	00069863          	bnez	a3,8000c52c <_sbrk+0x20>
8000c520:	00005697          	auipc	a3,0x5
8000c524:	72068693          	addi	a3,a3,1824 # 80011c40 <_end>
8000c528:	00d74023          	sq	a3,0(a4)
8000c52c:	0007250f          	lq	a0,0(a4)
8000c530:	00f507b3          	add	a5,a0,a5
8000c534:	00f74023          	sq	a5,0(a4)
8000c538:	00008067          	ret

8000c53c <_close>:
8000c53c:	fff00513          	li	a0,-1
8000c540:	00008067          	ret

8000c544 <_fstat>:
8000c544:	000027b7          	lui	a5,0x2
8000c548:	00f5a223          	sw	a5,4(a1)
8000c54c:	00000513          	li	a0,0
8000c550:	00008067          	ret

8000c554 <_isatty>:
8000c554:	00100513          	li	a0,1
8000c558:	00008067          	ret

8000c55c <_lseek>:
8000c55c:	00000513          	li	a0,0
8000c560:	00008067          	ret

8000c564 <cb_on_exit>:
8000c564:	00008067          	ret

8000c568 <_exit>:
8000c568:	fe010113          	addi	sp,sp,-32
8000c56c:	00814023          	sq	s0,0(sp)
8000c570:	00114823          	sq	ra,16(sp)
8000c574:	00050413          	mv	s0,a0
8000c578:	144000ef          	jal	8000c6bc <thread_id>
8000c57c:	02051063          	bnez	a0,8000c59c <_exit+0x34>
8000c580:	00040513          	mv	a0,s0
8000c584:	fe1ff0ef          	jal	8000c564 <_ebss+0xffe0b854>
8000c588:	001f4797          	auipc	a5,0x1f4
8000c58c:	2187a78f          	lq	a5,536(a5) # 802007a0 <_tohost_exit>
8000c590:	00078663          	beqz	a5,8000c59c <_exit+0x34>
8000c594:	00040513          	mv	a0,s0
8000c598:	000780e7          	jalr	a5
8000c59c:	0000006f          	j	8000c59c <_exit+0x34>

8000c5a0 <_kill>:
8000c5a0:	00008067          	ret

8000c5a4 <_getpid>:
8000c5a4:	fff00513          	li	a0,-1
8000c5a8:	00008067          	ret

8000c5ac <_write>:
8000c5ac:	fb010113          	addi	sp,sp,-80
8000c5b0:	04114023          	sq	ra,64(sp)
8000c5b4:	02814823          	sq	s0,48(sp)
8000c5b8:	02914023          	sq	s1,32(sp)
8000c5bc:	01214823          	sq	s2,16(sp)
8000c5c0:	01314023          	sq	s3,0(sp)
8000c5c4:	fff5051b          	addw	a0,a0,-1
8000c5c8:	00100793          	li	a5,1
8000c5cc:	04a7ee63          	bltu	a5,a0,8000c628 <_write+0x7c>
8000c5d0:	001f4917          	auipc	s2,0x1f4
8000c5d4:	1f090913          	addi	s2,s2,496 # 802007c0 <_putchar>
8000c5d8:	0009278f          	lq	a5,0(s2)
8000c5dc:	04078663          	beqz	a5,8000c628 <_write+0x7c>
8000c5e0:	00058413          	mv	s0,a1
8000c5e4:	00060493          	mv	s1,a2
8000c5e8:	00c589bb          	addw	s3,a1,a2
8000c5ec:	0004079b          	sext.w	a5,s0
8000c5f0:	02f99263          	bne	s3,a5,8000c614 <_write+0x68>
8000c5f4:	0401208f          	lq	ra,64(sp)
8000c5f8:	0301240f          	lq	s0,48(sp)
8000c5fc:	0101290f          	lq	s2,16(sp)
8000c600:	0001298f          	lq	s3,0(sp)
8000c604:	00048513          	mv	a0,s1
8000c608:	0201248f          	lq	s1,32(sp)
8000c60c:	05010113          	addi	sp,sp,80
8000c610:	00008067          	ret
8000c614:	0009278f          	lq	a5,0(s2)
8000c618:	00044503          	lbu	a0,0(s0)
8000c61c:	00140413          	addi	s0,s0,1
8000c620:	000780e7          	jalr	a5
8000c624:	fc9ff06f          	j	8000c5ec <_ebss+0xffe0b8dc>
8000c628:	fff00493          	li	s1,-1
8000c62c:	fc9ff06f          	j	8000c5f4 <_ebss+0xffe0b8e4>

8000c630 <_read>:
8000c630:	08051263          	bnez	a0,8000c6b4 <_read+0x84>
8000c634:	fb010113          	addi	sp,sp,-80
8000c638:	01214823          	sq	s2,16(sp)
8000c63c:	001f4917          	auipc	s2,0x1f4
8000c640:	17490913          	addi	s2,s2,372 # 802007b0 <_getchar>
8000c644:	0009278f          	lq	a5,0(s2)
8000c648:	04114023          	sq	ra,64(sp)
8000c64c:	02814823          	sq	s0,48(sp)
8000c650:	02914023          	sq	s1,32(sp)
8000c654:	01314023          	sq	s3,0(sp)
8000c658:	fff00513          	li	a0,-1
8000c65c:	02078463          	beqz	a5,8000c684 <_read+0x54>
8000c660:	00058413          	mv	s0,a1
8000c664:	00060493          	mv	s1,a2
8000c668:	00c589bb          	addw	s3,a1,a2
8000c66c:	408987bb          	subw	a5,s3,s0
8000c670:	02f04863          	bgtz	a5,8000c6a0 <_read+0x70>
8000c674:	00048513          	mv	a0,s1
8000c678:	0004d463          	bgez	s1,8000c680 <_read+0x50>
8000c67c:	00000513          	li	a0,0
8000c680:	0005051b          	sext.w	a0,a0
8000c684:	0401208f          	lq	ra,64(sp)
8000c688:	0301240f          	lq	s0,48(sp)
8000c68c:	0201248f          	lq	s1,32(sp)
8000c690:	0101290f          	lq	s2,16(sp)
8000c694:	0001298f          	lq	s3,0(sp)
8000c698:	05010113          	addi	sp,sp,80
8000c69c:	00008067          	ret
8000c6a0:	0009278f          	lq	a5,0(s2)
8000c6a4:	00140413          	addi	s0,s0,1
8000c6a8:	000780e7          	jalr	a5
8000c6ac:	fea40fa3          	sb	a0,-1(s0)
8000c6b0:	fbdff06f          	j	8000c66c <_ebss+0xffe0b95c>
8000c6b4:	fff00513          	li	a0,-1
8000c6b8:	00008067          	ret

8000c6bc <thread_id>:
8000c6bc:	000207b3          	add	a5,tp,zero
8000c6c0:	fff00513          	li	a0,-1
8000c6c4:	00078663          	beqz	a5,8000c6d0 <thread_id+0x14>
8000c6c8:	0107a78f          	lq	a5,16(a5)
8000c6cc:	0007d503          	lhu	a0,0(a5)
8000c6d0:	00008067          	ret

8000c6d4 <cb_end_of_main>:
8000c6d4:	00008067          	ret

8000c6d8 <bsp_start>:
8000c6d8:	fa010113          	addi	sp,sp,-96
8000c6dc:	04114823          	sq	ra,80(sp)
8000c6e0:	04814023          	sq	s0,64(sp)
8000c6e4:	02914823          	sq	s1,48(sp)
8000c6e8:	03214023          	sq	s2,32(sp)
8000c6ec:	01314823          	sq	s3,16(sp)
8000c6f0:	000062b7          	lui	t0,0x6
8000c6f4:	3002b073          	csrc	mstatus,t0
8000c6f8:	000042b7          	lui	t0,0x4
8000c6fc:	3002a073          	csrs	mstatus,t0
8000c700:	001f4997          	auipc	s3,0x1f4
8000c704:	38098993          	addi	s3,s3,896 # 80200a80 <cpu_hid2sid>
8000c708:	001f4497          	auipc	s1,0x1f4
8000c70c:	0f848493          	addi	s1,s1,248 # 80200800 <cpu_list>
8000c710:	16051863          	bnez	a0,8000c880 <bsp_start+0x1a8>
8000c714:	001f4797          	auipc	a5,0x1f4
8000c718:	5fc78793          	addi	a5,a5,1532 # 80200d10 <_ebss>
8000c71c:	001f4517          	auipc	a0,0x1f4
8000c720:	ca450513          	addi	a0,a0,-860 # 802003c0 <__malloc_free_list>
8000c724:	40a78633          	sub	a2,a5,a0
8000c728:	00a78663          	beq	a5,a0,8000c734 <bsp_start+0x5c>
8000c72c:	00000593          	li	a1,0
8000c730:	954f80ef          	jal	80004884 <_ebss+0xffe03b74>
8000c734:	748000ef          	jal	8000ce7c <__libc_init_array>
8000c738:	680000ef          	jal	8000cdb8 <bsp_init>
8000c73c:	f1402473          	csrr	s0,mhartid
8000c740:	0004041b          	sext.w	s0,s0
8000c744:	00141793          	slli	a5,s0,0x1
8000c748:	00f987b3          	add	a5,s3,a5
8000c74c:	0007d783          	lhu	a5,0(a5)
8000c750:	07079793          	slli	a5,a5,0x70
8000c754:	0707d793          	srli	a5,a5,0x70
8000c758:	00078663          	beqz	a5,8000c764 <bsp_start+0x8c>
8000c75c:	00100513          	li	a0,1
8000c760:	b08f80ef          	jal	80004a68 <_ebss+0xffe03d58>
8000c764:	001f4797          	auipc	a5,0x1f4
8000c768:	08079e23          	sh	zero,156(a5) # 80200800 <cpu_list>
8000c76c:	00849123          	sh	s0,2(s1)
8000c770:	ffff4797          	auipc	a5,0xffff4
8000c774:	b2878793          	addi	a5,a5,-1240 # 80000298 <_ebss+0xffdff588>
8000c778:	02f4c023          	sq	a5,32(s1)
8000c77c:	00040513          	mv	a0,s0
8000c780:	001f4797          	auipc	a5,0x1f4
8000c784:	0a07c823          	sq	zero,176(a5) # 80200830 <cpu_list+0x30>
8000c788:	688000ef          	jal	8000ce10 <bsp_get_clint_driver>
8000c78c:	04a4c823          	sq	a0,80(s1)
8000c790:	00200793          	li	a5,2
8000c794:	04f4a023          	sw	a5,64(s1)
8000c798:	0330000f          	fence	rw,rw
8000c79c:	00048233          	add	tp,s1,zero
8000c7a0:	04000513          	li	a0,64
8000c7a4:	e3cf70ef          	jal	80003de0 <_ebss+0xffe030d0>
8000c7a8:	00a4c823          	sq	a0,16(s1)
8000c7ac:	fa0508e3          	beqz	a0,8000c75c <_ebss+0xffe0ba4c>
8000c7b0:	00051023          	sh	zero,0(a0)
8000c7b4:	00854823          	sq	s0,16(a0)
8000c7b8:	02954023          	sq	s1,32(a0)
8000c7bc:	02054823          	sq	zero,48(a0)
8000c7c0:	00000793          	li	a5,0
8000c7c4:	b0079073          	csrw	mcycle,a5
8000c7c8:	b0279073          	csrw	minstret,a5
8000c7cc:	b0379073          	csrw	mhpmcounter3,a5
8000c7d0:	b0479073          	csrw	mhpmcounter4,a5
8000c7d4:	ac5f30ef          	jal	80000298 <_ebss+0xffdff588>
8000c7d8:	00a14023          	sq	a0,0(sp)
8000c7dc:	ef9ff0ef          	jal	8000c6d4 <_ebss+0xffe0b9c4>
8000c7e0:	0001250f          	lq	a0,0(sp)
8000c7e4:	f7dff06f          	j	8000c760 <_ebss+0xffe0ba50>
8000c7e8:	06042783          	lw	a5,96(s0)
8000c7ec:	00100713          	li	a4,1
8000c7f0:	0007879b          	sext.w	a5,a5
8000c7f4:	00e78863          	beq	a5,a4,8000c804 <bsp_start+0x12c>
8000c7f8:	00300793          	li	a5,3
8000c7fc:	04f42023          	sw	a5,64(s0)
8000c800:	0000006f          	j	8000c800 <bsp_start+0x128>
8000c804:	00791913          	slli	s2,s2,0x7
8000c808:	01248933          	add	s2,s1,s2
8000c80c:	00090233          	add	tp,s2,zero
8000c810:	0330000f          	fence	rw,rw
8000c814:	00200713          	li	a4,2
8000c818:	04f42023          	sw	a5,64(s0)
8000c81c:	14d00693          	li	a3,333
8000c820:	04042783          	lw	a5,64(s0)
8000c824:	0007879b          	sext.w	a5,a5
8000c828:	02e79e63          	bne	a5,a4,8000c864 <bsp_start+0x18c>
8000c82c:	00000793          	li	a5,0
8000c830:	b0079073          	csrw	mcycle,a5
8000c834:	b0279073          	csrw	minstret,a5
8000c838:	b0379073          	csrw	mhpmcounter3,a5
8000c83c:	b0479073          	csrw	mhpmcounter4,a5
8000c840:	0204278f          	lq	a5,32(s0)
8000c844:	0304250f          	lq	a0,48(s0)
8000c848:	000780e7          	jalr	a5
8000c84c:	fff00793          	li	a5,-1
8000c850:	02f51463          	bne	a0,a5,8000c878 <bsp_start+0x1a0>
8000c854:	0330000f          	fence	rw,rw
8000c858:	00300793          	li	a5,3
8000c85c:	04f42023          	sw	a5,64(s0)
8000c860:	0000006f          	j	8000c860 <bsp_start+0x188>
8000c864:	00068793          	mv	a5,a3
8000c868:	00078663          	beqz	a5,8000c874 <bsp_start+0x19c>
8000c86c:	fff78793          	addi	a5,a5,-1
8000c870:	ff9ff06f          	j	8000c868 <_ebss+0xffe0bb58>
8000c874:	fadff06f          	j	8000c820 <_ebss+0xffe0bb10>
8000c878:	0330000f          	fence	rw,rw
8000c87c:	04042023          	sw	zero,64(s0)
8000c880:	10500073          	wfi
8000c884:	344022f3          	csrr	t0,mip
8000c888:	0082f293          	andi	t0,t0,8
8000c88c:	fe028ae3          	beqz	t0,8000c880 <_ebss+0xffe0bb70>
8000c890:	f14025f3          	csrr	a1,mhartid
8000c894:	0005859b          	sext.w	a1,a1
8000c898:	00159793          	slli	a5,a1,0x1
8000c89c:	00f987b3          	add	a5,s3,a5
8000c8a0:	0007d903          	lhu	s2,0(a5)
8000c8a4:	07091913          	slli	s2,s2,0x70
8000c8a8:	07095913          	srli	s2,s2,0x70
8000c8ac:	0009041b          	sext.w	s0,s2
8000c8b0:	00741413          	slli	s0,s0,0x7
8000c8b4:	00848433          	add	s0,s1,s0
8000c8b8:	0504250f          	lq	a0,80(s0)
8000c8bc:	014000ef          	jal	8000c8d0 <clint_recv_ipi>
8000c8c0:	f20514e3          	bnez	a0,8000c7e8 <_ebss+0xffe0bad8>
8000c8c4:	00300793          	li	a5,3
8000c8c8:	04f42023          	sw	a5,64(s0)
8000c8cc:	0000006f          	j	8000c8cc <bsp_start+0x1f4>

8000c8d0 <clint_recv_ipi>:
8000c8d0:	0005278f          	lq	a5,0(a0)
8000c8d4:	0025959b          	sllw	a1,a1,0x2
8000c8d8:	00f585b3          	add	a1,a1,a5
8000c8dc:	0005a503          	lw	a0,0(a1)
8000c8e0:	0005051b          	sext.w	a0,a0
8000c8e4:	00050663          	beqz	a0,8000c8f0 <clint_recv_ipi+0x20>
8000c8e8:	0005a023          	sw	zero,0(a1)
8000c8ec:	0330000f          	fence	rw,rw
8000c8f0:	00008067          	ret

8000c8f4 <clint_clear_ipi>:
8000c8f4:	0005278f          	lq	a5,0(a0)
8000c8f8:	0025959b          	sllw	a1,a1,0x2
8000c8fc:	00f585b3          	add	a1,a1,a5
8000c900:	0005a023          	sw	zero,0(a1)
8000c904:	0330000f          	fence	rw,rw
8000c908:	00008067          	ret

8000c90c <clint_set_mtimecmp>:
8000c90c:	000017b7          	lui	a5,0x1
8000c910:	0005270f          	lq	a4,0(a0)
8000c914:	8007879b          	addw	a5,a5,-2048
8000c918:	00b787bb          	addw	a5,a5,a1
8000c91c:	0037979b          	sllw	a5,a5,0x3
8000c920:	0006061b          	sext.w	a2,a2
8000c924:	00e787b3          	add	a5,a5,a4
8000c928:	00c7a023          	sw	a2,0(a5) # 1000 <UART_BASE-0xffff000>
8000c92c:	0330000f          	fence	rw,rw
8000c930:	00008067          	ret

8000c934 <clint_set_mtime>:
8000c934:	0005278f          	lq	a5,0(a0)
8000c938:	0000c737          	lui	a4,0xc
8000c93c:	ff870713          	addi	a4,a4,-8 # bff8 <UART_BASE-0xfff4008>
8000c940:	0005859b          	sext.w	a1,a1
8000c944:	00e787b3          	add	a5,a5,a4
8000c948:	00b7a023          	sw	a1,0(a5)
8000c94c:	0330000f          	fence	rw,rw
8000c950:	00008067          	ret

8000c954 <clint_init>:
8000c954:	fc010113          	addi	sp,sp,-64
8000c958:	02814023          	sq	s0,32(sp)
8000c95c:	00914823          	sq	s1,16(sp)
8000c960:	01214023          	sq	s2,0(sp)
8000c964:	02114823          	sq	ra,48(sp)
8000c968:	00b54023          	sq	a1,0(a0)
8000c96c:	00c54823          	sq	a2,16(a0)
8000c970:	00000593          	li	a1,0
8000c974:	00050413          	mv	s0,a0
8000c978:	00060913          	mv	s2,a2
8000c97c:	00000493          	li	s1,0
8000c980:	fb5ff0ef          	jal	8000c934 <_ebss+0xffe0bc24>
8000c984:	0124ce63          	blt	s1,s2,8000c9a0 <clint_init+0x4c>
8000c988:	0301208f          	lq	ra,48(sp)
8000c98c:	0201240f          	lq	s0,32(sp)
8000c990:	0101248f          	lq	s1,16(sp)
8000c994:	0001290f          	lq	s2,0(sp)
8000c998:	04010113          	addi	sp,sp,64
8000c99c:	00008067          	ret
8000c9a0:	00048593          	mv	a1,s1
8000c9a4:	fff00613          	li	a2,-1
8000c9a8:	00040513          	mv	a0,s0
8000c9ac:	f61ff0ef          	jal	8000c90c <_ebss+0xffe0bbfc>
8000c9b0:	00048593          	mv	a1,s1
8000c9b4:	00040513          	mv	a0,s0
8000c9b8:	f3dff0ef          	jal	8000c8f4 <_ebss+0xffe0bbe4>
8000c9bc:	0014849b          	addw	s1,s1,1
8000c9c0:	fc5ff06f          	j	8000c984 <_ebss+0xffe0bc74>
8000c9c4:	0000                	.insn	2, 0x0000
	...

8000c9c8 <trap_entry>:
8000c9c8:	d8010113          	addi	sp,sp,-640
8000c9cc:	00a14023          	sq	a0,0(sp)
8000c9d0:	00b14823          	sq	a1,16(sp)
8000c9d4:	02c14023          	sq	a2,32(sp)
8000c9d8:	02d14823          	sq	a3,48(sp)
8000c9dc:	34202573          	csrr	a0,mcause
8000c9e0:	1ea14023          	sq	a0,480(sp)
8000c9e4:	300025f3          	csrr	a1,mstatus
8000c9e8:	1eb14823          	sq	a1,496(sp)
8000c9ec:	34102673          	csrr	a2,mepc
8000c9f0:	20c14023          	sq	a2,512(sp)
8000c9f4:	343026f3          	csrr	a3,mtval
8000c9f8:	20d14823          	sq	a3,528(sp)
8000c9fc:	04e14023          	sq	a4,64(sp)
8000ca00:	04f14823          	sq	a5,80(sp)
8000ca04:	07014023          	sq	a6,96(sp)
8000ca08:	07114823          	sq	a7,112(sp)
8000ca0c:	08814023          	sq	s0,128(sp)
8000ca10:	08914823          	sq	s1,144(sp)
8000ca14:	0b214023          	sq	s2,160(sp)
8000ca18:	0b314823          	sq	s3,176(sp)
8000ca1c:	0d414023          	sq	s4,192(sp)
8000ca20:	0d514823          	sq	s5,208(sp)
8000ca24:	0f614023          	sq	s6,224(sp)
8000ca28:	0f714823          	sq	s7,240(sp)
8000ca2c:	11814023          	sq	s8,256(sp)
8000ca30:	11914823          	sq	s9,272(sp)
8000ca34:	13a14023          	sq	s10,288(sp)
8000ca38:	13b14823          	sq	s11,304(sp)
8000ca3c:	14514023          	sq	t0,320(sp)
8000ca40:	14614823          	sq	t1,336(sp)
8000ca44:	16714023          	sq	t2,352(sp)
8000ca48:	17c14823          	sq	t3,368(sp)
8000ca4c:	19d14023          	sq	t4,384(sp)
8000ca50:	19e14823          	sq	t5,400(sp)
8000ca54:	1bf14023          	sq	t6,416(sp)
8000ca58:	1a114823          	sq	ra,432(sp)
8000ca5c:	1c314023          	sq	gp,448(sp)
8000ca60:	1c414823          	sq	tp,464(sp)
8000ca64:	00010513          	mv	a0,sp
8000ca68:	0a8000ef          	jal	8000cb10 <trap_handler>
8000ca6c:	1e01250f          	lq	a0,480(sp)
8000ca70:	34251073          	csrw	mcause,a0
8000ca74:	1f01250f          	lq	a0,496(sp)
8000ca78:	30051073          	csrw	mstatus,a0
8000ca7c:	2001250f          	lq	a0,512(sp)
8000ca80:	34151073          	csrw	mepc,a0
8000ca84:	2101250f          	lq	a0,528(sp)
8000ca88:	34351073          	csrw	mtval,a0
8000ca8c:	0001250f          	lq	a0,0(sp)
8000ca90:	0101258f          	lq	a1,16(sp)
8000ca94:	0201260f          	lq	a2,32(sp)
8000ca98:	0301268f          	lq	a3,48(sp)
8000ca9c:	0401270f          	lq	a4,64(sp)
8000caa0:	0501278f          	lq	a5,80(sp)
8000caa4:	0601280f          	lq	a6,96(sp)
8000caa8:	0701288f          	lq	a7,112(sp)
8000caac:	0801240f          	lq	s0,128(sp)
8000cab0:	0901248f          	lq	s1,144(sp)
8000cab4:	0a01290f          	lq	s2,160(sp)
8000cab8:	0b01298f          	lq	s3,176(sp)
8000cabc:	0c012a0f          	lq	s4,192(sp)
8000cac0:	0d012a8f          	lq	s5,208(sp)
8000cac4:	0e012b0f          	lq	s6,224(sp)
8000cac8:	0f012b8f          	lq	s7,240(sp)
8000cacc:	10012c0f          	lq	s8,256(sp)
8000cad0:	11012c8f          	lq	s9,272(sp)
8000cad4:	12012d0f          	lq	s10,288(sp)
8000cad8:	13012d8f          	lq	s11,304(sp)
8000cadc:	1401228f          	lq	t0,320(sp)
8000cae0:	1501230f          	lq	t1,336(sp)
8000cae4:	1601238f          	lq	t2,352(sp)
8000cae8:	17012e0f          	lq	t3,368(sp)
8000caec:	18012e8f          	lq	t4,384(sp)
8000caf0:	19012f0f          	lq	t5,400(sp)
8000caf4:	1a012f8f          	lq	t6,416(sp)
8000caf8:	1b01208f          	lq	ra,432(sp)
8000cafc:	1c01218f          	lq	gp,448(sp)
8000cb00:	1d01220f          	lq	tp,464(sp)
8000cb04:	28010113          	addi	sp,sp,640
8000cb08:	30200073          	mret
8000cb0c:	00000013          	nop

8000cb10 <trap_handler>:
8000cb10:	fa010113          	addi	sp,sp,-96
8000cb14:	04814023          	sq	s0,64(sp)
8000cb18:	1e05240f          	lq	s0,480(a0)
8000cb1c:	00100793          	li	a5,1
8000cb20:	01f79713          	slli	a4,a5,0x1f
8000cb24:	02914823          	sq	s1,48(sp)
8000cb28:	03214023          	sq	s2,32(sp)
8000cb2c:	04114823          	sq	ra,80(sp)
8000cb30:	00e476b3          	and	a3,s0,a4
8000cb34:	1f05258f          	lq	a1,496(a0)
8000cb38:	2005260f          	lq	a2,512(a0)
8000cb3c:	2105290f          	lq	s2,528(a0)
8000cb40:	00050493          	mv	s1,a0
8000cb44:	0c068a63          	beqz	a3,8000cc18 <trap_handler+0x108>
8000cb48:	00770793          	addi	a5,a4,7
8000cb4c:	06f40a63          	beq	s0,a5,8000cbc0 <trap_handler+0xb0>
8000cb50:	00b70793          	addi	a5,a4,11
8000cb54:	08f40c63          	beq	s0,a5,8000cbec <trap_handler+0xdc>
8000cb58:	00370713          	addi	a4,a4,3
8000cb5c:	00001517          	auipc	a0,0x1
8000cb60:	eb450513          	addi	a0,a0,-332 # 8000da10 <__clz_tab+0x190>
8000cb64:	04e41863          	bne	s0,a4,8000cbb4 <trap_handler+0xa4>
8000cb68:	f14027f3          	csrr	a5,mhartid
8000cb6c:	0007879b          	sext.w	a5,a5
8000cb70:	00479793          	slli	a5,a5,0x4
8000cb74:	001f4717          	auipc	a4,0x1f4
8000cb78:	15c70713          	addi	a4,a4,348 # 80200cd0 <__per_core_irq_ipi_handler>
8000cb7c:	00f707b3          	add	a5,a4,a5
8000cb80:	0007a78f          	lq	a5,0(a5)
8000cb84:	02078463          	beqz	a5,8000cbac <trap_handler+0x9c>
8000cb88:	00040513          	mv	a0,s0
8000cb8c:	000780e7          	jalr	a5
8000cb90:	0501208f          	lq	ra,80(sp)
8000cb94:	0401240f          	lq	s0,64(sp)
8000cb98:	20a4c023          	sq	a0,512(s1)
8000cb9c:	0201290f          	lq	s2,32(sp)
8000cba0:	0301248f          	lq	s1,48(sp)
8000cba4:	06010113          	addi	sp,sp,96
8000cba8:	00008067          	ret
8000cbac:	00001517          	auipc	a0,0x1
8000cbb0:	dd450513          	addi	a0,a0,-556 # 8000d980 <__clz_tab+0x100>
8000cbb4:	5a0000ef          	jal	8000d154 <puts>
8000cbb8:	00100513          	li	a0,1
8000cbbc:	eadf70ef          	jal	80004a68 <_ebss+0xffe03d58>
8000cbc0:	f14027f3          	csrr	a5,mhartid
8000cbc4:	0007879b          	sext.w	a5,a5
8000cbc8:	00479793          	slli	a5,a5,0x4
8000cbcc:	001f4717          	auipc	a4,0x1f4
8000cbd0:	0f470713          	addi	a4,a4,244 # 80200cc0 <__per_core_irq_tim_handler>
8000cbd4:	00f707b3          	add	a5,a4,a5
8000cbd8:	0007a78f          	lq	a5,0(a5)
8000cbdc:	fa0796e3          	bnez	a5,8000cb88 <_ebss+0xffe0be78>
8000cbe0:	00001517          	auipc	a0,0x1
8000cbe4:	dd050513          	addi	a0,a0,-560 # 8000d9b0 <__clz_tab+0x130>
8000cbe8:	fcdff06f          	j	8000cbb4 <_ebss+0xffe0bea4>
8000cbec:	f14027f3          	csrr	a5,mhartid
8000cbf0:	0007879b          	sext.w	a5,a5
8000cbf4:	00479793          	slli	a5,a5,0x4
8000cbf8:	001f4717          	auipc	a4,0x1f4
8000cbfc:	0b870713          	addi	a4,a4,184 # 80200cb0 <__per_core_irq_ext_handler>
8000cc00:	00f707b3          	add	a5,a4,a5
8000cc04:	0007a78f          	lq	a5,0(a5)
8000cc08:	f80790e3          	bnez	a5,8000cb88 <_ebss+0xffe0be78>
8000cc0c:	00001517          	auipc	a0,0x1
8000cc10:	dd450513          	addi	a0,a0,-556 # 8000d9e0 <__clz_tab+0x160>
8000cc14:	fa1ff06f          	j	8000cbb4 <_ebss+0xffe0bea4>
8000cc18:	00f00713          	li	a4,15
8000cc1c:	10876663          	bltu	a4,s0,8000cd28 <trap_handler+0x218>
8000cc20:	00001737          	lui	a4,0x1
8000cc24:	008797b3          	sll	a5,a5,s0
8000cc28:	00770713          	addi	a4,a4,7 # 1007 <UART_BASE-0xfffeff9>
8000cc2c:	00e7f733          	and	a4,a5,a4
8000cc30:	04071c63          	bnez	a4,8000cc88 <trap_handler+0x178>
8000cc34:	00008737          	lui	a4,0x8
8000cc38:	0c070713          	addi	a4,a4,192 # 80c0 <UART_BASE-0xfff7f40>
8000cc3c:	00e7f733          	and	a4,a5,a4
8000cc40:	0a071a63          	bnez	a4,8000ccf4 <trap_handler+0x1e4>
8000cc44:	00002737          	lui	a4,0x2
8000cc48:	03070713          	addi	a4,a4,48 # 2030 <UART_BASE-0xfffdfd0>
8000cc4c:	00e7f7b3          	and	a5,a5,a4
8000cc50:	0c078c63          	beqz	a5,8000cd28 <trap_handler+0x218>
8000cc54:	f14027f3          	csrr	a5,mhartid
8000cc58:	0007879b          	sext.w	a5,a5
8000cc5c:	00479793          	slli	a5,a5,0x4
8000cc60:	001f4717          	auipc	a4,0x1f4
8000cc64:	04070713          	addi	a4,a4,64 # 80200ca0 <__per_core_exc_ld_flt_handler>
8000cc68:	00f707b3          	add	a5,a4,a5
8000cc6c:	0007a78f          	lq	a5,0(a5)
8000cc70:	02079c63          	bnez	a5,8000cca8 <trap_handler+0x198>
8000cc74:	00c14823          	sq	a2,16(sp)
8000cc78:	00b14023          	sq	a1,0(sp)
8000cc7c:	00001517          	auipc	a0,0x1
8000cc80:	de450513          	addi	a0,a0,-540 # 8000da60 <__clz_tab+0x1e0>
8000cc84:	0440006f          	j	8000ccc8 <trap_handler+0x1b8>
8000cc88:	f14027f3          	csrr	a5,mhartid
8000cc8c:	0007879b          	sext.w	a5,a5
8000cc90:	00479793          	slli	a5,a5,0x4
8000cc94:	001f4717          	auipc	a4,0x1f4
8000cc98:	fec70713          	addi	a4,a4,-20 # 80200c80 <__per_core_exc_instr_flt_handler>
8000cc9c:	00f707b3          	add	a5,a4,a5
8000cca0:	0007a78f          	lq	a5,0(a5)
8000cca4:	00078a63          	beqz	a5,8000ccb8 <trap_handler+0x1a8>
8000cca8:	00090693          	mv	a3,s2
8000ccac:	00040513          	mv	a0,s0
8000ccb0:	000780e7          	jalr	a5
8000ccb4:	eddff06f          	j	8000cb90 <_ebss+0xffe0be80>
8000ccb8:	00c14823          	sq	a2,16(sp)
8000ccbc:	00b14023          	sq	a1,0(sp)
8000ccc0:	00001517          	auipc	a0,0x1
8000ccc4:	d7050513          	addi	a0,a0,-656 # 8000da30 <__clz_tab+0x1b0>
8000ccc8:	48c000ef          	jal	8000d154 <puts>
8000cccc:	0001258f          	lq	a1,0(sp)
8000ccd0:	0101260f          	lq	a2,16(sp)
8000ccd4:	00060693          	mv	a3,a2
8000ccd8:	00090713          	mv	a4,s2
8000ccdc:	00058613          	mv	a2,a1
8000cce0:	00001517          	auipc	a0,0x1
8000cce4:	e1050513          	addi	a0,a0,-496 # 8000daf0 <__clz_tab+0x270>
8000cce8:	00040593          	mv	a1,s0
8000ccec:	e61f70ef          	jal	80004b4c <_ebss+0xffe03e3c>
8000ccf0:	ec9ff06f          	j	8000cbb8 <_ebss+0xffe0bea8>
8000ccf4:	f14027f3          	csrr	a5,mhartid
8000ccf8:	0007879b          	sext.w	a5,a5
8000ccfc:	00479793          	slli	a5,a5,0x4
8000cd00:	001f4717          	auipc	a4,0x1f4
8000cd04:	f9070713          	addi	a4,a4,-112 # 80200c90 <__per_core_exc_st_flt_handler>
8000cd08:	00f707b3          	add	a5,a4,a5
8000cd0c:	0007a78f          	lq	a5,0(a5)
8000cd10:	f8079ce3          	bnez	a5,8000cca8 <_ebss+0xffe0bf98>
8000cd14:	00c14823          	sq	a2,16(sp)
8000cd18:	00b14023          	sq	a1,0(sp)
8000cd1c:	00001517          	auipc	a0,0x1
8000cd20:	d7450513          	addi	a0,a0,-652 # 8000da90 <__clz_tab+0x210>
8000cd24:	fa5ff06f          	j	8000ccc8 <_ebss+0xffe0bfb8>
8000cd28:	00001517          	auipc	a0,0x1
8000cd2c:	d9850513          	addi	a0,a0,-616 # 8000dac0 <__clz_tab+0x240>
8000cd30:	00c14823          	sq	a2,16(sp)
8000cd34:	00b14023          	sq	a1,0(sp)
8000cd38:	41c000ef          	jal	8000d154 <puts>
8000cd3c:	0101260f          	lq	a2,16(sp)
8000cd40:	0001258f          	lq	a1,0(sp)
8000cd44:	f91ff06f          	j	8000ccd4 <_ebss+0xffe0bfc4>

8000cd48 <simple_getchar>:
8000cd48:	00000513          	li	a0,0
8000cd4c:	00008067          	ret

8000cd50 <simple_putchar>:
8000cd50:	8fff3797          	auipc	a5,0x8fff3
8000cd54:	2aa78823          	sb	a0,688(a5) # 10000000 <_ebss+0x8fdff2f0>
8000cd58:	0330000f          	fence	rw,rw
8000cd5c:	00008067          	ret

8000cd60 <bsp_mp_init>:
8000cd60:	ff010113          	addi	sp,sp,-16
8000cd64:	20000613          	li	a2,512
8000cd68:	0ff00593          	li	a1,255
8000cd6c:	001f4517          	auipc	a0,0x1f4
8000cd70:	d1450513          	addi	a0,a0,-748 # 80200a80 <cpu_hid2sid>
8000cd74:	00114023          	sq	ra,0(sp)
8000cd78:	b0df70ef          	jal	80004884 <_ebss+0xffe03b74>
8000cd7c:	20000613          	li	a2,512
8000cd80:	0ff00593          	li	a1,255
8000cd84:	001f4517          	auipc	a0,0x1f4
8000cd88:	afc50513          	addi	a0,a0,-1284 # 80200880 <cpu_sid2hid>
8000cd8c:	af9f70ef          	jal	80004884 <_ebss+0xffe03b74>
8000cd90:	001f4797          	auipc	a5,0x1f4
8000cd94:	ce079823          	sh	zero,-784(a5) # 80200a80 <cpu_hid2sid>
8000cd98:	001f4797          	auipc	a5,0x1f4
8000cd9c:	ae079423          	sh	zero,-1304(a5) # 80200880 <cpu_sid2hid>
8000cda0:	001f4797          	auipc	a5,0x1f4
8000cda4:	aa07a023          	sw	zero,-1376(a5) # 80200840 <cpu_list+0x40>
8000cda8:	0330000f          	fence	rw,rw
8000cdac:	0001208f          	lq	ra,0(sp)
8000cdb0:	01010113          	addi	sp,sp,16
8000cdb4:	00008067          	ret

8000cdb8 <bsp_init>:
8000cdb8:	00000797          	auipc	a5,0x0
8000cdbc:	f9878793          	addi	a5,a5,-104 # 8000cd50 <simple_putchar>
8000cdc0:	001f4717          	auipc	a4,0x1f4
8000cdc4:	a0f74023          	sq	a5,-1536(a4) # 802007c0 <_putchar>
8000cdc8:	00000797          	auipc	a5,0x0
8000cdcc:	f8078793          	addi	a5,a5,-128 # 8000cd48 <simple_getchar>
8000cdd0:	ff010113          	addi	sp,sp,-16
8000cdd4:	001f4717          	auipc	a4,0x1f4
8000cdd8:	9cf74e23          	sq	a5,-1572(a4) # 802007b0 <_getchar>
8000cddc:	00000797          	auipc	a5,0x0
8000cde0:	05478793          	addi	a5,a5,84 # 8000ce30 <bsp_tohost_exit>
8000cde4:	00114023          	sq	ra,0(sp)
8000cde8:	001f4717          	auipc	a4,0x1f4
8000cdec:	9af74c23          	sq	a5,-1608(a4) # 802007a0 <_tohost_exit>
8000cdf0:	00100793          	li	a5,1
8000cdf4:	32379073          	csrw	mhpmevent3,a5
8000cdf8:	00200793          	li	a5,2
8000cdfc:	32479073          	csrw	mhpmevent4,a5
8000ce00:	f61ff0ef          	jal	8000cd60 <_ebss+0xffe0c050>
8000ce04:	0001208f          	lq	ra,0(sp)
8000ce08:	01010113          	addi	sp,sp,16
8000ce0c:	0100006f          	j	8000ce1c <bsp_irq_init>

8000ce10 <bsp_get_clint_driver>:
8000ce10:	001f4517          	auipc	a0,0x1f4
8000ce14:	ed050513          	addi	a0,a0,-304 # 80200ce0 <clint.0>
8000ce18:	00008067          	ret

8000ce1c <bsp_irq_init>:
8000ce1c:	00100613          	li	a2,1
8000ce20:	020005b7          	lui	a1,0x2000
8000ce24:	001f4517          	auipc	a0,0x1f4
8000ce28:	ebc50513          	addi	a0,a0,-324 # 80200ce0 <clint.0>
8000ce2c:	b29ff06f          	j	8000c954 <_ebss+0xffe0bc44>

8000ce30 <bsp_tohost_exit>:
8000ce30:	00001717          	auipc	a4,0x1
8000ce34:	df070713          	addi	a4,a4,-528 # 8000dc20 <tohost>
8000ce38:	02051263          	bnez	a0,8000ce5c <bsp_tohost_exit+0x2c>
8000ce3c:	00100793          	li	a5,1
8000ce40:	00f74023          	sq	a5,0(a4)
8000ce44:	0330000f          	fence	rw,rw
8000ce48:	000057b7          	lui	a5,0x5
8000ce4c:	55578793          	addi	a5,a5,1365 # 5555 <UART_BASE-0xfffaaab>
8000ce50:	001002b7          	lui	t0,0x100
8000ce54:	00f2a023          	sw	a5,0(t0) # 100000 <UART_BASE-0xff00000>
8000ce58:	0000006f          	j	8000ce58 <bsp_tohost_exit+0x28>
8000ce5c:	2eb437b7          	lui	a5,0x2eb43
8000ce60:	00279793          	slli	a5,a5,0x2
8000ce64:	ad178793          	addi	a5,a5,-1327 # 2eb42ad1 <UART_BASE+0x1eb42ad1>
8000ce68:	00f74023          	sq	a5,0(a4)
8000ce6c:	0330000f          	fence	rw,rw
8000ce70:	000037b7          	lui	a5,0x3
8000ce74:	33378793          	addi	a5,a5,819 # 3333 <UART_BASE-0xfffcccd>
8000ce78:	fd9ff06f          	j	8000ce50 <_ebss+0xffe0c140>

8000ce7c <__libc_init_array>:
8000ce7c:	fc010113          	addi	sp,sp,-64
8000ce80:	02114823          	sq	ra,48(sp)
8000ce84:	02814023          	sq	s0,32(sp)
8000ce88:	04010413          	addi	s0,sp,64
8000ce8c:	00001717          	auipc	a4,0x1
8000ce90:	ca470713          	addi	a4,a4,-860 # 8000db30 <_etext>
8000ce94:	00001797          	auipc	a5,0x1
8000ce98:	c9c78793          	addi	a5,a5,-868 # 8000db30 <_etext>
8000ce9c:	40f70733          	sub	a4,a4,a5
8000cea0:	01000793          	li	a5,16
8000cea4:	02f747b3          	div	a5,a4,a5
8000cea8:	fcf44023          	sq	a5,-64(s0)
8000ceac:	fc044823          	sq	zero,-48(s0)
8000ceb0:	02c0006f          	j	8000cedc <__libc_init_array+0x60>
8000ceb4:	00001717          	auipc	a4,0x1
8000ceb8:	c7c70713          	addi	a4,a4,-900 # 8000db30 <_etext>
8000cebc:	fd04278f          	lq	a5,-48(s0)
8000cec0:	00479793          	slli	a5,a5,0x4
8000cec4:	00f707b3          	add	a5,a4,a5
8000cec8:	0007a78f          	lq	a5,0(a5)
8000cecc:	000780e7          	jalr	a5
8000ced0:	fd04278f          	lq	a5,-48(s0)
8000ced4:	00178793          	addi	a5,a5,1
8000ced8:	fcf44823          	sq	a5,-48(s0)
8000cedc:	fd04270f          	lq	a4,-48(s0)
8000cee0:	fc04278f          	lq	a5,-64(s0)
8000cee4:	fcf768e3          	bltu	a4,a5,8000ceb4 <_ebss+0xffe0c1a4>
8000cee8:	00001717          	auipc	a4,0x1
8000ceec:	c4870713          	addi	a4,a4,-952 # 8000db30 <_etext>
8000cef0:	00001797          	auipc	a5,0x1
8000cef4:	c4078793          	addi	a5,a5,-960 # 8000db30 <_etext>
8000cef8:	40f70733          	sub	a4,a4,a5
8000cefc:	01000793          	li	a5,16
8000cf00:	02f747b3          	div	a5,a4,a5
8000cf04:	fcf44023          	sq	a5,-64(s0)
8000cf08:	fc044823          	sq	zero,-48(s0)
8000cf0c:	02c0006f          	j	8000cf38 <__libc_init_array+0xbc>
8000cf10:	00001717          	auipc	a4,0x1
8000cf14:	c2070713          	addi	a4,a4,-992 # 8000db30 <_etext>
8000cf18:	fd04278f          	lq	a5,-48(s0)
8000cf1c:	00479793          	slli	a5,a5,0x4
8000cf20:	00f707b3          	add	a5,a4,a5
8000cf24:	0007a78f          	lq	a5,0(a5)
8000cf28:	000780e7          	jalr	a5
8000cf2c:	fd04278f          	lq	a5,-48(s0)
8000cf30:	00178793          	addi	a5,a5,1
8000cf34:	fcf44823          	sq	a5,-48(s0)
8000cf38:	fd04270f          	lq	a4,-48(s0)
8000cf3c:	fc04278f          	lq	a5,-64(s0)
8000cf40:	fcf768e3          	bltu	a4,a5,8000cf10 <_ebss+0xffe0c200>
8000cf44:	00000013          	nop
8000cf48:	00000013          	nop
8000cf4c:	0301208f          	lq	ra,48(sp)
8000cf50:	0201240f          	lq	s0,32(sp)
8000cf54:	04010113          	addi	sp,sp,64
8000cf58:	00008067          	ret

8000cf5c <__sputc_r>:
8000cf5c:	fb010113          	addi	sp,sp,-80
8000cf60:	04114023          	sq	ra,64(sp)
8000cf64:	02814823          	sq	s0,48(sp)
8000cf68:	05010413          	addi	s0,sp,80
8000cf6c:	fca44823          	sq	a0,-48(s0)
8000cf70:	00058793          	mv	a5,a1
8000cf74:	fac44823          	sq	a2,-80(s0)
8000cf78:	fcf42623          	sw	a5,-52(s0)
8000cf7c:	fb04278f          	lq	a5,-80(s0)
8000cf80:	0147a783          	lw	a5,20(a5)
8000cf84:	fff7879b          	addw	a5,a5,-1
8000cf88:	0007871b          	sext.w	a4,a5
8000cf8c:	fb04278f          	lq	a5,-80(s0)
8000cf90:	00e7aa23          	sw	a4,20(a5)
8000cf94:	fb04278f          	lq	a5,-80(s0)
8000cf98:	0147a783          	lw	a5,20(a5)
8000cf9c:	0207d663          	bgez	a5,8000cfc8 <__sputc_r+0x6c>
8000cfa0:	fb04278f          	lq	a5,-80(s0)
8000cfa4:	0147a703          	lw	a4,20(a5)
8000cfa8:	fb04278f          	lq	a5,-80(s0)
8000cfac:	0407a783          	lw	a5,64(a5)
8000cfb0:	04f74263          	blt	a4,a5,8000cff4 <__sputc_r+0x98>
8000cfb4:	fcc42783          	lw	a5,-52(s0)
8000cfb8:	0ff7f793          	zext.b	a5,a5
8000cfbc:	00078713          	mv	a4,a5
8000cfc0:	00a00793          	li	a5,10
8000cfc4:	02f70863          	beq	a4,a5,8000cff4 <__sputc_r+0x98>
8000cfc8:	fb04278f          	lq	a5,-80(s0)
8000cfcc:	0007a78f          	lq	a5,0(a5)
8000cfd0:	00178693          	addi	a3,a5,1
8000cfd4:	fb04270f          	lq	a4,-80(s0)
8000cfd8:	00d74023          	sq	a3,0(a4)
8000cfdc:	fcc42703          	lw	a4,-52(s0)
8000cfe0:	0ff77713          	zext.b	a4,a4
8000cfe4:	00e78023          	sb	a4,0(a5)
8000cfe8:	0007c783          	lbu	a5,0(a5)
8000cfec:	0007879b          	sext.w	a5,a5
8000cff0:	01c0006f          	j	8000d00c <__sputc_r+0xb0>
8000cff4:	fcc42783          	lw	a5,-52(s0)
8000cff8:	fb04260f          	lq	a2,-80(s0)
8000cffc:	00078593          	mv	a1,a5
8000d000:	fd04250f          	lq	a0,-48(s0)
8000d004:	e61fb0ef          	jal	80008e64 <_ebss+0xffe08154>
8000d008:	00050793          	mv	a5,a0
8000d00c:	00078513          	mv	a0,a5
8000d010:	0401208f          	lq	ra,64(sp)
8000d014:	0301240f          	lq	s0,48(sp)
8000d018:	05010113          	addi	sp,sp,80
8000d01c:	00008067          	ret

8000d020 <_puts_r>:
8000d020:	f8010113          	addi	sp,sp,-128
8000d024:	06114823          	sq	ra,112(sp)
8000d028:	06814023          	sq	s0,96(sp)
8000d02c:	08010413          	addi	s0,sp,128
8000d030:	f8a44823          	sq	a0,-112(s0)
8000d034:	f8b44023          	sq	a1,-128(s0)
8000d038:	fff00793          	li	a5,-1
8000d03c:	fcf42e23          	sw	a5,-36(s0)
8000d040:	f804278f          	lq	a5,-128(s0)
8000d044:	fcf44023          	sq	a5,-64(s0)
8000d048:	f904278f          	lq	a5,-112(s0)
8000d04c:	0207a78f          	lq	a5,32(a5)
8000d050:	faf44823          	sq	a5,-80(s0)
8000d054:	f904278f          	lq	a5,-112(s0)
8000d058:	faf44023          	sq	a5,-96(s0)
8000d05c:	fa04278f          	lq	a5,-96(s0)
8000d060:	00078c63          	beqz	a5,8000d078 <_puts_r+0x58>
8000d064:	fa04278f          	lq	a5,-96(s0)
8000d068:	0807a78f          	lq	a5,128(a5)
8000d06c:	00079663          	bnez	a5,8000d078 <_puts_r+0x58>
8000d070:	fa04250f          	lq	a0,-96(s0)
8000d074:	88cfb0ef          	jal	80008100 <_ebss+0xffe073f0>
8000d078:	fb04278f          	lq	a5,-80(s0)
8000d07c:	01879783          	lh	a5,24(a5)
8000d080:	07079793          	slli	a5,a5,0x70
8000d084:	0707d793          	srli	a5,a5,0x70
8000d088:	0007879b          	sext.w	a5,a5
8000d08c:	0087f793          	andi	a5,a5,8
8000d090:	0007879b          	sext.w	a5,a5
8000d094:	00078863          	beqz	a5,8000d0a4 <_puts_r+0x84>
8000d098:	fb04278f          	lq	a5,-80(s0)
8000d09c:	0207a78f          	lq	a5,32(a5)
8000d0a0:	04079863          	bnez	a5,8000d0f0 <_puts_r+0xd0>
8000d0a4:	fb04258f          	lq	a1,-80(s0)
8000d0a8:	f904250f          	lq	a0,-112(s0)
8000d0ac:	895fb0ef          	jal	80008940 <_ebss+0xffe07c30>
8000d0b0:	00050793          	mv	a5,a0
8000d0b4:	06079a63          	bnez	a5,8000d128 <_puts_r+0x108>
8000d0b8:	0380006f          	j	8000d0f0 <_puts_r+0xd0>
8000d0bc:	fc04278f          	lq	a5,-64(s0)
8000d0c0:	00178713          	addi	a4,a5,1
8000d0c4:	fce44023          	sq	a4,-64(s0)
8000d0c8:	0007c783          	lbu	a5,0(a5)
8000d0cc:	0007879b          	sext.w	a5,a5
8000d0d0:	fb04260f          	lq	a2,-80(s0)
8000d0d4:	00078593          	mv	a1,a5
8000d0d8:	f904250f          	lq	a0,-112(s0)
8000d0dc:	e81ff0ef          	jal	8000cf5c <_ebss+0xffe0c24c>
8000d0e0:	00050793          	mv	a5,a0
8000d0e4:	00078713          	mv	a4,a5
8000d0e8:	fff00793          	li	a5,-1
8000d0ec:	04f70263          	beq	a4,a5,8000d130 <_puts_r+0x110>
8000d0f0:	fc04278f          	lq	a5,-64(s0)
8000d0f4:	0007c783          	lbu	a5,0(a5)
8000d0f8:	fc0792e3          	bnez	a5,8000d0bc <_ebss+0xffe0c3ac>
8000d0fc:	fb04260f          	lq	a2,-80(s0)
8000d100:	00a00593          	li	a1,10
8000d104:	f904250f          	lq	a0,-112(s0)
8000d108:	e55ff0ef          	jal	8000cf5c <_ebss+0xffe0c24c>
8000d10c:	00050793          	mv	a5,a0
8000d110:	00078713          	mv	a4,a5
8000d114:	fff00793          	li	a5,-1
8000d118:	02f70063          	beq	a4,a5,8000d138 <_puts_r+0x118>
8000d11c:	00a00793          	li	a5,10
8000d120:	fcf42e23          	sw	a5,-36(s0)
8000d124:	0180006f          	j	8000d13c <_puts_r+0x11c>
8000d128:	00000013          	nop
8000d12c:	0100006f          	j	8000d13c <_puts_r+0x11c>
8000d130:	00000013          	nop
8000d134:	0080006f          	j	8000d13c <_puts_r+0x11c>
8000d138:	00000013          	nop
8000d13c:	fdc42783          	lw	a5,-36(s0)
8000d140:	00078513          	mv	a0,a5
8000d144:	0701208f          	lq	ra,112(sp)
8000d148:	0601240f          	lq	s0,96(sp)
8000d14c:	08010113          	addi	sp,sp,128
8000d150:	00008067          	ret

8000d154 <puts>:
8000d154:	fd010113          	addi	sp,sp,-48
8000d158:	02114023          	sq	ra,32(sp)
8000d15c:	00814823          	sq	s0,16(sp)
8000d160:	03010413          	addi	s0,sp,48
8000d164:	fca44823          	sq	a0,-48(s0)
8000d168:	001f3797          	auipc	a5,0x1f3
8000d16c:	fb878793          	addi	a5,a5,-72 # 80200120 <_impure_ptr>
8000d170:	0007a78f          	lq	a5,0(a5)
8000d174:	fd04258f          	lq	a1,-48(s0)
8000d178:	00078513          	mv	a0,a5
8000d17c:	ea5ff0ef          	jal	8000d020 <_ebss+0xffe0c310>
8000d180:	00050793          	mv	a5,a0
8000d184:	00078513          	mv	a0,a5
8000d188:	0201208f          	lq	ra,32(sp)
8000d18c:	0101240f          	lq	s0,16(sp)
8000d190:	03010113          	addi	sp,sp,48
8000d194:	00008067          	ret
	...
8000d1a0:	6425                	.insn	2, 0x6425
8000d1a2:	0020                	.insn	2, 0x0020
	...
8000d1b0:	000a                	.insn	2, 0x000a
	...
8000d1be:	0000                	.insn	2, 0x0000
8000d1c0:	3025                	.insn	2, 0x3025
8000d1c2:	362e                	.insn	2, 0x362e
8000d1c4:	0a66                	.insn	2, 0x0a66
	...
8000d1ce:	0000                	.insn	2, 0x0000
8000d1d0:	6c6f505b          	.insn	4, 0x6c6f505b
8000d1d4:	4279                	.insn	2, 0x4279
8000d1d6:	6e65                	.insn	2, 0x6e65
8000d1d8:	205d6863          	bltu	s10,t0,8000d3e8 <puts+0x294>
8000d1dc:	6f70                	.insn	2, 0x6f70
8000d1de:	5f786973          	.insn	4, 0x5f786973
8000d1e2:	656d                	.insn	2, 0x656d
8000d1e4:	616d                	.insn	2, 0x616d
8000d1e6:	696c                	.insn	2, 0x696c
8000d1e8:	203a6e67          	.insn	4, 0x203a6e67
8000d1ec:	6e6e6163          	bltu	t3,t1,8000d8ce <__clz_tab+0x4e>
8000d1f0:	6120746f          	jal	s0,80014802 <_end+0x2bc2>
8000d1f4:	6c6c                	.insn	2, 0x6c6c
8000d1f6:	7461636f          	jal	t1,8002393c <_end+0x11cfc>
8000d1fa:	2065                	.insn	2, 0x2065
8000d1fc:	656d                	.insn	2, 0x656d
8000d1fe:	6f6d                	.insn	2, 0x6f6d
8000d200:	7972                	.insn	2, 0x7972
	...
8000d20e:	0000                	.insn	2, 0x0000
8000d210:	4e49                	.insn	2, 0x4e49
8000d212:	0046                	.insn	2, 0x0046
	...
8000d220:	6e69                	.insn	2, 0x6e69
8000d222:	0066                	.insn	2, 0x0066
	...
8000d230:	414e                	.insn	2, 0x414e
8000d232:	004e                	.insn	2, 0x004e
	...
8000d240:	616e                	.insn	2, 0x616e
8000d242:	006e                	.insn	2, 0x006e
	...
8000d250:	0030                	.insn	2, 0x0030
8000d252:	0000                	.insn	2, 0x0000
8000d254:	0000                	.insn	2, 0x0000
8000d256:	0000                	.insn	2, 0x0000
8000d258:	ffff                	.insn	2, 0xffff
8000d25a:	ffff                	.insn	2, 0xffff
8000d25c:	ffff                	.insn	2, 0xffff
8000d25e:	45527fef          	jal	t6,80034eb2 <_end+0x23272>
8000d262:	4e45                	.insn	2, 0x4e45
8000d264:	2054                	.insn	2, 0x2054
8000d266:	616d                	.insn	2, 0x616d
8000d268:	6c6c                	.insn	2, 0x6c6c
8000d26a:	7320636f          	jal	t1,8001399c <_end+0x1d5c>
8000d26e:	6375                	.insn	2, 0x6375
8000d270:	64656563          	bltu	a0,t1,8000d8ba <__clz_tab+0x3a>
8000d274:	6465                	.insn	2, 0x6465
	...
8000d27e:	0000                	.insn	2, 0x0000
8000d280:	2e2e                	.insn	2, 0x2e2e
8000d282:	2f2e2e2f          	.insn	4, 0x2f2e2e2f
8000d286:	2e2e                	.insn	2, 0x2e2e
8000d288:	2f2e2e2f          	.insn	4, 0x2f2e2e2f
8000d28c:	2e2e                	.insn	2, 0x2e2e
8000d28e:	77656e2f          	.insn	4, 0x77656e2f
8000d292:	696c                	.insn	2, 0x696c
8000d294:	2f62                	.insn	2, 0x2f62
8000d296:	696c                	.insn	2, 0x696c
8000d298:	6362                	.insn	2, 0x6362
8000d29a:	6474732f          	.insn	4, 0x6474732f
8000d29e:	696c                	.insn	2, 0x696c
8000d2a0:	2f62                	.insn	2, 0x2f62
8000d2a2:	7464                	.insn	2, 0x7464
8000d2a4:	632e616f          	jal	sp,800f38d6 <_end+0xe1c96>
	...
8000d2b0:	6e49                	.insn	2, 0x6e49
8000d2b2:	6966                	.insn	2, 0x6966
8000d2b4:	696e                	.insn	2, 0x696e
8000d2b6:	7974                	.insn	2, 0x7974
	...
8000d2c0:	614e                	.insn	2, 0x614e
8000d2c2:	004e                	.insn	2, 0x004e
	...
8000d2d0:	0030                	.insn	2, 0x0030
	...
8000d2de:	0000                	.insn	2, 0x0000
8000d2e0:	6142                	.insn	2, 0x6142
8000d2e2:	6c6c                	.insn	2, 0x6c6c
8000d2e4:	7320636f          	jal	t1,80013a16 <_end+0x1dd6>
8000d2e8:	6375                	.insn	2, 0x6375
8000d2ea:	64656563          	bltu	a0,t1,8000d934 <__clz_tab+0xb4>
8000d2ee:	6465                	.insn	2, 0x6465
8000d2f0:	0000                	.insn	2, 0x0000
8000d2f2:	0000                	.insn	2, 0x0000
8000d2f4:	53d0                	.insn	2, 0x53d0
8000d2f6:	ffff                	.insn	2, 0xffff
8000d2f8:	53d0                	.insn	2, 0x53d0
8000d2fa:	ffff                	.insn	2, 0xffff
8000d2fc:	53e0                	.insn	2, 0x53e0
8000d2fe:	ffff                	.insn	2, 0xffff
8000d300:	5414                	.insn	2, 0x5414
8000d302:	ffff                	.insn	2, 0xffff
8000d304:	53e4                	.insn	2, 0x53e4
8000d306:	ffff                	.insn	2, 0xffff
8000d308:	5418                	.insn	2, 0x5418
8000d30a:	ffff                	.insn	2, 0xffff
	...
8000d314:	0000                	.insn	2, 0x0000
8000d316:	3ff8                	.insn	2, 0x3ff8
8000d318:	4361                	.insn	2, 0x4361
8000d31a:	87a7636f          	jal	t1,7ff83394 <_ebss+0xffd82684>
8000d31e:	3fd2                	.insn	2, 0x3fd2
8000d320:	8b60c8b3          	.insn	4, 0x8b60c8b3
8000d324:	8a28                	.insn	2, 0x8a28
8000d326:	3fc6                	.insn	2, 0x3fc6
8000d328:	509f79fb          	.insn	4, 0x509f79fb
8000d32c:	3fd34413          	xor	s0,t1,1021
8000d330:	0000                	.insn	2, 0x0000
8000d332:	0000                	.insn	2, 0x0000
8000d334:	0000                	.insn	2, 0x0000
8000d336:	3ff0                	.insn	2, 0x3ff0
8000d338:	0000                	.insn	2, 0x0000
8000d33a:	0000                	.insn	2, 0x0000
8000d33c:	0000                	.insn	2, 0x0000
8000d33e:	4024                	.insn	2, 0x4024
8000d340:	0000                	.insn	2, 0x0000
8000d342:	0000                	.insn	2, 0x0000
8000d344:	0000                	.insn	2, 0x0000
8000d346:	401c                	.insn	2, 0x401c
8000d348:	0000                	.insn	2, 0x0000
8000d34a:	0000                	.insn	2, 0x0000
8000d34c:	0000                	.insn	2, 0x0000
8000d34e:	4014                	.insn	2, 0x4014
8000d350:	0000                	.insn	2, 0x0000
8000d352:	0000                	.insn	2, 0x0000
8000d354:	0000                	.insn	2, 0x0000
8000d356:	3fe0                	.insn	2, 0x3fe0
	...
8000d360:	3130                	.insn	2, 0x3130
8000d362:	3332                	.insn	2, 0x3332
8000d364:	3534                	.insn	2, 0x3534
8000d366:	3736                	.insn	2, 0x3736
8000d368:	3938                	.insn	2, 0x3938
8000d36a:	4241                	.insn	2, 0x4241
8000d36c:	46454443          	.insn	4, 0x46454443
	...
8000d380:	3130                	.insn	2, 0x3130
8000d382:	3332                	.insn	2, 0x3332
8000d384:	3534                	.insn	2, 0x3534
8000d386:	3736                	.insn	2, 0x3736
8000d388:	3938                	.insn	2, 0x3938
8000d38a:	6261                	.insn	2, 0x6261
8000d38c:	66656463          	bltu	a0,t1,8000d9f4 <__clz_tab+0x174>
8000d390:	0000                	.insn	2, 0x0000
8000d392:	0000                	.insn	2, 0x0000
8000d394:	6ffc                	.insn	2, 0x6ffc
8000d396:	ffff                	.insn	2, 0xffff
8000d398:	7394                	.insn	2, 0x7394
8000d39a:	ffff                	.insn	2, 0xffff
8000d39c:	7394                	.insn	2, 0x7394
8000d39e:	ffff                	.insn	2, 0xffff
8000d3a0:	7394                	.insn	2, 0x7394
8000d3a2:	ffff                	.insn	2, 0xffff
8000d3a4:	7394                	.insn	2, 0x7394
8000d3a6:	ffff                	.insn	2, 0xffff
8000d3a8:	7394                	.insn	2, 0x7394
8000d3aa:	ffff                	.insn	2, 0xffff
8000d3ac:	7394                	.insn	2, 0x7394
8000d3ae:	ffff                	.insn	2, 0xffff
8000d3b0:	7394                	.insn	2, 0x7394
8000d3b2:	ffff                	.insn	2, 0xffff
8000d3b4:	7394                	.insn	2, 0x7394
8000d3b6:	ffff                	.insn	2, 0xffff
8000d3b8:	7394                	.insn	2, 0x7394
8000d3ba:	ffff                	.insn	2, 0xffff
8000d3bc:	7394                	.insn	2, 0x7394
8000d3be:	ffff                	.insn	2, 0xffff
8000d3c0:	6e38                	.insn	2, 0x6e38
8000d3c2:	ffff                	.insn	2, 0xffff
8000d3c4:	6e78                	.insn	2, 0x6e78
8000d3c6:	ffff                	.insn	2, 0xffff
8000d3c8:	7394                	.insn	2, 0x7394
8000d3ca:	ffff                	.insn	2, 0xffff
8000d3cc:	7394                	.insn	2, 0x7394
8000d3ce:	ffff                	.insn	2, 0xffff
8000d3d0:	7394                	.insn	2, 0x7394
8000d3d2:	ffff                	.insn	2, 0xffff
8000d3d4:	7394                	.insn	2, 0x7394
8000d3d6:	ffff                	.insn	2, 0xffff
8000d3d8:	6e78                	.insn	2, 0x6e78
8000d3da:	ffff                	.insn	2, 0xffff
8000d3dc:	7394                	.insn	2, 0x7394
8000d3de:	ffff                	.insn	2, 0xffff
8000d3e0:	7394                	.insn	2, 0x7394
8000d3e2:	ffff                	.insn	2, 0xffff
8000d3e4:	7394                	.insn	2, 0x7394
8000d3e6:	ffff                	.insn	2, 0xffff
8000d3e8:	7394                	.insn	2, 0x7394
8000d3ea:	ffff                	.insn	2, 0xffff
8000d3ec:	7274                	.insn	2, 0x7274
8000d3ee:	ffff                	.insn	2, 0xffff
8000d3f0:	6f40                	.insn	2, 0x6f40
8000d3f2:	ffff                	.insn	2, 0xffff
8000d3f4:	700c                	.insn	2, 0x700c
8000d3f6:	ffff                	.insn	2, 0xffff
8000d3f8:	7394                	.insn	2, 0x7394
8000d3fa:	ffff                	.insn	2, 0xffff
8000d3fc:	7394                	.insn	2, 0x7394
8000d3fe:	ffff                	.insn	2, 0xffff
8000d400:	7328                	.insn	2, 0x7328
8000d402:	ffff                	.insn	2, 0xffff
8000d404:	7394                	.insn	2, 0x7394
8000d406:	ffff                	.insn	2, 0xffff
8000d408:	6f40                	.insn	2, 0x6f40
8000d40a:	ffff                	.insn	2, 0xffff
8000d40c:	7394                	.insn	2, 0x7394
8000d40e:	ffff                	.insn	2, 0xffff
8000d410:	7394                	.insn	2, 0x7394
8000d412:	ffff                	.insn	2, 0xffff
8000d414:	703c                	.insn	2, 0x703c
8000d416:	ffff                	.insn	2, 0xffff
	...
8000d420:	2b302d23          	sw	s3,698(zero) # 2ba <UART_BASE-0xffffd46>
8000d424:	0020                	.insn	2, 0x0020
	...
8000d42e:	0000                	.insn	2, 0x0000
8000d430:	6c68                	.insn	2, 0x6c68
8000d432:	004c                	.insn	2, 0x004c
	...
8000d440:	6665                	.insn	2, 0x6665
8000d442:	47464567          	.insn	4, 0x47464567
	...
8000d44e:	0000                	.insn	2, 0x0000
8000d450:	202c                	.insn	2, 0x202c
8000d452:	7566                	.insn	2, 0x7566
8000d454:	636e                	.insn	2, 0x636e
8000d456:	6974                	.insn	2, 0x6974
8000d458:	203a6e6f          	jal	t3,800b3e5a <_end+0xa221a>
	...
8000d470:	7361                	.insn	2, 0x7361
8000d472:	74726573          	.insn	4, 0x74726573
8000d476:	6f69                	.insn	2, 0x6f69
8000d478:	206e                	.insn	2, 0x206e
8000d47a:	2522                	.insn	2, 0x2522
8000d47c:	66202273          	.insn	4, 0x66202273
8000d480:	6961                	.insn	2, 0x6961
8000d482:	656c                	.insn	2, 0x656c
8000d484:	3a64                	.insn	2, 0x3a64
8000d486:	6620                	.insn	2, 0x6620
8000d488:	6c69                	.insn	2, 0x6c69
8000d48a:	2065                	.insn	2, 0x2065
8000d48c:	2522                	.insn	2, 0x2522
8000d48e:	202c2273          	.insn	4, 0x202c2273
8000d492:	696c                	.insn	2, 0x696c
8000d494:	656e                	.insn	2, 0x656e
8000d496:	2520                	.insn	2, 0x2520
8000d498:	2564                	.insn	2, 0x2564
8000d49a:	0a732573          	.insn	4, 0x0a732573
8000d49e:	0000                	.insn	2, 0x0000
8000d4a0:	4552                	.insn	2, 0x4552
8000d4a2:	4e45                	.insn	2, 0x4e45
8000d4a4:	2054                	.insn	2, 0x2054
8000d4a6:	616d                	.insn	2, 0x616d
8000d4a8:	6c6c                	.insn	2, 0x6c6c
8000d4aa:	7320636f          	jal	t1,80013bdc <_end+0x1f9c>
8000d4ae:	6375                	.insn	2, 0x6375
8000d4b0:	64656563          	bltu	a0,t1,8000dafa <__clz_tab+0x27a>
8000d4b4:	6465                	.insn	2, 0x6465
	...
8000d4be:	0000                	.insn	2, 0x0000
8000d4c0:	2e2e                	.insn	2, 0x2e2e
8000d4c2:	2f2e2e2f          	.insn	4, 0x2f2e2e2f
8000d4c6:	2e2e                	.insn	2, 0x2e2e
8000d4c8:	2f2e2e2f          	.insn	4, 0x2f2e2e2f
8000d4cc:	2e2e                	.insn	2, 0x2e2e
8000d4ce:	77656e2f          	.insn	4, 0x77656e2f
8000d4d2:	696c                	.insn	2, 0x696c
8000d4d4:	2f62                	.insn	2, 0x2f62
8000d4d6:	696c                	.insn	2, 0x696c
8000d4d8:	6362                	.insn	2, 0x6362
8000d4da:	6474732f          	.insn	4, 0x6474732f
8000d4de:	696c                	.insn	2, 0x696c
8000d4e0:	2f62                	.insn	2, 0x2f62
8000d4e2:	706d                	.insn	2, 0x706d
8000d4e4:	6572                	.insn	2, 0x6572
8000d4e6:	00632e63          	.insn	4, 0x00632e63
8000d4ea:	0000                	.insn	2, 0x0000
8000d4ec:	0000                	.insn	2, 0x0000
8000d4ee:	0000                	.insn	2, 0x0000
8000d4f0:	6142                	.insn	2, 0x6142
8000d4f2:	6c6c                	.insn	2, 0x6c6c
8000d4f4:	7320636f          	jal	t1,80013c26 <_end+0x1fe6>
8000d4f8:	6375                	.insn	2, 0x6375
8000d4fa:	64656563          	bltu	a0,t1,8000db44 <_etext+0x14>
8000d4fe:	6465                	.insn	2, 0x6465
	...

8000d510 <__mprec_tens>:
8000d510:	0000 0000 0000 3ff0 0000 0000 0000 4024     .......?......$@
8000d520:	0000 0000 0000 4059 0000 0000 4000 408f     ......Y@.....@.@
8000d530:	0000 0000 8800 40c3 0000 0000 6a00 40f8     .......@.....j.@
8000d540:	0000 0000 8480 412e 0000 0000 12d0 4163     .......A......cA
8000d550:	0000 0000 d784 4197 0000 0000 cd65 41cd     .......A....e..A
8000d560:	0000 2000 a05f 4202 0000 e800 4876 4237     ... _..B....vH7B
8000d570:	0000 a200 1a94 426d 0000 e540 309c 42a2     ......mB..@..0.B
8000d580:	0000 1e90 bcc4 42d6 0000 2634 6bf5 430c     .......B..4&.k.C
8000d590:	8000 37e0 c379 4341 a000 85d8 3457 4376     ...7y.AC....W4vC
8000d5a0:	c800 674e c16d 43ab 3d00 6091 58e4 43e1     ..Ngm..C.=.`.X.C
8000d5b0:	8c40 78b5 af1d 4415 ef50 d6e2 1ae4 444b     @..x...DP.....KD
8000d5c0:	d592 064d f0cf 4480 4af6 c7e1 2d02 44b5     ..M....D.J...-.D
8000d5d0:	9db4 79d9 7843 44ea 0000 0000 0000 0000     ...yCx.D........

8000d5e0 <__mprec_bigtens>:
8000d5e0:	8000 37e0 c379 4341 6e17 b505 b8b5 4693     ...7y.AC.n.....F
8000d5f0:	f9f5 e93f 4f03 4d38 1d32 f930 7748 5a82     ..?..O8M2.0.Hw.Z
8000d600:	bf3c 7f73 4fdd 7515 0000 0000 0000 0000     <.s..O.u........

8000d610 <__mprec_tinytens>:
8000d610:	89bc 97d8 d2b2 3c9c a733 d5a8 f623 3949     .......<3...#.I9
8000d620:	a73d 44f4 0ffd 32a5 979d cf8c ba08 255b     =..D...2......[%
8000d630:	6f43 64ac 0628 0ac8 0000 0000 0000 0000     Co.d(...........

8000d640 <p05.0>:
8000d640:	0005 0000 0019 0000 007d 0000 0000 0000     ........}.......
8000d650:	0000 0000 0000 3ff0 0000 0000 0000 4024     .......?......$@
8000d660:	002e 0000 0000 0000 0000 0000 0000 0000     ................
	...
8000d680:	4f50 4953 0058 0000 0000 0000 0000 0000     POSIX...........
8000d690:	0043 0000 0000 0000 0000 0000 0000 0000     C...............

8000d6a0 <_ctype_>:
8000d6a0:	2000 2020 2020 2020 2020 2828 2828 2028     .         ((((( 
8000d6b0:	2020 2020 2020 2020 2020 2020 2020 2020                     
8000d6c0:	8820 1010 1010 1010 1010 1010 1010 1010      ...............
8000d6d0:	0410 0404 0404 0404 0404 1004 1010 1010     ................
8000d6e0:	1010 4141 4141 4141 0101 0101 0101 0101     ..AAAAAA........
8000d6f0:	0101 0101 0101 0101 0101 0101 1010 1010     ................
8000d700:	1010 4242 4242 4242 0202 0202 0202 0202     ..BBBBBB........
8000d710:	0202 0202 0202 0202 0202 0202 1010 1010     ................
8000d720:	0020 0000 0000 0000 0000 0000 0000 0000      ...............
	...
8000d7b0:	ffff ffff ffff ffbf ffff ffff ffff 7fff     ................
8000d7c0:	ffff ffff ffff ffef ffff ffff ffff 1fff     ................
8000d7d0:	da60 ffff d814 ffff d86c ffff d9b8 ffff     `.......l.......
8000d7e0:	d86c ffff d878 ffff d86c ffff d9b8 ffff     l...x...l.......
8000d7f0:	d814 ffff d814 ffff d878 ffff d9b8 ffff     ........x.......
8000d800:	d998 ffff d998 ffff d998 ffff d878 ffff     ............x...
8000d810:	d7d4 ffff d7d4 ffff d82c ffff db24 ffff     ........,...$...
8000d820:	d82c ffff d838 ffff d82c ffff db24 ffff     ,...8...,...$...
8000d830:	d7d4 ffff d7d4 ffff d838 ffff db24 ffff     ........8...$...
8000d840:	d958 ffff d958 ffff db24 ffff d7f4 ffff     X...X...$.......
8000d850:	daf4 ffff d7f4 ffff db24 ffff d79c ffff     ........$.......
8000d860:	d79c ffff daf4 ffff db24 ffff d91c ffff     ........$.......
8000d870:	d91c ffff d91c ffff 0000 0000 0000 0000     ................

8000d880 <__clz_tab>:
8000d880:	0100 0202 0303 0303 0404 0404 0404 0404     ................
8000d890:	0505 0505 0505 0505 0505 0505 0505 0505     ................
8000d8a0:	0606 0606 0606 0606 0606 0606 0606 0606     ................
8000d8b0:	0606 0606 0606 0606 0606 0606 0606 0606     ................
8000d8c0:	0707 0707 0707 0707 0707 0707 0707 0707     ................
8000d8d0:	0707 0707 0707 0707 0707 0707 0707 0707     ................
8000d8e0:	0707 0707 0707 0707 0707 0707 0707 0707     ................
8000d8f0:	0707 0707 0707 0707 0707 0707 0707 0707     ................
8000d900:	0808 0808 0808 0808 0808 0808 0808 0808     ................
8000d910:	0808 0808 0808 0808 0808 0808 0808 0808     ................
8000d920:	0808 0808 0808 0808 0808 0808 0808 0808     ................
8000d930:	0808 0808 0808 0808 0808 0808 0808 0808     ................
8000d940:	0808 0808 0808 0808 0808 0808 0808 0808     ................
8000d950:	0808 0808 0808 0808 0808 0808 0808 0808     ................
8000d960:	0808 0808 0808 0808 0808 0808 0808 0808     ................
8000d970:	0808 0808 0808 0808 0808 0808 0808 0808     ................
8000d980:	4150 494e 2043 2021 5053 5255 4f49 5355     PANIC ! SPURIOUS
8000d990:	5320 464f 5754 5241 2045 4e49 4554 5252      SOFTWARE INTERR
8000d9a0:	5055 2154 000a 0000 0000 0000 0000 0000     UPT!............
8000d9b0:	4150 494e 2043 2021 5053 5255 4f49 5355     PANIC ! SPURIOUS
8000d9c0:	5420 4d49 5245 4920 544e 5245 5552 5450      TIMER INTERRUPT
8000d9d0:	0a21 0000 0000 0000 0000 0000 0000 0000     !...............
8000d9e0:	4150 494e 2043 2021 5053 5255 4f49 5355     PANIC ! SPURIOUS
8000d9f0:	4520 5458 5245 414e 204c 4e49 4554 5252      EXTERNAL INTERR
8000da00:	5055 2154 000a 0000 0000 0000 0000 0000     UPT!............
8000da10:	4150 494e 2043 2021 5053 5255 4f49 5355     PANIC ! SPURIOUS
8000da20:	4920 544e 5245 5552 5450 0a21 0000 0000      INTERRUPT!.....
8000da30:	4150 494e 2043 2021 4e49 5453 5552 5443     PANIC ! INSTRUCT
8000da40:	4f49 204e 4341 4543 5353 4620 5541 544c     ION ACCESS FAULT
8000da50:	0a21 0000 0000 0000 0000 0000 0000 0000     !...............
8000da60:	4150 494e 2043 2021 5053 5255 4f49 5355     PANIC ! SPURIOUS
8000da70:	4c20 414f 2044 4341 4543 5353 4620 5541      LOAD ACCESS FAU
8000da80:	544c 0a21 0000 0000 0000 0000 0000 0000     LT!.............
8000da90:	4150 494e 2043 2021 5053 5255 4f49 5355     PANIC ! SPURIOUS
8000daa0:	5320 4f54 4552 4120 4343 5345 2053 4146      STORE ACCESS FA
8000dab0:	4c55 2154 000a 0000 0000 0000 0000 0000     ULT!............
8000dac0:	4150 494e 2043 2021 4e49 4552 4f43 4556     PANIC ! INRECOVE
8000dad0:	4152 4c42 2045 5845 4543 5450 4f49 214e     RABLE EXCEPTION!
	...
8000daf0:	6d0a 6163 7375 2065 203d 7830 6c25 0a78     .mcause = 0x%lx.
8000db00:	736d 6174 7574 2073 203d 7830 6c25 0a78     mstatus = 0x%lx.
8000db10:	656d 6370 3d20 3020 2578 786c 6d0a 7674     mepc = 0x%lx.mtv
8000db20:	6c61 3d20 3020 2578 786c 0000 0000 0000     al = 0x%lx......
